
ControlBoxDriver.elf:     file format elf32-avr

Sections:
Idx Name          Size      VMA       LMA       File off  Algn
  0 .data         000000cc  00800200  000031e0  00003274  2**0
                  CONTENTS, ALLOC, LOAD, DATA
  1 .text         000031e0  00000000  00000000  00000094  2**1
                  CONTENTS, ALLOC, LOAD, READONLY, CODE
  2 .bss          000006f3  008002cc  008002cc  00003340  2**0
                  ALLOC
  3 .comment      0000005c  00000000  00000000  00003340  2**0
                  CONTENTS, READONLY
  4 .note.gnu.avr.deviceinfo 00000040  00000000  00000000  0000339c  2**2
                  CONTENTS, READONLY
  5 .debug_aranges 000009f0  00000000  00000000  000033dc  2**0
                  CONTENTS, READONLY, DEBUGGING
  6 .debug_info   00011472  00000000  00000000  00003dcc  2**0
                  CONTENTS, READONLY, DEBUGGING
  7 .debug_abbrev 000047db  00000000  00000000  0001523e  2**0
                  CONTENTS, READONLY, DEBUGGING
  8 .debug_line   00004feb  00000000  00000000  00019a19  2**0
                  CONTENTS, READONLY, DEBUGGING
  9 .debug_frame  00001b30  00000000  00000000  0001ea04  2**2
                  CONTENTS, READONLY, DEBUGGING
 10 .debug_str    00003e57  00000000  00000000  00020534  2**0
                  CONTENTS, READONLY, DEBUGGING
 11 .debug_loc    0000890e  00000000  00000000  0002438b  2**0
                  CONTENTS, READONLY, DEBUGGING
 12 .debug_ranges 000009c8  00000000  00000000  0002cc99  2**0
                  CONTENTS, READONLY, DEBUGGING

Disassembly of section .text:

00000000 <__vectors>:
       0:	a3 c0       	rjmp	.+326    	; 0x148 <__ctors_end>
       2:	00 00       	nop
       4:	cb c0       	rjmp	.+406    	; 0x19c <__bad_interrupt>
       6:	00 00       	nop
       8:	c9 c0       	rjmp	.+402    	; 0x19c <__bad_interrupt>
       a:	00 00       	nop
       c:	c7 c0       	rjmp	.+398    	; 0x19c <__bad_interrupt>
       e:	00 00       	nop
      10:	c5 c0       	rjmp	.+394    	; 0x19c <__bad_interrupt>
      12:	00 00       	nop
      14:	c3 c0       	rjmp	.+390    	; 0x19c <__bad_interrupt>
      16:	00 00       	nop
      18:	c1 c0       	rjmp	.+386    	; 0x19c <__bad_interrupt>
      1a:	00 00       	nop
      1c:	bf c0       	rjmp	.+382    	; 0x19c <__bad_interrupt>
      1e:	00 00       	nop
      20:	bd c0       	rjmp	.+378    	; 0x19c <__bad_interrupt>
      22:	00 00       	nop
      24:	bb c0       	rjmp	.+374    	; 0x19c <__bad_interrupt>
      26:	00 00       	nop
      28:	b9 c0       	rjmp	.+370    	; 0x19c <__bad_interrupt>
      2a:	00 00       	nop
      2c:	b7 c0       	rjmp	.+366    	; 0x19c <__bad_interrupt>
      2e:	00 00       	nop
      30:	b5 c0       	rjmp	.+362    	; 0x19c <__bad_interrupt>
      32:	00 00       	nop
      34:	b3 c0       	rjmp	.+358    	; 0x19c <__bad_interrupt>
      36:	00 00       	nop
      38:	b1 c0       	rjmp	.+354    	; 0x19c <__bad_interrupt>
      3a:	00 00       	nop
      3c:	af c0       	rjmp	.+350    	; 0x19c <__bad_interrupt>
      3e:	00 00       	nop
      40:	ad c0       	rjmp	.+346    	; 0x19c <__bad_interrupt>
      42:	00 00       	nop
      44:	ab c0       	rjmp	.+342    	; 0x19c <__bad_interrupt>
      46:	00 00       	nop
      48:	a9 c0       	rjmp	.+338    	; 0x19c <__bad_interrupt>
      4a:	00 00       	nop
      4c:	a7 c0       	rjmp	.+334    	; 0x19c <__bad_interrupt>
      4e:	00 00       	nop
      50:	0c 94 42 0f 	jmp	0x1e84	; 0x1e84 <__vector_20>
      54:	a3 c0       	rjmp	.+326    	; 0x19c <__bad_interrupt>
      56:	00 00       	nop
      58:	a1 c0       	rjmp	.+322    	; 0x19c <__bad_interrupt>
      5a:	00 00       	nop
      5c:	0c 94 f3 0e 	jmp	0x1de6	; 0x1de6 <__vector_23>
      60:	9d c0       	rjmp	.+314    	; 0x19c <__bad_interrupt>
      62:	00 00       	nop
      64:	0c 94 fd 0f 	jmp	0x1ffa	; 0x1ffa <__vector_25>
      68:	0c 94 2f 10 	jmp	0x205e	; 0x205e <__vector_26>
      6c:	97 c0       	rjmp	.+302    	; 0x19c <__bad_interrupt>
      6e:	00 00       	nop
      70:	95 c0       	rjmp	.+298    	; 0x19c <__bad_interrupt>
      72:	00 00       	nop
      74:	93 c0       	rjmp	.+294    	; 0x19c <__bad_interrupt>
      76:	00 00       	nop
      78:	91 c0       	rjmp	.+290    	; 0x19c <__bad_interrupt>
      7a:	00 00       	nop
      7c:	8f c0       	rjmp	.+286    	; 0x19c <__bad_interrupt>
      7e:	00 00       	nop
      80:	8d c0       	rjmp	.+282    	; 0x19c <__bad_interrupt>
      82:	00 00       	nop
      84:	8b c0       	rjmp	.+278    	; 0x19c <__bad_interrupt>
      86:	00 00       	nop
      88:	89 c0       	rjmp	.+274    	; 0x19c <__bad_interrupt>
      8a:	00 00       	nop
      8c:	87 c0       	rjmp	.+270    	; 0x19c <__bad_interrupt>
      8e:	00 00       	nop
      90:	0c 94 71 10 	jmp	0x20e2	; 0x20e2 <__vector_36>
      94:	0c 94 a2 10 	jmp	0x2144	; 0x2144 <__vector_37>
      98:	81 c0       	rjmp	.+258    	; 0x19c <__bad_interrupt>
      9a:	00 00       	nop
      9c:	7f c0       	rjmp	.+254    	; 0x19c <__bad_interrupt>
      9e:	00 00       	nop
      a0:	7d c0       	rjmp	.+250    	; 0x19c <__bad_interrupt>
      a2:	00 00       	nop
      a4:	7b c0       	rjmp	.+246    	; 0x19c <__bad_interrupt>
      a6:	00 00       	nop
      a8:	79 c0       	rjmp	.+242    	; 0x19c <__bad_interrupt>
      aa:	00 00       	nop
      ac:	77 c0       	rjmp	.+238    	; 0x19c <__bad_interrupt>
      ae:	00 00       	nop
      b0:	75 c0       	rjmp	.+234    	; 0x19c <__bad_interrupt>
      b2:	00 00       	nop
      b4:	73 c0       	rjmp	.+230    	; 0x19c <__bad_interrupt>
      b6:	00 00       	nop
      b8:	71 c0       	rjmp	.+226    	; 0x19c <__bad_interrupt>
      ba:	00 00       	nop
      bc:	6f c0       	rjmp	.+222    	; 0x19c <__bad_interrupt>
      be:	00 00       	nop
      c0:	6d c0       	rjmp	.+218    	; 0x19c <__bad_interrupt>
      c2:	00 00       	nop
      c4:	6b c0       	rjmp	.+214    	; 0x19c <__bad_interrupt>
      c6:	00 00       	nop
      c8:	69 c0       	rjmp	.+210    	; 0x19c <__bad_interrupt>
      ca:	00 00       	nop
      cc:	0c 94 00 11 	jmp	0x2200	; 0x2200 <__vector_51>
      d0:	0c 94 32 11 	jmp	0x2264	; 0x2264 <__vector_52>
      d4:	63 c0       	rjmp	.+198    	; 0x19c <__bad_interrupt>
      d6:	00 00       	nop
      d8:	0c 94 9b 11 	jmp	0x2336	; 0x2336 <__vector_54>
      dc:	0c 94 cd 11 	jmp	0x239a	; 0x239a <__vector_55>
      e0:	5d c0       	rjmp	.+186    	; 0x19c <__bad_interrupt>
      e2:	00 00       	nop
      e4:	cc 02       	muls	r28, r28
      e6:	ab 02       	muls	r26, r27
      e8:	ae 02       	muls	r26, r30
      ea:	b1 02       	muls	r27, r17
      ec:	b4 02       	muls	r27, r20
      ee:	b7 02       	muls	r27, r23
      f0:	ba 02       	muls	r27, r26
      f2:	bd 02       	muls	r27, r29
      f4:	c0 02       	muls	r28, r16
      f6:	c3 02       	muls	r28, r19
      f8:	c6 02       	muls	r28, r22
      fa:	f9 02       	muls	r31, r25
      fc:	d8 02       	muls	r29, r24
      fe:	db 02       	muls	r29, r27
     100:	de 02       	muls	r29, r30
     102:	e1 02       	muls	r30, r17
     104:	e4 02       	muls	r30, r20
     106:	e7 02       	muls	r30, r23
     108:	ea 02       	muls	r30, r26
     10a:	ed 02       	muls	r30, r29
     10c:	f0 02       	muls	r31, r16
     10e:	f3 02       	muls	r31, r19
     110:	e3 07       	cpc	r30, r19
     112:	e8 07       	cpc	r30, r24
     114:	eb 07       	cpc	r30, r27
     116:	ef 07       	cpc	r30, r31
     118:	f2 07       	cpc	r31, r18
     11a:	06 08       	sbc	r0, r6
     11c:	fd 07       	cpc	r31, r29
     11e:	00 08       	sbc	r0, r0
     120:	71 08       	sbc	r7, r1
     122:	76 08       	sbc	r7, r6
     124:	79 08       	sbc	r7, r9
     126:	7d 08       	sbc	r7, r13
     128:	8c 08       	sbc	r8, r12
     12a:	80 08       	sbc	r8, r0
     12c:	83 08       	sbc	r8, r3
     12e:	86 08       	sbc	r8, r6
     130:	d8 0f       	add	r29, r24
     132:	db 0f       	add	r29, r27
     134:	df 0f       	add	r29, r31
     136:	e3 0f       	add	r30, r19
     138:	e7 0f       	add	r30, r23
     13a:	eb 0f       	add	r30, r27
     13c:	ef 0f       	add	r30, r31
     13e:	f3 0f       	add	r31, r19

00000140 <__ctors_start>:
     140:	87 01       	movw	r16, r14
     142:	a5 06       	cpc	r10, r21
     144:	57 0e       	add	r5, r23
     146:	e3 0e       	add	r14, r19

00000148 <__ctors_end>:
     148:	11 24       	eor	r1, r1
     14a:	1f be       	out	0x3f, r1	; 63
     14c:	cf ef       	ldi	r28, 0xFF	; 255
     14e:	d1 e2       	ldi	r29, 0x21	; 33
     150:	de bf       	out	0x3e, r29	; 62
     152:	cd bf       	out	0x3d, r28	; 61

00000154 <__do_copy_data>:
     154:	12 e0       	ldi	r17, 0x02	; 2
     156:	a0 e0       	ldi	r26, 0x00	; 0
     158:	b2 e0       	ldi	r27, 0x02	; 2
     15a:	e0 ee       	ldi	r30, 0xE0	; 224
     15c:	f1 e3       	ldi	r31, 0x31	; 49
     15e:	00 e0       	ldi	r16, 0x00	; 0
     160:	0b bf       	out	0x3b, r16	; 59
     162:	02 c0       	rjmp	.+4      	; 0x168 <__do_copy_data+0x14>
     164:	07 90       	elpm	r0, Z+
     166:	0d 92       	st	X+, r0
     168:	ac 3c       	cpi	r26, 0xCC	; 204
     16a:	b1 07       	cpc	r27, r17
     16c:	d9 f7       	brne	.-10     	; 0x164 <__do_copy_data+0x10>

0000016e <__do_clear_bss>:
     16e:	29 e0       	ldi	r18, 0x09	; 9
     170:	ac ec       	ldi	r26, 0xCC	; 204
     172:	b2 e0       	ldi	r27, 0x02	; 2
     174:	01 c0       	rjmp	.+2      	; 0x178 <.do_clear_bss_start>

00000176 <.do_clear_bss_loop>:
     176:	1d 92       	st	X+, r1

00000178 <.do_clear_bss_start>:
     178:	af 3b       	cpi	r26, 0xBF	; 191
     17a:	b2 07       	cpc	r27, r18
     17c:	e1 f7       	brne	.-8      	; 0x176 <.do_clear_bss_loop>

0000017e <__do_global_ctors>:
     17e:	10 e0       	ldi	r17, 0x00	; 0
     180:	c4 ea       	ldi	r28, 0xA4	; 164
     182:	d0 e0       	ldi	r29, 0x00	; 0
     184:	04 c0       	rjmp	.+8      	; 0x18e <__do_global_ctors+0x10>
     186:	21 97       	sbiw	r28, 0x01	; 1
     188:	fe 01       	movw	r30, r28
     18a:	0e 94 52 14 	call	0x28a4	; 0x28a4 <__tablejump2__>
     18e:	c0 3a       	cpi	r28, 0xA0	; 160
     190:	d1 07       	cpc	r29, r17
     192:	c9 f7       	brne	.-14     	; 0x186 <__do_global_ctors+0x8>
     194:	0e 94 6c 0d 	call	0x1ad8	; 0x1ad8 <main>
     198:	0c 94 ee 18 	jmp	0x31dc	; 0x31dc <_exit>

0000019c <__bad_interrupt>:
     19c:	31 cf       	rjmp	.-414    	; 0x0 <__vectors>

0000019e <_ZN14Communications10initializeEjP6Memory>:
}

long Communications::mapVal(long x, long in_min, long in_max, long out_min, long out_max)
{
	return  (x - in_min) * (out_max - out_min ) / (in_max - in_min) + out_min;
}
     19e:	fc 01       	movw	r30, r24
     1a0:	51 83       	std	Z+1, r21	; 0x01
     1a2:	40 83       	st	Z, r20
     1a4:	88 e0       	ldi	r24, 0x08	; 8
     1a6:	90 e0       	ldi	r25, 0x00	; 0
     1a8:	0e 94 cf 10 	call	0x219e	; 0x219e <_Z16uart1_initializej>
     1ac:	44 e6       	ldi	r20, 0x64	; 100
     1ae:	50 e0       	ldi	r21, 0x00	; 0
     1b0:	60 e0       	ldi	r22, 0x00	; 0
     1b2:	70 e0       	ldi	r23, 0x00	; 0
     1b4:	8c ef       	ldi	r24, 0xFC	; 252
     1b6:	92 e0       	ldi	r25, 0x02	; 2
     1b8:	0e 94 aa 0e 	call	0x1d54	; 0x1d54 <_ZN6Clocks11setIntervalEl>
     1bc:	4c e2       	ldi	r20, 0x2C	; 44
     1be:	51 e0       	ldi	r21, 0x01	; 1
     1c0:	60 e0       	ldi	r22, 0x00	; 0
     1c2:	70 e0       	ldi	r23, 0x00	; 0
     1c4:	80 ef       	ldi	r24, 0xF0	; 240
     1c6:	92 e0       	ldi	r25, 0x02	; 2
     1c8:	0e 94 aa 0e 	call	0x1d54	; 0x1d54 <_ZN6Clocks11setIntervalEl>
     1cc:	40 ed       	ldi	r20, 0xD0	; 208
     1ce:	57 e0       	ldi	r21, 0x07	; 7
     1d0:	60 e0       	ldi	r22, 0x00	; 0
     1d2:	70 e0       	ldi	r23, 0x00	; 0
     1d4:	84 ee       	ldi	r24, 0xE4	; 228
     1d6:	92 e0       	ldi	r25, 0x02	; 2
     1d8:	0e 94 aa 0e 	call	0x1d54	; 0x1d54 <_ZN6Clocks11setIntervalEl>
     1dc:	42 ef       	ldi	r20, 0xF2	; 242
     1de:	53 e0       	ldi	r21, 0x03	; 3
     1e0:	60 e0       	ldi	r22, 0x00	; 0
     1e2:	70 e0       	ldi	r23, 0x00	; 0
     1e4:	88 ed       	ldi	r24, 0xD8	; 216
     1e6:	92 e0       	ldi	r25, 0x02	; 2
     1e8:	0c 94 aa 0e 	jmp	0x1d54	; 0x1d54 <_ZN6Clocks11setIntervalEl>
     1ec:	08 95       	ret

000001ee <_ZN14Communications5parseEh>:
     1ee:	cf 92       	push	r12
     1f0:	df 92       	push	r13
     1f2:	ef 92       	push	r14
     1f4:	ff 92       	push	r15
     1f6:	0f 93       	push	r16
     1f8:	1f 93       	push	r17
     1fa:	cf 93       	push	r28
     1fc:	df 93       	push	r29
     1fe:	00 d0       	rcall	.+0      	; 0x200 <_ZN14Communications5parseEh+0x12>
     200:	1f 92       	push	r1
     202:	cd b7       	in	r28, 0x3d	; 61
     204:	de b7       	in	r29, 0x3e	; 62
     206:	6c 01       	movw	r12, r24
     208:	7c 01       	movw	r14, r24
     20a:	8b e9       	ldi	r24, 0x9B	; 155
     20c:	e8 0e       	add	r14, r24
     20e:	f1 1c       	adc	r15, r1
     210:	c7 01       	movw	r24, r14
     212:	ec d0       	rcall	.+472    	; 0x3ec <_ZN18FastTransferParser4pushEh>
     214:	c7 01       	movw	r24, r14
     216:	4a d1       	rcall	.+660    	; 0x4ac <_ZNK18FastTransferParser14valid_messagesEv>
     218:	88 23       	and	r24, r24
     21a:	d1 f0       	breq	.+52     	; 0x250 <_ZN14Communications5parseEh+0x62>
     21c:	c7 01       	movw	r24, r14
     21e:	5d d1       	rcall	.+698    	; 0x4da <_ZNK18FastTransferParser12num_messagesEv>
     220:	08 2f       	mov	r16, r24
     222:	88 23       	and	r24, r24
     224:	91 f0       	breq	.+36     	; 0x24a <_ZN14Communications5parseEh+0x5c>
     226:	10 e0       	ldi	r17, 0x00	; 0
     228:	82 e0       	ldi	r24, 0x02	; 2
     22a:	c8 0e       	add	r12, r24
     22c:	d1 1c       	adc	r13, r1
     22e:	61 2f       	mov	r22, r17
     230:	c7 01       	movw	r24, r14
     232:	f5 d0       	rcall	.+490    	; 0x41e <_ZNK18FastTransferParser11get_messageEh>
     234:	69 83       	std	Y+1, r22	; 0x01
     236:	7a 83       	std	Y+2, r23	; 0x02
     238:	8b 83       	std	Y+3, r24	; 0x03
     23a:	be 01       	movw	r22, r28
     23c:	6f 5f       	subi	r22, 0xFF	; 255
     23e:	7f 4f       	sbci	r23, 0xFF	; 255
     240:	c6 01       	movw	r24, r12
     242:	83 d0       	rcall	.+262    	; 0x34a <_ZN12MessageQueue4pushERK7Message>
     244:	1f 5f       	subi	r17, 0xFF	; 255
     246:	01 13       	cpse	r16, r17
     248:	f2 cf       	rjmp	.-28     	; 0x22e <_ZN14Communications5parseEh+0x40>
     24a:	c7 01       	movw	r24, r14
     24c:	e5 d0       	rcall	.+458    	; 0x418 <_ZN18FastTransferParser5clearEv>
     24e:	06 c0       	rjmp	.+12     	; 0x25c <_ZN14Communications5parseEh+0x6e>
     250:	c7 01       	movw	r24, r14
     252:	da d0       	rcall	.+436    	; 0x408 <_ZNK18FastTransferParser7is_fullEv>
     254:	88 23       	and	r24, r24
     256:	11 f0       	breq	.+4      	; 0x25c <_ZN14Communications5parseEh+0x6e>
     258:	c7 01       	movw	r24, r14
     25a:	de d0       	rcall	.+444    	; 0x418 <_ZN18FastTransferParser5clearEv>
     25c:	0f 90       	pop	r0
     25e:	0f 90       	pop	r0
     260:	0f 90       	pop	r0
     262:	df 91       	pop	r29
     264:	cf 91       	pop	r28
     266:	1f 91       	pop	r17
     268:	0f 91       	pop	r16
     26a:	ff 90       	pop	r15
     26c:	ef 90       	pop	r14
     26e:	df 90       	pop	r13
     270:	cf 90       	pop	r12
     272:	08 95       	ret

00000274 <_ZN14Communications4readEv>:
     274:	cf 93       	push	r28
     276:	df 93       	push	r29
     278:	ec 01       	movw	r28, r24
     27a:	0e 94 e3 10 	call	0x21c6	; 0x21c6 <_Z15uart1_read_bytev>
     27e:	9c 01       	movw	r18, r24
     280:	22 27       	eor	r18, r18
     282:	23 2b       	or	r18, r19
     284:	49 f4       	brne	.+18     	; 0x298 <_ZN14Communications4readEv+0x24>
     286:	68 2f       	mov	r22, r24
     288:	ce 01       	movw	r24, r28
     28a:	b1 df       	rcall	.-158    	; 0x1ee <_ZN14Communications5parseEh>
     28c:	0e 94 e3 10 	call	0x21c6	; 0x21c6 <_Z15uart1_read_bytev>
     290:	9c 01       	movw	r18, r24
     292:	22 27       	eor	r18, r18
     294:	23 2b       	or	r18, r19
     296:	b9 f3       	breq	.-18     	; 0x286 <_ZN14Communications4readEv+0x12>
     298:	df 91       	pop	r29
     29a:	cf 91       	pop	r28
     29c:	08 95       	ret

0000029e <_ZN14Communications7receiveEv>:
     29e:	df 92       	push	r13
     2a0:	ef 92       	push	r14
     2a2:	ff 92       	push	r15
     2a4:	0f 93       	push	r16
     2a6:	1f 93       	push	r17
     2a8:	cf 93       	push	r28
     2aa:	df 93       	push	r29
     2ac:	7c 01       	movw	r14, r24
     2ae:	e2 df       	rcall	.-60     	; 0x274 <_ZN14Communications4readEv>
     2b0:	82 e0       	ldi	r24, 0x02	; 2
     2b2:	e8 0e       	add	r14, r24
     2b4:	f1 1c       	adc	r15, r1
     2b6:	c7 01       	movw	r24, r14
     2b8:	93 d0       	rcall	.+294    	; 0x3e0 <_ZNK12MessageQueue5countEv>
     2ba:	88 23       	and	r24, r24
     2bc:	01 f1       	breq	.+64     	; 0x2fe <_ZN14Communications7receiveEv+0x60>
     2be:	c7 01       	movw	r24, r14
     2c0:	6f d0       	rcall	.+222    	; 0x3a0 <_ZN12MessageQueue3popEv>
     2c2:	16 2f       	mov	r17, r22
     2c4:	d7 2e       	mov	r13, r23
     2c6:	c8 2f       	mov	r28, r24
     2c8:	86 2f       	mov	r24, r22
     2ca:	0e 94 d7 0d 	call	0x1bae	; 0x1bae <_ZN6Memory13valid_addressEh>
     2ce:	88 23       	and	r24, r24
     2d0:	91 f3       	breq	.-28     	; 0x2b6 <_ZN14Communications7receiveEv+0x18>
     2d2:	d0 e0       	ldi	r29, 0x00	; 0
     2d4:	dc 2f       	mov	r29, r28
     2d6:	cc 27       	eor	r28, r28
     2d8:	cd 0d       	add	r28, r13
     2da:	d1 1d       	adc	r29, r1
     2dc:	11 30       	cpi	r17, 0x01	; 1
     2de:	51 f4       	brne	.+20     	; 0x2f4 <_ZN14Communications7receiveEv+0x56>
     2e0:	20 97       	sbiw	r28, 0x00	; 0
     2e2:	41 f4       	brne	.+16     	; 0x2f4 <_ZN14Communications7receiveEv+0x56>
     2e4:	81 e0       	ldi	r24, 0x01	; 1
     2e6:	0e 94 ca 0d 	call	0x1b94	; 0x1b94 <_ZN6Memory4readEh>
     2ea:	60 e0       	ldi	r22, 0x00	; 0
     2ec:	70 e0       	ldi	r23, 0x00	; 0
     2ee:	81 5c       	subi	r24, 0xC1	; 193
     2f0:	0e 94 b0 0d 	call	0x1b60	; 0x1b60 <_ZN6Memory5writeEhj>
     2f4:	be 01       	movw	r22, r28
     2f6:	81 2f       	mov	r24, r17
     2f8:	0e 94 b0 0d 	call	0x1b60	; 0x1b60 <_ZN6Memory5writeEhj>
     2fc:	dc cf       	rjmp	.-72     	; 0x2b6 <_ZN14Communications7receiveEv+0x18>
     2fe:	df 91       	pop	r29
     300:	cf 91       	pop	r28
     302:	1f 91       	pop	r17
     304:	0f 91       	pop	r16
     306:	ff 90       	pop	r15
     308:	ef 90       	pop	r14
     30a:	df 90       	pop	r13
     30c:	08 95       	ret

0000030e <_GLOBAL__sub_I_MACRO_RE_SEND_TIMER>:
#define when break;case
#define otherwise break;default

const UART_MODULE uart = UART_1;

Clocks MACRO_RE_SEND_TIMER, ROBOT_PING_TIMER;
     30e:	8c ef       	ldi	r24, 0xFC	; 252
     310:	92 e0       	ldi	r25, 0x02	; 2
     312:	0e 94 70 0e 	call	0x1ce0	; 0x1ce0 <_ZN6ClocksC1Ev>
     316:	80 ef       	ldi	r24, 0xF0	; 240
     318:	92 e0       	ldi	r25, 0x02	; 2
     31a:	0e 94 70 0e 	call	0x1ce0	; 0x1ce0 <_ZN6ClocksC1Ev>
Clocks ROBOT_CONNECTED_TIMEOUT, CONNECTED_TIME;
     31e:	84 ee       	ldi	r24, 0xE4	; 228
     320:	92 e0       	ldi	r25, 0x02	; 2
     322:	0e 94 70 0e 	call	0x1ce0	; 0x1ce0 <_ZN6ClocksC1Ev>
     326:	88 ed       	ldi	r24, 0xD8	; 216
     328:	92 e0       	ldi	r25, 0x02	; 2
     32a:	0e 94 70 0e 	call	0x1ce0	; 0x1ce0 <_ZN6ClocksC1Ev>
	return unread_messages.pop();
}


// Talking to the Robot
static Clocks TransmitPeriodTimer(100);
     32e:	44 e6       	ldi	r20, 0x64	; 100
     330:	50 e0       	ldi	r21, 0x00	; 0
     332:	60 e0       	ldi	r22, 0x00	; 0
     334:	70 e0       	ldi	r23, 0x00	; 0
     336:	8c ec       	ldi	r24, 0xCC	; 204
     338:	92 e0       	ldi	r25, 0x02	; 2
     33a:	0c 94 8a 0e 	jmp	0x1d14	; 0x1d14 <_ZN6ClocksC1El>
     33e:	08 95       	ret

00000340 <_ZN12MessageQueueC1Ev>:
     340:	fc 01       	movw	r30, r24
     342:	10 82       	st	Z, r1
     344:	11 82       	std	Z+1, r1	; 0x01
     346:	12 82       	std	Z+2, r1	; 0x02
     348:	08 95       	ret

0000034a <_ZN12MessageQueue4pushERK7Message>:
     34a:	cf 93       	push	r28
     34c:	df 93       	push	r29
     34e:	dc 01       	movw	r26, r24
     350:	11 96       	adiw	r26, 0x01	; 1
     352:	2c 91       	ld	r18, X
     354:	11 97       	sbiw	r26, 0x01	; 1
     356:	81 e0       	ldi	r24, 0x01	; 1
     358:	82 0f       	add	r24, r18
     35a:	11 96       	adiw	r26, 0x01	; 1
     35c:	8c 93       	st	X, r24
     35e:	11 97       	sbiw	r26, 0x01	; 1
     360:	30 e0       	ldi	r19, 0x00	; 0
     362:	2f 5f       	subi	r18, 0xFF	; 255
     364:	3f 4f       	sbci	r19, 0xFF	; 255
     366:	f9 01       	movw	r30, r18
     368:	ee 0f       	add	r30, r30
     36a:	ff 1f       	adc	r31, r31
     36c:	2e 0f       	add	r18, r30
     36e:	3f 1f       	adc	r19, r31
     370:	fd 01       	movw	r30, r26
     372:	e2 0f       	add	r30, r18
     374:	f3 1f       	adc	r31, r19
     376:	eb 01       	movw	r28, r22
     378:	28 81       	ld	r18, Y
     37a:	39 81       	ldd	r19, Y+1	; 0x01
     37c:	4a 81       	ldd	r20, Y+2	; 0x02
     37e:	20 83       	st	Z, r18
     380:	31 83       	std	Z+1, r19	; 0x01
     382:	42 83       	std	Z+2, r20	; 0x02
     384:	82 33       	cpi	r24, 0x32	; 50
     386:	18 f0       	brcs	.+6      	; 0x38e <_ZN12MessageQueue4pushERK7Message+0x44>
     388:	11 96       	adiw	r26, 0x01	; 1
     38a:	1c 92       	st	X, r1
     38c:	11 97       	sbiw	r26, 0x01	; 1
     38e:	12 96       	adiw	r26, 0x02	; 2
     390:	8c 91       	ld	r24, X
     392:	12 97       	sbiw	r26, 0x02	; 2
     394:	8f 5f       	subi	r24, 0xFF	; 255
     396:	12 96       	adiw	r26, 0x02	; 2
     398:	8c 93       	st	X, r24
     39a:	df 91       	pop	r29
     39c:	cf 91       	pop	r28
     39e:	08 95       	ret

000003a0 <_ZN12MessageQueue3popEv>:
     3a0:	dc 01       	movw	r26, r24
     3a2:	9c 91       	ld	r25, X
     3a4:	81 e0       	ldi	r24, 0x01	; 1
     3a6:	89 0f       	add	r24, r25
     3a8:	29 2f       	mov	r18, r25
     3aa:	30 e0       	ldi	r19, 0x00	; 0
     3ac:	82 33       	cpi	r24, 0x32	; 50
     3ae:	10 f4       	brcc	.+4      	; 0x3b4 <_ZN12MessageQueue3popEv+0x14>
     3b0:	8c 93       	st	X, r24
     3b2:	01 c0       	rjmp	.+2      	; 0x3b6 <_ZN12MessageQueue3popEv+0x16>
     3b4:	1c 92       	st	X, r1
     3b6:	12 96       	adiw	r26, 0x02	; 2
     3b8:	8c 91       	ld	r24, X
     3ba:	12 97       	sbiw	r26, 0x02	; 2
     3bc:	81 50       	subi	r24, 0x01	; 1
     3be:	12 96       	adiw	r26, 0x02	; 2
     3c0:	8c 93       	st	X, r24
     3c2:	12 97       	sbiw	r26, 0x02	; 2
     3c4:	2f 5f       	subi	r18, 0xFF	; 255
     3c6:	3f 4f       	sbci	r19, 0xFF	; 255
     3c8:	f9 01       	movw	r30, r18
     3ca:	ee 0f       	add	r30, r30
     3cc:	ff 1f       	adc	r31, r31
     3ce:	2e 0f       	add	r18, r30
     3d0:	3f 1f       	adc	r19, r31
     3d2:	fd 01       	movw	r30, r26
     3d4:	e2 0f       	add	r30, r18
     3d6:	f3 1f       	adc	r31, r19
     3d8:	60 81       	ld	r22, Z
     3da:	71 81       	ldd	r23, Z+1	; 0x01
     3dc:	82 81       	ldd	r24, Z+2	; 0x02
     3de:	08 95       	ret

000003e0 <_ZNK12MessageQueue5countEv>:
     3e0:	fc 01       	movw	r30, r24
     3e2:	82 81       	ldd	r24, Z+2	; 0x02
     3e4:	08 95       	ret

000003e6 <_ZN18FastTransferParserC1Ev>:
     3e6:	fc 01       	movw	r30, r24
     3e8:	12 aa       	std	Z+50, r1	; 0x32
     3ea:	08 95       	ret

000003ec <_ZN18FastTransferParser4pushEh>:
     3ec:	fc 01       	movw	r30, r24
     3ee:	22 a9       	ldd	r18, Z+50	; 0x32
     3f0:	21 11       	cpse	r18, r1
     3f2:	02 c0       	rjmp	.+4      	; 0x3f8 <_ZN18FastTransferParser4pushEh+0xc>
     3f4:	66 30       	cpi	r22, 0x06	; 6
     3f6:	39 f4       	brne	.+14     	; 0x406 <__LOCK_REGION_LENGTH__+0x6>
     3f8:	31 e0       	ldi	r19, 0x01	; 1
     3fa:	32 0f       	add	r19, r18
     3fc:	fc 01       	movw	r30, r24
     3fe:	32 ab       	std	Z+50, r19	; 0x32
     400:	e2 0f       	add	r30, r18
     402:	f1 1d       	adc	r31, r1
     404:	60 83       	st	Z, r22
     406:	08 95       	ret

00000408 <_ZNK18FastTransferParser7is_fullEv>:
     408:	21 e0       	ldi	r18, 0x01	; 1
     40a:	fc 01       	movw	r30, r24
     40c:	82 a9       	ldd	r24, Z+50	; 0x32
     40e:	82 33       	cpi	r24, 0x32	; 50
     410:	08 f4       	brcc	.+2      	; 0x414 <_ZNK18FastTransferParser7is_fullEv+0xc>
     412:	20 e0       	ldi	r18, 0x00	; 0
     414:	82 2f       	mov	r24, r18
     416:	08 95       	ret

00000418 <_ZN18FastTransferParser5clearEv>:
     418:	fc 01       	movw	r30, r24
     41a:	12 aa       	std	Z+50, r1	; 0x32
     41c:	08 95       	ret

0000041e <_ZNK18FastTransferParser11get_messageEh>:
     41e:	26 2f       	mov	r18, r22
     420:	22 0f       	add	r18, r18
     422:	62 0f       	add	r22, r18
     424:	6b 5f       	subi	r22, 0xFB	; 251
     426:	fc 01       	movw	r30, r24
     428:	e6 0f       	add	r30, r22
     42a:	f1 1d       	adc	r31, r1
     42c:	71 81       	ldd	r23, Z+1	; 0x01
     42e:	60 81       	ld	r22, Z
     430:	82 81       	ldd	r24, Z+2	; 0x02
     432:	08 95       	ret

00000434 <_ZNK18FastTransferParser10verify_crcEv>:
     434:	ef 92       	push	r14
     436:	ff 92       	push	r15
     438:	0f 93       	push	r16
     43a:	1f 93       	push	r17
     43c:	cf 93       	push	r28
     43e:	df 93       	push	r29
     440:	7c 01       	movw	r14, r24
     442:	fc 01       	movw	r30, r24
     444:	c2 a9       	ldd	r28, Z+50	; 0x32
     446:	0c 2f       	mov	r16, r28
     448:	10 e0       	ldi	r17, 0x00	; 0
     44a:	01 50       	subi	r16, 0x01	; 1
     44c:	11 09       	sbc	r17, r1
     44e:	06 30       	cpi	r16, 0x06	; 6
     450:	11 05       	cpc	r17, r1
     452:	ec f0       	brlt	.+58     	; 0x48e <_ZNK18FastTransferParser10verify_crcEv+0x5a>
     454:	dc 01       	movw	r26, r24
     456:	15 96       	adiw	r26, 0x05	; 5
     458:	e8 01       	movw	r28, r16
     45a:	c8 0f       	add	r28, r24
     45c:	d9 1f       	adc	r29, r25
     45e:	90 e0       	ldi	r25, 0x00	; 0
     460:	ec e8       	ldi	r30, 0x8C	; 140
     462:	6d 91       	ld	r22, X+
     464:	48 e0       	ldi	r20, 0x08	; 8
     466:	50 e0       	ldi	r21, 0x00	; 0
     468:	79 2f       	mov	r23, r25
     46a:	76 27       	eor	r23, r22
     46c:	29 2f       	mov	r18, r25
     46e:	30 e0       	ldi	r19, 0x00	; 0
     470:	35 95       	asr	r19
     472:	27 95       	ror	r18
     474:	92 2f       	mov	r25, r18
     476:	70 ff       	sbrs	r23, 0
     478:	02 c0       	rjmp	.+4      	; 0x47e <_ZNK18FastTransferParser10verify_crcEv+0x4a>
     47a:	9e 2f       	mov	r25, r30
     47c:	92 27       	eor	r25, r18
     47e:	66 95       	lsr	r22
     480:	41 50       	subi	r20, 0x01	; 1
     482:	51 09       	sbc	r21, r1
     484:	89 f7       	brne	.-30     	; 0x468 <_ZNK18FastTransferParser10verify_crcEv+0x34>
     486:	ca 17       	cp	r28, r26
     488:	db 07       	cpc	r29, r27
     48a:	59 f7       	brne	.-42     	; 0x462 <_ZNK18FastTransferParser10verify_crcEv+0x2e>
     48c:	01 c0       	rjmp	.+2      	; 0x490 <_ZNK18FastTransferParser10verify_crcEv+0x5c>
     48e:	90 e0       	ldi	r25, 0x00	; 0
     490:	f7 01       	movw	r30, r14
     492:	e0 0f       	add	r30, r16
     494:	f1 1f       	adc	r31, r17
     496:	81 e0       	ldi	r24, 0x01	; 1
     498:	20 81       	ld	r18, Z
     49a:	29 13       	cpse	r18, r25
     49c:	80 e0       	ldi	r24, 0x00	; 0
     49e:	df 91       	pop	r29
     4a0:	cf 91       	pop	r28
     4a2:	1f 91       	pop	r17
     4a4:	0f 91       	pop	r16
     4a6:	ff 90       	pop	r15
     4a8:	ef 90       	pop	r14
     4aa:	08 95       	ret

000004ac <_ZNK18FastTransferParser14valid_messagesEv>:
     4ac:	fc 01       	movw	r30, r24
     4ae:	22 a9       	ldd	r18, Z+50	; 0x32
     4b0:	26 30       	cpi	r18, 0x06	; 6
     4b2:	68 f0       	brcs	.+26     	; 0x4ce <_ZNK18FastTransferParser14valid_messagesEv+0x22>
     4b4:	32 81       	ldd	r19, Z+2	; 0x02
     4b6:	31 30       	cpi	r19, 0x01	; 1
     4b8:	61 f4       	brne	.+24     	; 0x4d2 <_ZNK18FastTransferParser14valid_messagesEv+0x26>
     4ba:	44 81       	ldd	r20, Z+4	; 0x04
     4bc:	50 e0       	ldi	r21, 0x00	; 0
     4be:	4a 5f       	subi	r20, 0xFA	; 250
     4c0:	5f 4f       	sbci	r21, 0xFF	; 255
     4c2:	30 e0       	ldi	r19, 0x00	; 0
     4c4:	42 17       	cp	r20, r18
     4c6:	53 07       	cpc	r21, r19
     4c8:	31 f4       	brne	.+12     	; 0x4d6 <_ZNK18FastTransferParser14valid_messagesEv+0x2a>
     4ca:	b4 cf       	rjmp	.-152    	; 0x434 <_ZNK18FastTransferParser10verify_crcEv>
     4cc:	08 95       	ret
     4ce:	80 e0       	ldi	r24, 0x00	; 0
     4d0:	08 95       	ret
     4d2:	80 e0       	ldi	r24, 0x00	; 0
     4d4:	08 95       	ret
     4d6:	80 e0       	ldi	r24, 0x00	; 0
     4d8:	08 95       	ret

000004da <_ZNK18FastTransferParser12num_messagesEv>:
     4da:	cf 93       	push	r28
     4dc:	df 93       	push	r29
     4de:	ec 01       	movw	r28, r24
     4e0:	e5 df       	rcall	.-54     	; 0x4ac <_ZNK18FastTransferParser14valid_messagesEv>
     4e2:	88 23       	and	r24, r24
     4e4:	39 f0       	breq	.+14     	; 0x4f4 <_ZNK18FastTransferParser12num_messagesEv+0x1a>
     4e6:	8c 81       	ldd	r24, Y+4	; 0x04
     4e8:	9b ea       	ldi	r25, 0xAB	; 171
     4ea:	89 9f       	mul	r24, r25
     4ec:	81 2d       	mov	r24, r1
     4ee:	11 24       	eor	r1, r1
     4f0:	86 95       	lsr	r24
     4f2:	01 c0       	rjmp	.+2      	; 0x4f6 <_ZNK18FastTransferParser12num_messagesEv+0x1c>
     4f4:	80 e0       	ldi	r24, 0x00	; 0
     4f6:	df 91       	pop	r29
     4f8:	cf 91       	pop	r28
     4fa:	08 95       	ret

000004fc <_ZN16ControlBoxEngine10initializeEv>:
#include "timer/Clock.hpp"
#include "digital_io/digital_pin.hpp"
#include "uart/uart_2.hpp"

void ControlBoxEngine::initialize ()
{
     4fc:	cf 93       	push	r28
     4fe:	df 93       	push	r29
     500:	ec 01       	movw	r28, r24
	sei();
     502:	78 94       	sei
	uart2_initialize(UART2_BAUD_SELECT(115200UL, 16000000UL));  // For printf
     504:	88 e0       	ldi	r24, 0x08	; 8
     506:	90 e0       	ldi	r25, 0x00	; 0
     508:	0e 94 60 11 	call	0x22c0	; 0x22c0 <_Z16uart2_initializej>
	memory.initialize();
     50c:	0e 94 a1 0d 	call	0x1b42	; 0x1b42 <_ZN6Memory10initializeEv>
	
	outputs.initialize(&memory);
     510:	be 01       	movw	r22, r28
     512:	ce 01       	movw	r24, r28
     514:	85 52       	subi	r24, 0x25	; 37
     516:	9f 4f       	sbci	r25, 0xFF	; 255
     518:	48 d4       	rcall	.+2192   	; 0xdaa <_ZN13OutputHandler10initializeEP6Memory>
	communications.initialize(UART_1, &memory);
     51a:	ae 01       	movw	r20, r28
     51c:	61 e0       	ldi	r22, 0x01	; 1
     51e:	70 e0       	ldi	r23, 0x00	; 0
     520:	ce 01       	movw	r24, r28
     522:	01 96       	adiw	r24, 0x01	; 1
     524:	3c de       	rcall	.-904    	; 0x19e <_ZN14Communications10initializeEjP6Memory>
}
     526:	df 91       	pop	r29
     528:	cf 91       	pop	r28
     52a:	08 95       	ret

0000052c <_ZN16ControlBoxEngine4loopEv>:
void ControlBoxEngine::loop ()
{
     52c:	ec 01       	movw	r28, r24
	outputs.startup();
     52e:	8c 01       	movw	r16, r24
     530:	05 52       	subi	r16, 0x25	; 37
     532:	1f 4f       	sbci	r17, 0xFF	; 255
     534:	c8 01       	movw	r24, r16
     536:	9d d3       	rcall	.+1850   	; 0xc72 <_ZN13OutputHandler7startupEv>

	while (1)
	{
		outputs.refresh();
		communications.receive();
     538:	21 96       	adiw	r28, 0x01	; 1
{
	outputs.startup();

	while (1)
	{
		outputs.refresh();
     53a:	c8 01       	movw	r24, r16
     53c:	bb d2       	rcall	.+1398   	; 0xab4 <_ZN13OutputHandler7refreshEv>
		communications.receive();
     53e:	ce 01       	movw	r24, r28
     540:	ae de       	rcall	.-676    	; 0x29e <_ZN14Communications7receiveEv>
     542:	fb cf       	rjmp	.-10     	; 0x53a <_ZN16ControlBoxEngine4loopEv+0xe>

00000544 <_ZL12DDR_REGISTER4Port>:
     544:	90 e0       	ldi	r25, 0x00	; 0

static volatile uint8_t error = 0;

static volatile uint8_t & DDR_REGISTER (Port port)
{
  switch (port)
     546:	8b 30       	cpi	r24, 0x0B	; 11
     548:	91 05       	cpc	r25, r1
     54a:	18 f5       	brcc	.+70     	; 0x592 <_ZL12DDR_REGISTER4Port+0x4e>
     54c:	fc 01       	movw	r30, r24
     54e:	ee 58       	subi	r30, 0x8E	; 142
     550:	ff 4f       	sbci	r31, 0xFF	; 255
     552:	0c 94 52 14 	jmp	0x28a4	; 0x28a4 <__tablejump2__>
  {
    case A: return DDRA;
    case B: return DDRB;
     556:	84 e2       	ldi	r24, 0x24	; 36
     558:	90 e0       	ldi	r25, 0x00	; 0
     55a:	08 95       	ret
    case C: return DDRC;
     55c:	87 e2       	ldi	r24, 0x27	; 39
     55e:	90 e0       	ldi	r25, 0x00	; 0
     560:	08 95       	ret
    case D: return DDRD;
     562:	8a e2       	ldi	r24, 0x2A	; 42
     564:	90 e0       	ldi	r25, 0x00	; 0
     566:	08 95       	ret
    case E: return DDRE;
     568:	8d e2       	ldi	r24, 0x2D	; 45
     56a:	90 e0       	ldi	r25, 0x00	; 0
     56c:	08 95       	ret
    case F: return DDRF;
     56e:	80 e3       	ldi	r24, 0x30	; 48
     570:	90 e0       	ldi	r25, 0x00	; 0
     572:	08 95       	ret
    case G: return DDRG;
     574:	83 e3       	ldi	r24, 0x33	; 51
     576:	90 e0       	ldi	r25, 0x00	; 0
     578:	08 95       	ret
    case H: return DDRH;
     57a:	81 e0       	ldi	r24, 0x01	; 1
     57c:	91 e0       	ldi	r25, 0x01	; 1
     57e:	08 95       	ret
    case J: return DDRJ;
     580:	84 e0       	ldi	r24, 0x04	; 4
     582:	91 e0       	ldi	r25, 0x01	; 1
     584:	08 95       	ret
    case K: return DDRK;
     586:	87 e0       	ldi	r24, 0x07	; 7
     588:	91 e0       	ldi	r25, 0x01	; 1
     58a:	08 95       	ret
    case L: return DDRL;
     58c:	8a e0       	ldi	r24, 0x0A	; 10
     58e:	91 e0       	ldi	r25, 0x01	; 1
     590:	08 95       	ret
  }
  return error;
     592:	88 e0       	ldi	r24, 0x08	; 8
     594:	93 e0       	ldi	r25, 0x03	; 3
     596:	08 95       	ret

static volatile uint8_t & DDR_REGISTER (Port port)
{
  switch (port)
  {
    case A: return DDRA;
     598:	81 e2       	ldi	r24, 0x21	; 33
     59a:	90 e0       	ldi	r25, 0x00	; 0
    case J: return DDRJ;
    case K: return DDRK;
    case L: return DDRL;
  }
  return error;
}
     59c:	08 95       	ret

0000059e <_ZL13PORT_REGISTER4Port>:

static volatile uint8_t & PORT_REGISTER (Port port)
{
  switch (port)
     59e:	90 e0       	ldi	r25, 0x00	; 0
     5a0:	8b 30       	cpi	r24, 0x0B	; 11
     5a2:	91 05       	cpc	r25, r1
     5a4:	18 f5       	brcc	.+70     	; 0x5ec <_ZL13PORT_REGISTER4Port+0x4e>
     5a6:	fc 01       	movw	r30, r24
     5a8:	e3 58       	subi	r30, 0x83	; 131
     5aa:	ff 4f       	sbci	r31, 0xFF	; 255
     5ac:	0c 94 52 14 	jmp	0x28a4	; 0x28a4 <__tablejump2__>
  {
    case A: return PORTA;
    case B: return PORTB;
     5b0:	85 e2       	ldi	r24, 0x25	; 37
     5b2:	90 e0       	ldi	r25, 0x00	; 0
     5b4:	08 95       	ret
    case C: return PORTC;
     5b6:	88 e2       	ldi	r24, 0x28	; 40
     5b8:	90 e0       	ldi	r25, 0x00	; 0
     5ba:	08 95       	ret
    case D: return PORTD;
     5bc:	8b e2       	ldi	r24, 0x2B	; 43
     5be:	90 e0       	ldi	r25, 0x00	; 0
     5c0:	08 95       	ret
    case E: return PORTE;
     5c2:	8e e2       	ldi	r24, 0x2E	; 46
     5c4:	90 e0       	ldi	r25, 0x00	; 0
     5c6:	08 95       	ret
    case F: return PORTF;
     5c8:	81 e3       	ldi	r24, 0x31	; 49
     5ca:	90 e0       	ldi	r25, 0x00	; 0
     5cc:	08 95       	ret
    case G: return PORTG;
     5ce:	84 e3       	ldi	r24, 0x34	; 52
     5d0:	90 e0       	ldi	r25, 0x00	; 0
     5d2:	08 95       	ret
    case H: return PORTH;
     5d4:	82 e0       	ldi	r24, 0x02	; 2
     5d6:	91 e0       	ldi	r25, 0x01	; 1
     5d8:	08 95       	ret
    case J: return PORTJ;
     5da:	85 e0       	ldi	r24, 0x05	; 5
     5dc:	91 e0       	ldi	r25, 0x01	; 1
     5de:	08 95       	ret
    case K: return PORTK;
     5e0:	88 e0       	ldi	r24, 0x08	; 8
     5e2:	91 e0       	ldi	r25, 0x01	; 1
     5e4:	08 95       	ret
    case L: return PORTL;
     5e6:	8b e0       	ldi	r24, 0x0B	; 11
     5e8:	91 e0       	ldi	r25, 0x01	; 1
     5ea:	08 95       	ret
  }
  return error; 
     5ec:	88 e0       	ldi	r24, 0x08	; 8
     5ee:	93 e0       	ldi	r25, 0x03	; 3
     5f0:	08 95       	ret

static volatile uint8_t & PORT_REGISTER (Port port)
{
  switch (port)
  {
    case A: return PORTA;
     5f2:	82 e2       	ldi	r24, 0x22	; 34
     5f4:	90 e0       	ldi	r25, 0x00	; 0
    case J: return PORTJ;
    case K: return PORTK;
    case L: return PORTL;
  }
  return error; 
}
     5f6:	08 95       	ret

000005f8 <_ZN10DigitalPin10initializeE4Port3Pin4Mode>:
static bool read_from_pin (Port, Pin);

/*---------------------- Public Interface of DigitalPin ----------------------*/

void DigitalPin::initialize (Port port, Pin pin, Mode mode)
{
     5f8:	0f 93       	push	r16
     5fa:	1f 93       	push	r17
     5fc:	cf 93       	push	r28
     5fe:	df 93       	push	r29
     600:	fc 01       	movw	r30, r24
     602:	c6 2f       	mov	r28, r22
     604:	d4 2f       	mov	r29, r20
  this->port = port;
     606:	60 83       	st	Z, r22
  this->pin = pin;
     608:	41 83       	std	Z+1, r20	; 0x01
  this->mode = mode;
     60a:	22 83       	std	Z+2, r18	; 0x02
  DDR_REGISTER(port) |= (1 << pin);
}

void set_pin_mode (Port port, Pin pin, Mode mode)
{
  if (mode == INPUT)
     60c:	21 11       	cpse	r18, r1
     60e:	16 c0       	rjmp	.+44     	; 0x63c <_ZN10DigitalPin10initializeE4Port3Pin4Mode+0x44>
  return error;  
}

void configure_as_input (Port port, Pin pin)
{
  DDR_REGISTER(port) &= ~(1 << pin);
     610:	86 2f       	mov	r24, r22
     612:	98 df       	rcall	.-208    	; 0x544 <_ZL12DDR_REGISTER4Port>
     614:	fc 01       	movw	r30, r24
     616:	90 81       	ld	r25, Z
     618:	21 e0       	ldi	r18, 0x01	; 1
     61a:	30 e0       	ldi	r19, 0x00	; 0
     61c:	02 c0       	rjmp	.+4      	; 0x622 <_ZN10DigitalPin10initializeE4Port3Pin4Mode+0x2a>
     61e:	22 0f       	add	r18, r18
     620:	33 1f       	adc	r19, r19
     622:	da 95       	dec	r29
     624:	e2 f7       	brpl	.-8      	; 0x61e <_ZN10DigitalPin10initializeE4Port3Pin4Mode+0x26>
     626:	d2 2f       	mov	r29, r18
     628:	d0 95       	com	r29
     62a:	9d 23       	and	r25, r29
     62c:	90 83       	st	Z, r25
  PORT_REGISTER(port) &= ~(1 << pin);
     62e:	8c 2f       	mov	r24, r28
     630:	b6 df       	rcall	.-148    	; 0x59e <_ZL13PORT_REGISTER4Port>
     632:	fc 01       	movw	r30, r24
     634:	20 81       	ld	r18, Z
     636:	2d 23       	and	r18, r29
     638:	20 83       	st	Z, r18
     63a:	25 c0       	rjmp	.+74     	; 0x686 <_ZN10DigitalPin10initializeE4Port3Pin4Mode+0x8e>

void set_pin_mode (Port port, Pin pin, Mode mode)
{
  if (mode == INPUT)
    configure_as_input(port, pin);
  else if (mode == INPUT_PULLUP)
     63c:	22 30       	cpi	r18, 0x02	; 2
  PORT_REGISTER(port) &= ~(1 << pin);
}

void configure_as_input_pullup (Port port, Pin pin)
{
  DDR_REGISTER(port) &= ~(1 << pin);
     63e:	b1 f4       	brne	.+44     	; 0x66c <_ZN10DigitalPin10initializeE4Port3Pin4Mode+0x74>
     640:	86 2f       	mov	r24, r22
     642:	80 df       	rcall	.-256    	; 0x544 <_ZL12DDR_REGISTER4Port>
     644:	fc 01       	movw	r30, r24
     646:	90 81       	ld	r25, Z
     648:	01 e0       	ldi	r16, 0x01	; 1
     64a:	10 e0       	ldi	r17, 0x00	; 0
     64c:	02 c0       	rjmp	.+4      	; 0x652 <_ZN10DigitalPin10initializeE4Port3Pin4Mode+0x5a>
     64e:	00 0f       	add	r16, r16
     650:	11 1f       	adc	r17, r17
     652:	da 95       	dec	r29
     654:	e2 f7       	brpl	.-8      	; 0x64e <_ZN10DigitalPin10initializeE4Port3Pin4Mode+0x56>
     656:	80 2f       	mov	r24, r16
     658:	80 95       	com	r24
     65a:	98 23       	and	r25, r24
  PORT_REGISTER(port) |= (1 << pin);
     65c:	90 83       	st	Z, r25
     65e:	8c 2f       	mov	r24, r28
     660:	9e df       	rcall	.-196    	; 0x59e <_ZL13PORT_REGISTER4Port>
     662:	fc 01       	movw	r30, r24
     664:	20 81       	ld	r18, Z
     666:	02 2b       	or	r16, r18
     668:	00 83       	st	Z, r16
}

void configure_as_output (Port port, Pin pin)
{
  DDR_REGISTER(port) |= (1 << pin);
     66a:	0d c0       	rjmp	.+26     	; 0x686 <_ZN10DigitalPin10initializeE4Port3Pin4Mode+0x8e>
     66c:	86 2f       	mov	r24, r22
     66e:	6a df       	rcall	.-300    	; 0x544 <_ZL12DDR_REGISTER4Port>
     670:	fc 01       	movw	r30, r24
     672:	40 81       	ld	r20, Z
     674:	21 e0       	ldi	r18, 0x01	; 1
     676:	30 e0       	ldi	r19, 0x00	; 0
     678:	02 c0       	rjmp	.+4      	; 0x67e <_ZN10DigitalPin10initializeE4Port3Pin4Mode+0x86>
     67a:	22 0f       	add	r18, r18
     67c:	33 1f       	adc	r19, r19
     67e:	da 95       	dec	r29
     680:	e2 f7       	brpl	.-8      	; 0x67a <_ZN10DigitalPin10initializeE4Port3Pin4Mode+0x82>
     682:	24 2b       	or	r18, r20
     684:	20 83       	st	Z, r18
{
  this->port = port;
  this->pin = pin;
  this->mode = mode;
  set_pin_mode(port, pin, mode);
}
     686:	df 91       	pop	r29
     688:	cf 91       	pop	r28
     68a:	1f 91       	pop	r17
     68c:	0f 91       	pop	r16
     68e:	08 95       	ret

00000690 <_ZN10DigitalPin5writeEb>:

void DigitalPin::write (bool value)
{
     690:	cf 93       	push	r28
  write_to_pin(port, pin, value);
     692:	fc 01       	movw	r30, r24
     694:	c1 81       	ldd	r28, Z+1	; 0x01
     696:	80 81       	ld	r24, Z
    return INPUT;
}

void write_to_pin (Port port, Pin pin, bool value)
{
  if (value)
     698:	66 23       	and	r22, r22
     69a:	69 f0       	breq	.+26     	; 0x6b6 <_ZN10DigitalPin5writeEb+0x26>
    PORT_REGISTER(port) |= (1 << pin);
     69c:	80 df       	rcall	.-256    	; 0x59e <_ZL13PORT_REGISTER4Port>
     69e:	fc 01       	movw	r30, r24
     6a0:	40 81       	ld	r20, Z
     6a2:	21 e0       	ldi	r18, 0x01	; 1
     6a4:	30 e0       	ldi	r19, 0x00	; 0
     6a6:	02 c0       	rjmp	.+4      	; 0x6ac <_ZN10DigitalPin5writeEb+0x1c>
     6a8:	22 0f       	add	r18, r18
     6aa:	33 1f       	adc	r19, r19
     6ac:	ca 95       	dec	r28
     6ae:	e2 f7       	brpl	.-8      	; 0x6a8 <_ZN10DigitalPin5writeEb+0x18>
     6b0:	24 2b       	or	r18, r20
     6b2:	20 83       	st	Z, r18
     6b4:	0d c0       	rjmp	.+26     	; 0x6d0 <_ZN10DigitalPin5writeEb+0x40>
  else
    PORT_REGISTER(port) &= ~(1 << pin);
     6b6:	73 df       	rcall	.-282    	; 0x59e <_ZL13PORT_REGISTER4Port>
     6b8:	fc 01       	movw	r30, r24
     6ba:	90 81       	ld	r25, Z
     6bc:	21 e0       	ldi	r18, 0x01	; 1
     6be:	30 e0       	ldi	r19, 0x00	; 0
     6c0:	02 c0       	rjmp	.+4      	; 0x6c6 <_ZN10DigitalPin5writeEb+0x36>
     6c2:	22 0f       	add	r18, r18
     6c4:	33 1f       	adc	r19, r19
     6c6:	ca 95       	dec	r28
     6c8:	e2 f7       	brpl	.-8      	; 0x6c2 <_ZN10DigitalPin5writeEb+0x32>
     6ca:	20 95       	com	r18
     6cc:	29 23       	and	r18, r25
     6ce:	20 83       	st	Z, r18
     6d0:	cf 91       	pop	r28
}

void DigitalPin::write (bool value)
{
  write_to_pin(port, pin, value);
}
     6d2:	08 95       	ret

000006d4 <_ZN8Expander11set_addressEh>:
     6d4:	fc 01       	movw	r30, r24
     6d6:	61 93       	st	Z+, r22
     6d8:	cf 01       	movw	r24, r30
     6da:	b2 c3       	rjmp	.+1892   	; 0xe40 <_ZN3I2C11set_addressEh>
     6dc:	08 95       	ret

000006de <_ZN8Expander14write_registerEhh>:
     6de:	ef 92       	push	r14
     6e0:	ff 92       	push	r15
     6e2:	0f 93       	push	r16
     6e4:	1f 93       	push	r17
     6e6:	cf 93       	push	r28
     6e8:	df 93       	push	r29
     6ea:	00 d0       	rcall	.+0      	; 0x6ec <_ZN8Expander14write_registerEhh+0xe>
     6ec:	cd b7       	in	r28, 0x3d	; 61
     6ee:	de b7       	in	r29, 0x3e	; 62
     6f0:	e6 2e       	mov	r14, r22
     6f2:	f4 2e       	mov	r15, r20
     6f4:	8c 01       	movw	r16, r24
     6f6:	0f 5f       	subi	r16, 0xFF	; 255
     6f8:	1f 4f       	sbci	r17, 0xFF	; 255
     6fa:	fc 01       	movw	r30, r24
     6fc:	60 81       	ld	r22, Z
     6fe:	c8 01       	movw	r24, r16
     700:	9f d3       	rcall	.+1854   	; 0xe40 <_ZN3I2C11set_addressEh>
     702:	e9 82       	std	Y+1, r14	; 0x01
     704:	fa 82       	std	Y+2, r15	; 0x02
     706:	42 e0       	ldi	r20, 0x02	; 2
     708:	be 01       	movw	r22, r28
     70a:	6f 5f       	subi	r22, 0xFF	; 255
     70c:	7f 4f       	sbci	r23, 0xFF	; 255
     70e:	c8 01       	movw	r24, r16
     710:	1b d4       	rcall	.+2102   	; 0xf48 <_ZN3I2C5writeEPhh>
     712:	0f 90       	pop	r0
     714:	0f 90       	pop	r0
     716:	df 91       	pop	r29
     718:	cf 91       	pop	r28
     71a:	1f 91       	pop	r17
     71c:	0f 91       	pop	r16
     71e:	ff 90       	pop	r15
     720:	ef 90       	pop	r14
     722:	08 95       	ret

00000724 <_ZN8Expander13read_registerEh>:
     724:	0f 93       	push	r16
     726:	1f 93       	push	r17
     728:	cf 93       	push	r28
     72a:	df 93       	push	r29
     72c:	00 d0       	rcall	.+0      	; 0x72e <_ZN8Expander13read_registerEh+0xa>
     72e:	cd b7       	in	r28, 0x3d	; 61
     730:	de b7       	in	r29, 0x3e	; 62
     732:	6a 83       	std	Y+2, r22	; 0x02
     734:	8c 01       	movw	r16, r24
     736:	0f 5f       	subi	r16, 0xFF	; 255
     738:	1f 4f       	sbci	r17, 0xFF	; 255
     73a:	fc 01       	movw	r30, r24
     73c:	60 81       	ld	r22, Z
     73e:	c8 01       	movw	r24, r16
     740:	7f d3       	rcall	.+1790   	; 0xe40 <_ZN3I2C11set_addressEh>
     742:	41 e0       	ldi	r20, 0x01	; 1
     744:	be 01       	movw	r22, r28
     746:	6e 5f       	subi	r22, 0xFE	; 254
     748:	7f 4f       	sbci	r23, 0xFF	; 255
     74a:	c8 01       	movw	r24, r16
     74c:	fd d3       	rcall	.+2042   	; 0xf48 <_ZN3I2C5writeEPhh>
     74e:	41 e0       	ldi	r20, 0x01	; 1
     750:	be 01       	movw	r22, r28
     752:	6f 5f       	subi	r22, 0xFF	; 255
     754:	7f 4f       	sbci	r23, 0xFF	; 255
     756:	c8 01       	movw	r24, r16
     758:	97 d4       	rcall	.+2350   	; 0x1088 <_ZN3I2C4readEPhh>
     75a:	89 81       	ldd	r24, Y+1	; 0x01
     75c:	0f 90       	pop	r0
     75e:	0f 90       	pop	r0
     760:	df 91       	pop	r29
     762:	cf 91       	pop	r28
     764:	1f 91       	pop	r17
     766:	0f 91       	pop	r16
     768:	08 95       	ret

0000076a <_ZN11ExpanderPin5writeEb>:
     76a:	1f 93       	push	r17
     76c:	cf 93       	push	r28
     76e:	df 93       	push	r29
     770:	ec 01       	movw	r28, r24
     772:	88 81       	ld	r24, Y
     774:	88 23       	and	r24, r24
     776:	11 f0       	breq	.+4      	; 0x77c <_ZN11ExpanderPin5writeEb+0x12>
     778:	13 e1       	ldi	r17, 0x13	; 19
     77a:	01 c0       	rjmp	.+2      	; 0x77e <_ZN11ExpanderPin5writeEb+0x14>
     77c:	12 e1       	ldi	r17, 0x12	; 18
     77e:	66 23       	and	r22, r22
     780:	91 f0       	breq	.+36     	; 0x7a6 <_ZN11ExpanderPin5writeEb+0x3c>
     782:	61 2f       	mov	r22, r17
     784:	8b 81       	ldd	r24, Y+3	; 0x03
     786:	9c 81       	ldd	r25, Y+4	; 0x04
     788:	cd df       	rcall	.-102    	; 0x724 <_ZN8Expander13read_registerEh>
     78a:	41 e0       	ldi	r20, 0x01	; 1
     78c:	50 e0       	ldi	r21, 0x00	; 0
     78e:	09 80       	ldd	r0, Y+1	; 0x01
     790:	02 c0       	rjmp	.+4      	; 0x796 <_ZN11ExpanderPin5writeEb+0x2c>
     792:	44 0f       	add	r20, r20
     794:	55 1f       	adc	r21, r21
     796:	0a 94       	dec	r0
     798:	e2 f7       	brpl	.-8      	; 0x792 <_ZN11ExpanderPin5writeEb+0x28>
     79a:	48 2b       	or	r20, r24
     79c:	61 2f       	mov	r22, r17
     79e:	8b 81       	ldd	r24, Y+3	; 0x03
     7a0:	9c 81       	ldd	r25, Y+4	; 0x04
     7a2:	9d df       	rcall	.-198    	; 0x6de <_ZN8Expander14write_registerEhh>
     7a4:	12 c0       	rjmp	.+36     	; 0x7ca <_ZN11ExpanderPin5writeEb+0x60>
     7a6:	61 2f       	mov	r22, r17
     7a8:	8b 81       	ldd	r24, Y+3	; 0x03
     7aa:	9c 81       	ldd	r25, Y+4	; 0x04
     7ac:	bb df       	rcall	.-138    	; 0x724 <_ZN8Expander13read_registerEh>
     7ae:	41 e0       	ldi	r20, 0x01	; 1
     7b0:	50 e0       	ldi	r21, 0x00	; 0
     7b2:	09 80       	ldd	r0, Y+1	; 0x01
     7b4:	02 c0       	rjmp	.+4      	; 0x7ba <_ZN11ExpanderPin5writeEb+0x50>
     7b6:	44 0f       	add	r20, r20
     7b8:	55 1f       	adc	r21, r21
     7ba:	0a 94       	dec	r0
     7bc:	e2 f7       	brpl	.-8      	; 0x7b6 <_ZN11ExpanderPin5writeEb+0x4c>
     7be:	40 95       	com	r20
     7c0:	48 23       	and	r20, r24
     7c2:	61 2f       	mov	r22, r17
     7c4:	8b 81       	ldd	r24, Y+3	; 0x03
     7c6:	9c 81       	ldd	r25, Y+4	; 0x04
     7c8:	8a df       	rcall	.-236    	; 0x6de <_ZN8Expander14write_registerEhh>
     7ca:	df 91       	pop	r29
     7cc:	cf 91       	pop	r28
     7ce:	1f 91       	pop	r17
     7d0:	08 95       	ret

000007d2 <_ZN11ExpanderPin8set_modeE4Mode>:
     7d2:	1f 93       	push	r17
     7d4:	cf 93       	push	r28
     7d6:	df 93       	push	r29
     7d8:	ec 01       	movw	r28, r24
     7da:	6a 83       	std	Y+2, r22	; 0x02
     7dc:	11 e0       	ldi	r17, 0x01	; 1
     7de:	88 81       	ld	r24, Y
     7e0:	81 11       	cpse	r24, r1
     7e2:	01 c0       	rjmp	.+2      	; 0x7e6 <_ZN11ExpanderPin8set_modeE4Mode+0x14>
     7e4:	10 e0       	ldi	r17, 0x00	; 0
     7e6:	61 11       	cpse	r22, r1
     7e8:	12 c0       	rjmp	.+36     	; 0x80e <_ZN11ExpanderPin8set_modeE4Mode+0x3c>
     7ea:	61 2f       	mov	r22, r17
     7ec:	8b 81       	ldd	r24, Y+3	; 0x03
     7ee:	9c 81       	ldd	r25, Y+4	; 0x04
     7f0:	99 df       	rcall	.-206    	; 0x724 <_ZN8Expander13read_registerEh>
     7f2:	41 e0       	ldi	r20, 0x01	; 1
     7f4:	50 e0       	ldi	r21, 0x00	; 0
     7f6:	09 80       	ldd	r0, Y+1	; 0x01
     7f8:	02 c0       	rjmp	.+4      	; 0x7fe <_ZN11ExpanderPin8set_modeE4Mode+0x2c>
     7fa:	44 0f       	add	r20, r20
     7fc:	55 1f       	adc	r21, r21
     7fe:	0a 94       	dec	r0
     800:	e2 f7       	brpl	.-8      	; 0x7fa <_ZN11ExpanderPin8set_modeE4Mode+0x28>
     802:	48 2b       	or	r20, r24
     804:	61 2f       	mov	r22, r17
     806:	8b 81       	ldd	r24, Y+3	; 0x03
     808:	9c 81       	ldd	r25, Y+4	; 0x04
     80a:	69 df       	rcall	.-302    	; 0x6de <_ZN8Expander14write_registerEhh>
     80c:	12 c0       	rjmp	.+36     	; 0x832 <_ZN11ExpanderPin8set_modeE4Mode+0x60>
     80e:	61 2f       	mov	r22, r17
     810:	8b 81       	ldd	r24, Y+3	; 0x03
     812:	9c 81       	ldd	r25, Y+4	; 0x04
     814:	87 df       	rcall	.-242    	; 0x724 <_ZN8Expander13read_registerEh>
     816:	41 e0       	ldi	r20, 0x01	; 1
     818:	50 e0       	ldi	r21, 0x00	; 0
     81a:	09 80       	ldd	r0, Y+1	; 0x01
     81c:	02 c0       	rjmp	.+4      	; 0x822 <_ZN11ExpanderPin8set_modeE4Mode+0x50>
     81e:	44 0f       	add	r20, r20
     820:	55 1f       	adc	r21, r21
     822:	0a 94       	dec	r0
     824:	e2 f7       	brpl	.-8      	; 0x81e <_ZN11ExpanderPin8set_modeE4Mode+0x4c>
     826:	40 95       	com	r20
     828:	48 23       	and	r20, r24
     82a:	61 2f       	mov	r22, r17
     82c:	8b 81       	ldd	r24, Y+3	; 0x03
     82e:	9c 81       	ldd	r25, Y+4	; 0x04
     830:	56 df       	rcall	.-340    	; 0x6de <_ZN8Expander14write_registerEhh>
     832:	df 91       	pop	r29
     834:	cf 91       	pop	r28
     836:	1f 91       	pop	r17
     838:	08 95       	ret

0000083a <_ZN11ExpanderPin10initializeEP8Expander4Port3Pin4Mode>:
     83a:	0f 93       	push	r16
     83c:	fc 01       	movw	r30, r24
     83e:	74 83       	std	Z+4, r23	; 0x04
     840:	63 83       	std	Z+3, r22	; 0x03
     842:	40 83       	st	Z, r20
     844:	21 83       	std	Z+1, r18	; 0x01
     846:	60 2f       	mov	r22, r16
     848:	c4 df       	rcall	.-120    	; 0x7d2 <_ZN11ExpanderPin8set_modeE4Mode>
     84a:	0f 91       	pop	r16
     84c:	08 95       	ret

0000084e <_ZN13OutputHandler20initialize_expandersEv>:
		push_button_leds[inner[j]].write(0);
	_delay_ms(pause);
	for (int j = 0; j < 12; ++j)
		push_button_leds[outer[j]].write(0);
	_delay_ms(pause);
     84e:	cf 93       	push	r28
     850:	df 93       	push	r29
     852:	ec 01       	movw	r28, r24
     854:	60 e2       	ldi	r22, 0x20	; 32
     856:	88 5f       	subi	r24, 0xF8	; 248
     858:	9e 4f       	sbci	r25, 0xFE	; 254
     85a:	3c df       	rcall	.-392    	; 0x6d4 <_ZN8Expander11set_addressEh>
     85c:	67 e2       	ldi	r22, 0x27	; 39
     85e:	ce 01       	movw	r24, r28
     860:	88 5e       	subi	r24, 0xE8	; 232
     862:	9e 4f       	sbci	r25, 0xFE	; 254
     864:	37 df       	rcall	.-402    	; 0x6d4 <_ZN8Expander11set_addressEh>
     866:	df 91       	pop	r29
     868:	cf 91       	pop	r28
     86a:	08 95       	ret

0000086c <_ZN13OutputHandler27initialize_push_button_ledsEv>:
     86c:	ef 92       	push	r14
     86e:	ff 92       	push	r15
     870:	0f 93       	push	r16
     872:	cf 93       	push	r28
     874:	df 93       	push	r29
     876:	ec 01       	movw	r28, r24
     878:	7c 01       	movw	r14, r24
     87a:	88 ef       	ldi	r24, 0xF8	; 248
     87c:	e8 1a       	sub	r14, r24
     87e:	8e ef       	ldi	r24, 0xFE	; 254
     880:	f8 0a       	sbc	r15, r24
     882:	01 e0       	ldi	r16, 0x01	; 1
     884:	21 e0       	ldi	r18, 0x01	; 1
     886:	40 e0       	ldi	r20, 0x00	; 0
     888:	b7 01       	movw	r22, r14
     88a:	ce 01       	movw	r24, r28
     88c:	88 5d       	subi	r24, 0xD8	; 216
     88e:	9e 4f       	sbci	r25, 0xFE	; 254
     890:	d4 df       	rcall	.-88     	; 0x83a <_ZN11ExpanderPin10initializeEP8Expander4Port3Pin4Mode>
     892:	23 e0       	ldi	r18, 0x03	; 3
     894:	40 e0       	ldi	r20, 0x00	; 0
     896:	b7 01       	movw	r22, r14
     898:	ce 01       	movw	r24, r28
     89a:	83 5d       	subi	r24, 0xD3	; 211
     89c:	9e 4f       	sbci	r25, 0xFE	; 254
     89e:	cd df       	rcall	.-102    	; 0x83a <_ZN11ExpanderPin10initializeEP8Expander4Port3Pin4Mode>
     8a0:	25 e0       	ldi	r18, 0x05	; 5
     8a2:	40 e0       	ldi	r20, 0x00	; 0
     8a4:	b7 01       	movw	r22, r14
     8a6:	ce 01       	movw	r24, r28
     8a8:	8e 5c       	subi	r24, 0xCE	; 206
     8aa:	9e 4f       	sbci	r25, 0xFE	; 254
     8ac:	c6 df       	rcall	.-116    	; 0x83a <_ZN11ExpanderPin10initializeEP8Expander4Port3Pin4Mode>
     8ae:	27 e0       	ldi	r18, 0x07	; 7
     8b0:	40 e0       	ldi	r20, 0x00	; 0
     8b2:	b7 01       	movw	r22, r14
     8b4:	ce 01       	movw	r24, r28
     8b6:	89 5c       	subi	r24, 0xC9	; 201
     8b8:	9e 4f       	sbci	r25, 0xFE	; 254
     8ba:	bf df       	rcall	.-130    	; 0x83a <_ZN11ExpanderPin10initializeEP8Expander4Port3Pin4Mode>
     8bc:	21 e0       	ldi	r18, 0x01	; 1
     8be:	41 e0       	ldi	r20, 0x01	; 1
     8c0:	b7 01       	movw	r22, r14
     8c2:	ce 01       	movw	r24, r28
     8c4:	84 5c       	subi	r24, 0xC4	; 196
     8c6:	9e 4f       	sbci	r25, 0xFE	; 254
     8c8:	b8 df       	rcall	.-144    	; 0x83a <_ZN11ExpanderPin10initializeEP8Expander4Port3Pin4Mode>
     8ca:	23 e0       	ldi	r18, 0x03	; 3
     8cc:	41 e0       	ldi	r20, 0x01	; 1
     8ce:	b7 01       	movw	r22, r14
     8d0:	ce 01       	movw	r24, r28
     8d2:	8f 5b       	subi	r24, 0xBF	; 191
     8d4:	9e 4f       	sbci	r25, 0xFE	; 254
     8d6:	b1 df       	rcall	.-158    	; 0x83a <_ZN11ExpanderPin10initializeEP8Expander4Port3Pin4Mode>
     8d8:	25 e0       	ldi	r18, 0x05	; 5
     8da:	41 e0       	ldi	r20, 0x01	; 1
     8dc:	b7 01       	movw	r22, r14
     8de:	ce 01       	movw	r24, r28
     8e0:	8a 5b       	subi	r24, 0xBA	; 186
     8e2:	9e 4f       	sbci	r25, 0xFE	; 254
     8e4:	aa df       	rcall	.-172    	; 0x83a <_ZN11ExpanderPin10initializeEP8Expander4Port3Pin4Mode>
     8e6:	27 e0       	ldi	r18, 0x07	; 7
     8e8:	41 e0       	ldi	r20, 0x01	; 1
     8ea:	b7 01       	movw	r22, r14
     8ec:	ce 01       	movw	r24, r28
     8ee:	85 5b       	subi	r24, 0xB5	; 181
     8f0:	9e 4f       	sbci	r25, 0xFE	; 254
     8f2:	a3 df       	rcall	.-186    	; 0x83a <_ZN11ExpanderPin10initializeEP8Expander4Port3Pin4Mode>
     8f4:	7e 01       	movw	r14, r28
     8f6:	88 ee       	ldi	r24, 0xE8	; 232
     8f8:	e8 1a       	sub	r14, r24
     8fa:	8e ef       	ldi	r24, 0xFE	; 254
     8fc:	f8 0a       	sbc	r15, r24
     8fe:	21 e0       	ldi	r18, 0x01	; 1
     900:	40 e0       	ldi	r20, 0x00	; 0
     902:	b7 01       	movw	r22, r14
     904:	ce 01       	movw	r24, r28
     906:	80 5b       	subi	r24, 0xB0	; 176
     908:	9e 4f       	sbci	r25, 0xFE	; 254
     90a:	97 df       	rcall	.-210    	; 0x83a <_ZN11ExpanderPin10initializeEP8Expander4Port3Pin4Mode>
     90c:	23 e0       	ldi	r18, 0x03	; 3
     90e:	40 e0       	ldi	r20, 0x00	; 0
     910:	b7 01       	movw	r22, r14
     912:	ce 01       	movw	r24, r28
     914:	8b 5a       	subi	r24, 0xAB	; 171
     916:	9e 4f       	sbci	r25, 0xFE	; 254
     918:	90 df       	rcall	.-224    	; 0x83a <_ZN11ExpanderPin10initializeEP8Expander4Port3Pin4Mode>
     91a:	25 e0       	ldi	r18, 0x05	; 5
     91c:	40 e0       	ldi	r20, 0x00	; 0
     91e:	b7 01       	movw	r22, r14
     920:	ce 01       	movw	r24, r28
     922:	86 5a       	subi	r24, 0xA6	; 166
     924:	9e 4f       	sbci	r25, 0xFE	; 254
     926:	89 df       	rcall	.-238    	; 0x83a <_ZN11ExpanderPin10initializeEP8Expander4Port3Pin4Mode>
     928:	27 e0       	ldi	r18, 0x07	; 7
     92a:	40 e0       	ldi	r20, 0x00	; 0
     92c:	b7 01       	movw	r22, r14
     92e:	ce 01       	movw	r24, r28
     930:	81 5a       	subi	r24, 0xA1	; 161
     932:	9e 4f       	sbci	r25, 0xFE	; 254
     934:	82 df       	rcall	.-252    	; 0x83a <_ZN11ExpanderPin10initializeEP8Expander4Port3Pin4Mode>
     936:	21 e0       	ldi	r18, 0x01	; 1
     938:	41 e0       	ldi	r20, 0x01	; 1
     93a:	b7 01       	movw	r22, r14
     93c:	ce 01       	movw	r24, r28
     93e:	8c 59       	subi	r24, 0x9C	; 156
     940:	9e 4f       	sbci	r25, 0xFE	; 254
     942:	7b df       	rcall	.-266    	; 0x83a <_ZN11ExpanderPin10initializeEP8Expander4Port3Pin4Mode>
     944:	23 e0       	ldi	r18, 0x03	; 3
     946:	41 e0       	ldi	r20, 0x01	; 1
     948:	b7 01       	movw	r22, r14
     94a:	ce 01       	movw	r24, r28
     94c:	87 59       	subi	r24, 0x97	; 151
     94e:	9e 4f       	sbci	r25, 0xFE	; 254
     950:	74 df       	rcall	.-280    	; 0x83a <_ZN11ExpanderPin10initializeEP8Expander4Port3Pin4Mode>
     952:	25 e0       	ldi	r18, 0x05	; 5
     954:	41 e0       	ldi	r20, 0x01	; 1
     956:	b7 01       	movw	r22, r14
     958:	ce 01       	movw	r24, r28
     95a:	82 59       	subi	r24, 0x92	; 146
     95c:	9e 4f       	sbci	r25, 0xFE	; 254
     95e:	6d df       	rcall	.-294    	; 0x83a <_ZN11ExpanderPin10initializeEP8Expander4Port3Pin4Mode>
     960:	27 e0       	ldi	r18, 0x07	; 7
     962:	41 e0       	ldi	r20, 0x01	; 1
     964:	b7 01       	movw	r22, r14
     966:	ce 01       	movw	r24, r28
     968:	8d 58       	subi	r24, 0x8D	; 141
     96a:	9e 4f       	sbci	r25, 0xFE	; 254
     96c:	66 df       	rcall	.-308    	; 0x83a <_ZN11ExpanderPin10initializeEP8Expander4Port3Pin4Mode>
     96e:	df 91       	pop	r29
     970:	cf 91       	pop	r28
     972:	0f 91       	pop	r16
     974:	ff 90       	pop	r15
     976:	ef 90       	pop	r14
     978:	08 95       	ret

0000097a <_ZN13OutputHandler21initialize_panel_ledsEv>:
     97a:	0f 93       	push	r16
     97c:	1f 93       	push	r17
     97e:	cf 93       	push	r28
     980:	df 93       	push	r29
     982:	8c 01       	movw	r16, r24
     984:	ec 01       	movw	r28, r24
     986:	c8 58       	subi	r28, 0x88	; 136
     988:	de 4f       	sbci	r29, 0xFE	; 254
     98a:	21 e0       	ldi	r18, 0x01	; 1
     98c:	40 e0       	ldi	r20, 0x00	; 0
     98e:	62 e0       	ldi	r22, 0x02	; 2
     990:	ce 01       	movw	r24, r28
     992:	32 de       	rcall	.-924    	; 0x5f8 <_ZN10DigitalPin10initializeE4Port3Pin4Mode>
     994:	21 e0       	ldi	r18, 0x01	; 1
     996:	41 e0       	ldi	r20, 0x01	; 1
     998:	62 e0       	ldi	r22, 0x02	; 2
     99a:	c8 01       	movw	r24, r16
     99c:	85 58       	subi	r24, 0x85	; 133
     99e:	9e 4f       	sbci	r25, 0xFE	; 254
     9a0:	2b de       	rcall	.-938    	; 0x5f8 <_ZN10DigitalPin10initializeE4Port3Pin4Mode>
     9a2:	21 e0       	ldi	r18, 0x01	; 1
     9a4:	42 e0       	ldi	r20, 0x02	; 2
     9a6:	62 e0       	ldi	r22, 0x02	; 2
     9a8:	c8 01       	movw	r24, r16
     9aa:	82 58       	subi	r24, 0x82	; 130
     9ac:	9e 4f       	sbci	r25, 0xFE	; 254
     9ae:	24 de       	rcall	.-952    	; 0x5f8 <_ZN10DigitalPin10initializeE4Port3Pin4Mode>
     9b0:	21 e0       	ldi	r18, 0x01	; 1
     9b2:	43 e0       	ldi	r20, 0x03	; 3
     9b4:	62 e0       	ldi	r22, 0x02	; 2
     9b6:	c8 01       	movw	r24, r16
     9b8:	8f 57       	subi	r24, 0x7F	; 127
     9ba:	9e 4f       	sbci	r25, 0xFE	; 254
     9bc:	1d de       	rcall	.-966    	; 0x5f8 <_ZN10DigitalPin10initializeE4Port3Pin4Mode>
     9be:	00 57       	subi	r16, 0x70	; 112
     9c0:	1e 4f       	sbci	r17, 0xFE	; 254
     9c2:	60 e0       	ldi	r22, 0x00	; 0
     9c4:	ce 01       	movw	r24, r28
     9c6:	64 de       	rcall	.-824    	; 0x690 <_ZN10DigitalPin5writeEb>
     9c8:	23 96       	adiw	r28, 0x03	; 3
     9ca:	c0 17       	cp	r28, r16
     9cc:	d1 07       	cpc	r29, r17
     9ce:	c9 f7       	brne	.-14     	; 0x9c2 <_ZN13OutputHandler21initialize_panel_ledsEv+0x48>
     9d0:	df 91       	pop	r29
     9d2:	cf 91       	pop	r28
     9d4:	1f 91       	pop	r17
     9d6:	0f 91       	pop	r16
     9d8:	08 95       	ret

000009da <_ZN13OutputHandler24refresh_push_button_ledsEv>:
     9da:	0f 93       	push	r16
     9dc:	1f 93       	push	r17
     9de:	cf 93       	push	r28
     9e0:	8c 01       	movw	r16, r24
     9e2:	08 5d       	subi	r16, 0xD8	; 216
     9e4:	1e 4f       	sbci	r17, 0xFE	; 254
     9e6:	c0 e4       	ldi	r28, 0x40	; 64
     9e8:	8c 2f       	mov	r24, r28
     9ea:	0e 94 ca 0d 	call	0x1b94	; 0x1b94 <_ZN6Memory4readEh>
     9ee:	89 2b       	or	r24, r25
     9f0:	d1 f0       	breq	.+52     	; 0xa26 <_ZN13OutputHandler24refresh_push_button_ledsEv+0x4c>
     9f2:	81 e0       	ldi	r24, 0x01	; 1
     9f4:	0e 94 ca 0d 	call	0x1b94	; 0x1b94 <_ZN6Memory4readEh>
     9f8:	89 2b       	or	r24, r25
     9fa:	21 f0       	breq	.+8      	; 0xa04 <_ZN13OutputHandler24refresh_push_button_ledsEv+0x2a>
     9fc:	61 e0       	ldi	r22, 0x01	; 1
     9fe:	c8 01       	movw	r24, r16
     a00:	b4 de       	rcall	.-664    	; 0x76a <_ZN11ExpanderPin5writeEb>
     a02:	19 c0       	rjmp	.+50     	; 0xa36 <_ZN13OutputHandler24refresh_push_button_ledsEv+0x5c>
     a04:	8a e0       	ldi	r24, 0x0A	; 10
     a06:	93 e0       	ldi	r25, 0x03	; 3
     a08:	0e 94 bd 0e 	call	0x1d7a	; 0x1d7a <_ZN6Clocks6isDoneEv>
     a0c:	88 23       	and	r24, r24
     a0e:	99 f0       	breq	.+38     	; 0xa36 <_ZN13OutputHandler24refresh_push_button_ledsEv+0x5c>
     a10:	60 91 09 03 	lds	r22, 0x0309	; 0x800309 <blinkState>
     a14:	c8 01       	movw	r24, r16
     a16:	a9 de       	rcall	.-686    	; 0x76a <_ZN11ExpanderPin5writeEb>
     a18:	90 91 09 03 	lds	r25, 0x0309	; 0x800309 <blinkState>
     a1c:	81 e0       	ldi	r24, 0x01	; 1
     a1e:	89 27       	eor	r24, r25
     a20:	80 93 09 03 	sts	0x0309, r24	; 0x800309 <blinkState>
     a24:	08 c0       	rjmp	.+16     	; 0xa36 <_ZN13OutputHandler24refresh_push_button_ledsEv+0x5c>
     a26:	60 e0       	ldi	r22, 0x00	; 0
     a28:	70 e0       	ldi	r23, 0x00	; 0
     a2a:	8c 2f       	mov	r24, r28
     a2c:	0e 94 b0 0d 	call	0x1b60	; 0x1b60 <_ZN6Memory5writeEhj>
     a30:	60 e0       	ldi	r22, 0x00	; 0
     a32:	c8 01       	movw	r24, r16
     a34:	9a de       	rcall	.-716    	; 0x76a <_ZN11ExpanderPin5writeEb>
     a36:	cf 5f       	subi	r28, 0xFF	; 255
     a38:	0b 5f       	subi	r16, 0xFB	; 251
     a3a:	1f 4f       	sbci	r17, 0xFF	; 255
     a3c:	c0 35       	cpi	r28, 0x50	; 80
     a3e:	a1 f6       	brne	.-88     	; 0x9e8 <_ZN13OutputHandler24refresh_push_button_ledsEv+0xe>
     a40:	cf 91       	pop	r28
     a42:	1f 91       	pop	r17
     a44:	0f 91       	pop	r16
     a46:	08 95       	ret

00000a48 <_ZN13OutputHandler18refresh_panel_ledsEv>:
     a48:	cf 93       	push	r28
     a4a:	df 93       	push	r29
     a4c:	ec 01       	movw	r28, r24
     a4e:	84 e0       	ldi	r24, 0x04	; 4
     a50:	0e 94 ca 0d 	call	0x1b94	; 0x1b94 <_ZN6Memory4readEh>
     a54:	89 2b       	or	r24, r25
     a56:	31 f0       	breq	.+12     	; 0xa64 <_ZN13OutputHandler18refresh_panel_ledsEv+0x1c>
     a58:	61 e0       	ldi	r22, 0x01	; 1
     a5a:	ce 01       	movw	r24, r28
     a5c:	88 58       	subi	r24, 0x88	; 136
     a5e:	9e 4f       	sbci	r25, 0xFE	; 254
     a60:	17 de       	rcall	.-978    	; 0x690 <_ZN10DigitalPin5writeEb>
     a62:	05 c0       	rjmp	.+10     	; 0xa6e <_ZN13OutputHandler18refresh_panel_ledsEv+0x26>
     a64:	60 e0       	ldi	r22, 0x00	; 0
     a66:	ce 01       	movw	r24, r28
     a68:	88 58       	subi	r24, 0x88	; 136
     a6a:	9e 4f       	sbci	r25, 0xFE	; 254
     a6c:	11 de       	rcall	.-990    	; 0x690 <_ZN10DigitalPin5writeEb>
     a6e:	87 e0       	ldi	r24, 0x07	; 7
     a70:	0e 94 ca 0d 	call	0x1b94	; 0x1b94 <_ZN6Memory4readEh>
     a74:	89 2b       	or	r24, r25
     a76:	31 f0       	breq	.+12     	; 0xa84 <_ZN13OutputHandler18refresh_panel_ledsEv+0x3c>
     a78:	60 e0       	ldi	r22, 0x00	; 0
     a7a:	ce 01       	movw	r24, r28
     a7c:	8f 57       	subi	r24, 0x7F	; 127
     a7e:	9e 4f       	sbci	r25, 0xFE	; 254
     a80:	07 de       	rcall	.-1010   	; 0x690 <_ZN10DigitalPin5writeEb>
     a82:	05 c0       	rjmp	.+10     	; 0xa8e <_ZN13OutputHandler18refresh_panel_ledsEv+0x46>
     a84:	61 e0       	ldi	r22, 0x01	; 1
     a86:	ce 01       	movw	r24, r28
     a88:	8f 57       	subi	r24, 0x7F	; 127
     a8a:	9e 4f       	sbci	r25, 0xFE	; 254
     a8c:	01 de       	rcall	.-1022   	; 0x690 <_ZN10DigitalPin5writeEb>
     a8e:	81 e0       	ldi	r24, 0x01	; 1
     a90:	0e 94 ca 0d 	call	0x1b94	; 0x1b94 <_ZN6Memory4readEh>
     a94:	89 2b       	or	r24, r25
     a96:	31 f0       	breq	.+12     	; 0xaa4 <_ZN13OutputHandler18refresh_panel_ledsEv+0x5c>
     a98:	60 e0       	ldi	r22, 0x00	; 0
     a9a:	ce 01       	movw	r24, r28
     a9c:	82 58       	subi	r24, 0x82	; 130
     a9e:	9e 4f       	sbci	r25, 0xFE	; 254
     aa0:	f7 dd       	rcall	.-1042   	; 0x690 <_ZN10DigitalPin5writeEb>
     aa2:	05 c0       	rjmp	.+10     	; 0xaae <_ZN13OutputHandler18refresh_panel_ledsEv+0x66>
     aa4:	61 e0       	ldi	r22, 0x01	; 1
     aa6:	ce 01       	movw	r24, r28
     aa8:	82 58       	subi	r24, 0x82	; 130
     aaa:	9e 4f       	sbci	r25, 0xFE	; 254
     aac:	f1 dd       	rcall	.-1054   	; 0x690 <_ZN10DigitalPin5writeEb>
     aae:	df 91       	pop	r29
     ab0:	cf 91       	pop	r28
     ab2:	08 95       	ret

00000ab4 <_ZN13OutputHandler7refreshEv>:
     ab4:	ef 92       	push	r14
     ab6:	ff 92       	push	r15
     ab8:	0f 93       	push	r16
     aba:	1f 93       	push	r17
     abc:	cf 93       	push	r28
     abe:	df 93       	push	r29
     ac0:	cd b7       	in	r28, 0x3d	; 61
     ac2:	de b7       	in	r29, 0x3e	; 62
     ac4:	c4 56       	subi	r28, 0x64	; 100
     ac6:	d1 09       	sbc	r29, r1
     ac8:	0f b6       	in	r0, 0x3f	; 63
     aca:	f8 94       	cli
     acc:	de bf       	out	0x3e, r29	; 62
     ace:	0f be       	out	0x3f, r0	; 63
     ad0:	cd bf       	out	0x3d, r28	; 61
     ad2:	8c 01       	movw	r16, r24
     ad4:	82 df       	rcall	.-252    	; 0x9da <_ZN13OutputHandler24refresh_push_button_ledsEv>
     ad6:	c8 01       	movw	r24, r16
     ad8:	b7 df       	rcall	.-146    	; 0xa48 <_ZN13OutputHandler18refresh_panel_ledsEv>
     ada:	c8 01       	movw	r24, r16
     adc:	02 96       	adiw	r24, 0x02	; 2
     ade:	0e 94 2b 0e 	call	0x1c56	; 0x1c56 <_ZNK11TouchScreen7refreshEv>
     ae2:	8a e0       	ldi	r24, 0x0A	; 10
     ae4:	0e 94 ca 0d 	call	0x1b94	; 0x1b94 <_ZN6Memory4readEh>
     ae8:	4a e0       	ldi	r20, 0x0A	; 10
     aea:	50 e0       	ldi	r21, 0x00	; 0
     aec:	bc 01       	movw	r22, r24
     aee:	8d e6       	ldi	r24, 0x6D	; 109
     af0:	93 e0       	ldi	r25, 0x03	; 3
     af2:	ec d7       	rcall	.+4056   	; 0x1acc <_ZN17Adafruit_7segment5printEji>
     af4:	8d e6       	ldi	r24, 0x6D	; 109
     af6:	93 e0       	ldi	r25, 0x03	; 3
     af8:	cc d5       	rcall	.+2968   	; 0x1692 <_ZN20Adafruit_LEDBackpack12writeDisplayEv>
     afa:	80 e5       	ldi	r24, 0x50	; 80
     afc:	0e 94 ca 0d 	call	0x1b94	; 0x1b94 <_ZN6Memory4readEh>
     b00:	4a e0       	ldi	r20, 0x0A	; 10
     b02:	50 e0       	ldi	r21, 0x00	; 0
     b04:	bc 01       	movw	r22, r24
     b06:	8c e2       	ldi	r24, 0x2C	; 44
     b08:	93 e0       	ldi	r25, 0x03	; 3
     b0a:	e0 d7       	rcall	.+4032   	; 0x1acc <_ZN17Adafruit_7segment5printEji>
     b0c:	8c e2       	ldi	r24, 0x2C	; 44
     b0e:	93 e0       	ldi	r25, 0x03	; 3
     b10:	c0 d5       	rcall	.+2944   	; 0x1692 <_ZN20Adafruit_LEDBackpack12writeDisplayEv>
     b12:	42 e0       	ldi	r20, 0x02	; 2
     b14:	60 e0       	ldi	r22, 0x00	; 0
     b16:	86 e1       	ldi	r24, 0x16	; 22
     b18:	93 e0       	ldi	r25, 0x03	; 3
     b1a:	71 d3       	rcall	.+1762   	; 0x11fe <_ZN3LCD9setCursorEhh>
     b1c:	85 e2       	ldi	r24, 0x25	; 37
     b1e:	0e 94 ca 0d 	call	0x1b94	; 0x1b94 <_ZN6Memory4readEh>
     b22:	9f 93       	push	r25
     b24:	8f 93       	push	r24
     b26:	06 e4       	ldi	r16, 0x46	; 70
     b28:	12 e0       	ldi	r17, 0x02	; 2
     b2a:	1f 93       	push	r17
     b2c:	0f 93       	push	r16
     b2e:	ce 01       	movw	r24, r28
     b30:	01 96       	adiw	r24, 0x01	; 1
     b32:	7c 01       	movw	r14, r24
     b34:	9f 93       	push	r25
     b36:	8f 93       	push	r24
     b38:	0e 94 d1 14 	call	0x29a2	; 0x29a2 <sprintf>
     b3c:	b7 01       	movw	r22, r14
     b3e:	86 e1       	ldi	r24, 0x16	; 22
     b40:	93 e0       	ldi	r25, 0x03	; 3
     b42:	34 d4       	rcall	.+2152   	; 0x13ac <_ZN3LCD5printEPKc>
     b44:	43 e0       	ldi	r20, 0x03	; 3
     b46:	60 e0       	ldi	r22, 0x00	; 0
     b48:	86 e1       	ldi	r24, 0x16	; 22
     b4a:	93 e0       	ldi	r25, 0x03	; 3
     b4c:	58 d3       	rcall	.+1712   	; 0x11fe <_ZN3LCD9setCursorEhh>
     b4e:	84 e2       	ldi	r24, 0x24	; 36
     b50:	0e 94 ca 0d 	call	0x1b94	; 0x1b94 <_ZN6Memory4readEh>
     b54:	9f 93       	push	r25
     b56:	8f 93       	push	r24
     b58:	1f 93       	push	r17
     b5a:	0f 93       	push	r16
     b5c:	8e 01       	movw	r16, r28
     b5e:	0d 5c       	subi	r16, 0xCD	; 205
     b60:	1f 4f       	sbci	r17, 0xFF	; 255
     b62:	1f 93       	push	r17
     b64:	0f 93       	push	r16
     b66:	0e 94 d1 14 	call	0x29a2	; 0x29a2 <sprintf>
     b6a:	b8 01       	movw	r22, r16
     b6c:	86 e1       	ldi	r24, 0x16	; 22
     b6e:	93 e0       	ldi	r25, 0x03	; 3
     b70:	1d d4       	rcall	.+2106   	; 0x13ac <_ZN3LCD5printEPKc>
     b72:	0f b6       	in	r0, 0x3f	; 63
     b74:	f8 94       	cli
     b76:	de bf       	out	0x3e, r29	; 62
     b78:	0f be       	out	0x3f, r0	; 63
     b7a:	cd bf       	out	0x3d, r28	; 61
     b7c:	cc 59       	subi	r28, 0x9C	; 156
     b7e:	df 4f       	sbci	r29, 0xFF	; 255
     b80:	0f b6       	in	r0, 0x3f	; 63
     b82:	f8 94       	cli
     b84:	de bf       	out	0x3e, r29	; 62
     b86:	0f be       	out	0x3f, r0	; 63
     b88:	cd bf       	out	0x3d, r28	; 61
     b8a:	df 91       	pop	r29
     b8c:	cf 91       	pop	r28
     b8e:	1f 91       	pop	r17
     b90:	0f 91       	pop	r16
     b92:	ff 90       	pop	r15
     b94:	ef 90       	pop	r14
     b96:	08 95       	ret

00000b98 <_ZN13OutputHandler6spiralEv>:
     b98:	af 92       	push	r10
     b9a:	bf 92       	push	r11
     b9c:	cf 92       	push	r12
     b9e:	df 92       	push	r13
     ba0:	ef 92       	push	r14
     ba2:	ff 92       	push	r15
     ba4:	0f 93       	push	r16
     ba6:	1f 93       	push	r17
     ba8:	cf 93       	push	r28
     baa:	df 93       	push	r29
     bac:	cd b7       	in	r28, 0x3d	; 61
     bae:	de b7       	in	r29, 0x3e	; 62
     bb0:	a0 97       	sbiw	r28, 0x20	; 32
     bb2:	0f b6       	in	r0, 0x3f	; 63
     bb4:	f8 94       	cli
     bb6:	de bf       	out	0x3e, r29	; 62
     bb8:	0f be       	out	0x3f, r0	; 63
     bba:	cd bf       	out	0x3d, r28	; 61
     bbc:	6c 01       	movw	r12, r24
     bbe:	20 e2       	ldi	r18, 0x20	; 32
     bc0:	e6 e0       	ldi	r30, 0x06	; 6
     bc2:	f2 e0       	ldi	r31, 0x02	; 2
     bc4:	ce 01       	movw	r24, r28
     bc6:	01 96       	adiw	r24, 0x01	; 1
     bc8:	dc 01       	movw	r26, r24
     bca:	01 90       	ld	r0, Z+
     bcc:	0d 92       	st	X+, r0
     bce:	2a 95       	dec	r18
     bd0:	e1 f7       	brne	.-8      	; 0xbca <_ZN13OutputHandler6spiralEv+0x32>
     bd2:	8e 01       	movw	r16, r28
     bd4:	0f 5d       	subi	r16, 0xDF	; 223
     bd6:	1f 4f       	sbci	r17, 0xFF	; 255
     bd8:	7c 01       	movw	r14, r24
     bda:	58 01       	movw	r10, r16
     bdc:	f5 01       	movw	r30, r10
     bde:	92 91       	ld	r25, -Z
     be0:	82 91       	ld	r24, -Z
     be2:	5f 01       	movw	r10, r30
     be4:	9c 01       	movw	r18, r24
     be6:	22 0f       	add	r18, r18
     be8:	33 1f       	adc	r19, r19
     bea:	22 0f       	add	r18, r18
     bec:	33 1f       	adc	r19, r19
     bee:	82 0f       	add	r24, r18
     bf0:	93 1f       	adc	r25, r19
     bf2:	88 5d       	subi	r24, 0xD8	; 216
     bf4:	9e 4f       	sbci	r25, 0xFE	; 254
     bf6:	61 e0       	ldi	r22, 0x01	; 1
     bf8:	8c 0d       	add	r24, r12
     bfa:	9d 1d       	adc	r25, r13
     bfc:	b6 dd       	rcall	.-1172   	; 0x76a <_ZN11ExpanderPin5writeEb>
     bfe:	ff ef       	ldi	r31, 0xFF	; 255
     c00:	20 e7       	ldi	r18, 0x70	; 112
     c02:	82 e0       	ldi	r24, 0x02	; 2
     c04:	f1 50       	subi	r31, 0x01	; 1
     c06:	20 40       	sbci	r18, 0x00	; 0
     c08:	80 40       	sbci	r24, 0x00	; 0
     c0a:	e1 f7       	brne	.-8      	; 0xc04 <_ZN13OutputHandler6spiralEv+0x6c>
     c0c:	00 c0       	rjmp	.+0      	; 0xc0e <_ZN13OutputHandler6spiralEv+0x76>
     c0e:	00 00       	nop
     c10:	ea 14       	cp	r14, r10
     c12:	fb 04       	cpc	r15, r11
     c14:	19 f7       	brne	.-58     	; 0xbdc <_ZN13OutputHandler6spiralEv+0x44>
     c16:	f8 01       	movw	r30, r16
     c18:	92 91       	ld	r25, -Z
     c1a:	82 91       	ld	r24, -Z
     c1c:	8f 01       	movw	r16, r30
     c1e:	9c 01       	movw	r18, r24
     c20:	22 0f       	add	r18, r18
     c22:	33 1f       	adc	r19, r19
     c24:	22 0f       	add	r18, r18
     c26:	33 1f       	adc	r19, r19
     c28:	82 0f       	add	r24, r18
     c2a:	93 1f       	adc	r25, r19
     c2c:	88 5d       	subi	r24, 0xD8	; 216
     c2e:	9e 4f       	sbci	r25, 0xFE	; 254
     c30:	60 e0       	ldi	r22, 0x00	; 0
     c32:	8c 0d       	add	r24, r12
     c34:	9d 1d       	adc	r25, r13
     c36:	99 dd       	rcall	.-1230   	; 0x76a <_ZN11ExpanderPin5writeEb>
     c38:	ff ef       	ldi	r31, 0xFF	; 255
     c3a:	20 e7       	ldi	r18, 0x70	; 112
     c3c:	82 e0       	ldi	r24, 0x02	; 2
     c3e:	f1 50       	subi	r31, 0x01	; 1
     c40:	20 40       	sbci	r18, 0x00	; 0
     c42:	80 40       	sbci	r24, 0x00	; 0
     c44:	e1 f7       	brne	.-8      	; 0xc3e <_ZN13OutputHandler6spiralEv+0xa6>
     c46:	00 c0       	rjmp	.+0      	; 0xc48 <_ZN13OutputHandler6spiralEv+0xb0>
     c48:	00 00       	nop
     c4a:	0e 15       	cp	r16, r14
     c4c:	1f 05       	cpc	r17, r15
     c4e:	19 f7       	brne	.-58     	; 0xc16 <_ZN13OutputHandler6spiralEv+0x7e>
     c50:	a0 96       	adiw	r28, 0x20	; 32
     c52:	0f b6       	in	r0, 0x3f	; 63
     c54:	f8 94       	cli
     c56:	de bf       	out	0x3e, r29	; 62
     c58:	0f be       	out	0x3f, r0	; 63
     c5a:	cd bf       	out	0x3d, r28	; 61
     c5c:	df 91       	pop	r29
     c5e:	cf 91       	pop	r28
     c60:	1f 91       	pop	r17
     c62:	0f 91       	pop	r16
     c64:	ff 90       	pop	r15
     c66:	ef 90       	pop	r14
     c68:	df 90       	pop	r13
     c6a:	cf 90       	pop	r12
     c6c:	bf 90       	pop	r11
     c6e:	af 90       	pop	r10
     c70:	08 95       	ret

00000c72 <_ZN13OutputHandler7startupEv>:
     c72:	6f 92       	push	r6
     c74:	7f 92       	push	r7
     c76:	8f 92       	push	r8
     c78:	9f 92       	push	r9
     c7a:	af 92       	push	r10
     c7c:	bf 92       	push	r11
     c7e:	cf 92       	push	r12
     c80:	df 92       	push	r13
     c82:	ef 92       	push	r14
     c84:	ff 92       	push	r15
     c86:	0f 93       	push	r16
     c88:	1f 93       	push	r17
     c8a:	cf 93       	push	r28
     c8c:	df 93       	push	r29
     c8e:	7c 01       	movw	r14, r24
     c90:	61 2c       	mov	r6, r1
     c92:	71 2c       	mov	r7, r1
     c94:	0f 2e       	mov	r0, r31
     c96:	f3 e0       	ldi	r31, 0x03	; 3
     c98:	af 2e       	mov	r10, r31
     c9a:	b1 2c       	mov	r11, r1
     c9c:	f0 2d       	mov	r31, r0
     c9e:	81 2c       	mov	r8, r1
     ca0:	91 2c       	mov	r9, r1
     ca2:	63 01       	movw	r12, r6
     ca4:	21 e0       	ldi	r18, 0x01	; 1
     ca6:	c2 22       	and	r12, r18
     ca8:	dd 24       	eor	r13, r13
     caa:	c1 14       	cp	r12, r1
     cac:	d1 04       	cpc	r13, r1
     cae:	21 f0       	breq	.+8      	; 0xcb8 <_ZN13OutputHandler7startupEv+0x46>
     cb0:	e5 01       	movw	r28, r10
     cb2:	c8 19       	sub	r28, r8
     cb4:	d9 09       	sbc	r29, r9
     cb6:	01 c0       	rjmp	.+2      	; 0xcba <_ZN13OutputHandler7startupEv+0x48>
     cb8:	e4 01       	movw	r28, r8
     cba:	8e 01       	movw	r16, r28
     cbc:	00 0f       	add	r16, r16
     cbe:	11 1f       	adc	r17, r17
     cc0:	0c 0f       	add	r16, r28
     cc2:	1d 1f       	adc	r17, r29
     cc4:	08 58       	subi	r16, 0x88	; 136
     cc6:	1e 4f       	sbci	r17, 0xFE	; 254
     cc8:	0e 0d       	add	r16, r14
     cca:	1f 1d       	adc	r17, r15
     ccc:	61 e0       	ldi	r22, 0x01	; 1
     cce:	c8 01       	movw	r24, r16
     cd0:	df dc       	rcall	.-1602   	; 0x690 <_ZN10DigitalPin5writeEb>
     cd2:	24 96       	adiw	r28, 0x04	; 4
     cd4:	ce 01       	movw	r24, r28
     cd6:	88 0f       	add	r24, r24
     cd8:	99 1f       	adc	r25, r25
     cda:	c8 0f       	add	r28, r24
     cdc:	d9 1f       	adc	r29, r25
     cde:	c8 58       	subi	r28, 0x88	; 136
     ce0:	de 4f       	sbci	r29, 0xFE	; 254
     ce2:	ce 0d       	add	r28, r14
     ce4:	df 1d       	adc	r29, r15
     ce6:	61 e0       	ldi	r22, 0x01	; 1
     ce8:	ce 01       	movw	r24, r28
     cea:	d2 dc       	rcall	.-1628   	; 0x690 <_ZN10DigitalPin5writeEb>
     cec:	8f ef       	ldi	r24, 0xFF	; 255
     cee:	90 e7       	ldi	r25, 0x70	; 112
     cf0:	22 e0       	ldi	r18, 0x02	; 2
     cf2:	81 50       	subi	r24, 0x01	; 1
     cf4:	90 40       	sbci	r25, 0x00	; 0
     cf6:	20 40       	sbci	r18, 0x00	; 0
     cf8:	e1 f7       	brne	.-8      	; 0xcf2 <_ZN13OutputHandler7startupEv+0x80>
     cfa:	00 c0       	rjmp	.+0      	; 0xcfc <_ZN13OutputHandler7startupEv+0x8a>
     cfc:	00 00       	nop
     cfe:	60 e0       	ldi	r22, 0x00	; 0
     d00:	c8 01       	movw	r24, r16
     d02:	c6 dc       	rcall	.-1652   	; 0x690 <_ZN10DigitalPin5writeEb>
     d04:	60 e0       	ldi	r22, 0x00	; 0
     d06:	ce 01       	movw	r24, r28
     d08:	c3 dc       	rcall	.-1658   	; 0x690 <_ZN10DigitalPin5writeEb>
     d0a:	8f ef       	ldi	r24, 0xFF	; 255
     d0c:	88 1a       	sub	r8, r24
     d0e:	98 0a       	sbc	r9, r24
     d10:	94 e0       	ldi	r25, 0x04	; 4
     d12:	89 16       	cp	r8, r25
     d14:	91 04       	cpc	r9, r1
     d16:	49 f6       	brne	.-110    	; 0xcaa <_ZN13OutputHandler7startupEv+0x38>
     d18:	2f ef       	ldi	r18, 0xFF	; 255
     d1a:	62 1a       	sub	r6, r18
     d1c:	72 0a       	sbc	r7, r18
     d1e:	84 e0       	ldi	r24, 0x04	; 4
     d20:	68 16       	cp	r6, r24
     d22:	71 04       	cpc	r7, r1
     d24:	09 f0       	breq	.+2      	; 0xd28 <_ZN13OutputHandler7startupEv+0xb6>
     d26:	bb cf       	rjmp	.-138    	; 0xc9e <_ZN13OutputHandler7startupEv+0x2c>
     d28:	c7 01       	movw	r24, r14
     d2a:	36 df       	rcall	.-404    	; 0xb98 <_ZN13OutputHandler6spiralEv>
     d2c:	df 91       	pop	r29
     d2e:	cf 91       	pop	r28
     d30:	1f 91       	pop	r17
     d32:	0f 91       	pop	r16
     d34:	ff 90       	pop	r15
     d36:	ef 90       	pop	r14
     d38:	df 90       	pop	r13
     d3a:	cf 90       	pop	r12
     d3c:	bf 90       	pop	r11
     d3e:	af 90       	pop	r10
     d40:	9f 90       	pop	r9
     d42:	8f 90       	pop	r8
     d44:	7f 90       	pop	r7
     d46:	6f 90       	pop	r6
     d48:	08 95       	ret

00000d4a <_GLOBAL__sub_I_LsevenSeg>:
     d4a:	8f 92       	push	r8
     d4c:	af 92       	push	r10
     d4e:	cf 92       	push	r12
     d50:	ef 92       	push	r14
     d52:	0f 93       	push	r16
#include "../i2c/LiquidCrystal_I2C.hpp"
#include <stdio.h>

#define F_CPU 16000000UL
#include <util/delay.h>
Adafruit_7segment LsevenSeg(0x70);
     d54:	60 e7       	ldi	r22, 0x70	; 112
     d56:	8d e6       	ldi	r24, 0x6D	; 109
     d58:	93 e0       	ldi	r25, 0x03	; 3
     d5a:	b3 d4       	rcall	.+2406   	; 0x16c2 <_ZN17Adafruit_7segmentC1Eh>
Adafruit_7segment RsevenSeg(0x71);
     d5c:	61 e7       	ldi	r22, 0x71	; 113
     d5e:	8c e2       	ldi	r24, 0x2C	; 44
     d60:	93 e0       	ldi	r25, 0x03	; 3
     d62:	af d4       	rcall	.+2398   	; 0x16c2 <_ZN17Adafruit_7segmentC1Eh>
LiquidCrystal_I2C lcd(0x3F, 2, 1, 0, 4, 5, 6, 7);
     d64:	0f 2e       	mov	r0, r31
     d66:	f7 e0       	ldi	r31, 0x07	; 7
     d68:	8f 2e       	mov	r8, r31
     d6a:	f0 2d       	mov	r31, r0
     d6c:	0f 2e       	mov	r0, r31
     d6e:	f6 e0       	ldi	r31, 0x06	; 6
     d70:	af 2e       	mov	r10, r31
     d72:	f0 2d       	mov	r31, r0
     d74:	0f 2e       	mov	r0, r31
     d76:	f5 e0       	ldi	r31, 0x05	; 5
     d78:	cf 2e       	mov	r12, r31
     d7a:	f0 2d       	mov	r31, r0
     d7c:	68 94       	set
     d7e:	ee 24       	eor	r14, r14
     d80:	e2 f8       	bld	r14, 2
     d82:	00 e0       	ldi	r16, 0x00	; 0
     d84:	21 e0       	ldi	r18, 0x01	; 1
     d86:	42 e0       	ldi	r20, 0x02	; 2
     d88:	6f e3       	ldi	r22, 0x3F	; 63
     d8a:	86 e1       	ldi	r24, 0x16	; 22
     d8c:	93 e0       	ldi	r25, 0x03	; 3
     d8e:	6e d3       	rcall	.+1756   	; 0x146c <_ZN17LiquidCrystal_I2CC1Ehhhhhhhh>
	panel_leds[3].initialize(C, THREE, OUTPUT);
	for (int i = 0; i < 8; ++i)
		panel_leds[i].write(0);
} // end initialize_panel_leds()

Clocks blinkTimer(500);
     d90:	44 ef       	ldi	r20, 0xF4	; 244
     d92:	51 e0       	ldi	r21, 0x01	; 1
     d94:	60 e0       	ldi	r22, 0x00	; 0
     d96:	70 e0       	ldi	r23, 0x00	; 0
     d98:	8a e0       	ldi	r24, 0x0A	; 10
     d9a:	93 e0       	ldi	r25, 0x03	; 3
     d9c:	bb d7       	rcall	.+3958   	; 0x1d14 <_ZN6ClocksC1El>
		push_button_leds[inner[j]].write(0);
	_delay_ms(pause);
	for (int j = 0; j < 12; ++j)
		push_button_leds[outer[j]].write(0);
	_delay_ms(pause);
     d9e:	0f 91       	pop	r16
     da0:	ef 90       	pop	r14
     da2:	cf 90       	pop	r12
     da4:	af 90       	pop	r10
     da6:	8f 90       	pop	r8
     da8:	08 95       	ret

00000daa <_ZN13OutputHandler10initializeEP6Memory>:
Adafruit_7segment LsevenSeg(0x70);
Adafruit_7segment RsevenSeg(0x71);
LiquidCrystal_I2C lcd(0x3F, 2, 1, 0, 4, 5, 6, 7);

void OutputHandler::initialize (Memory * memory)
{
     daa:	0f 93       	push	r16
     dac:	1f 93       	push	r17
     dae:	cf 93       	push	r28
     db0:	df 93       	push	r29
     db2:	ec 01       	movw	r28, r24
     db4:	8b 01       	movw	r16, r22
	this->memory = memory;
     db6:	79 83       	std	Y+1, r23	; 0x01
     db8:	68 83       	st	Y, r22
	initialize_expanders();
     dba:	49 dd       	rcall	.-1390   	; 0x84e <_ZN13OutputHandler20initialize_expandersEv>
	initialize_push_button_leds();
     dbc:	ce 01       	movw	r24, r28
     dbe:	56 dd       	rcall	.-1364   	; 0x86c <_ZN13OutputHandler27initialize_push_button_ledsEv>
	initialize_panel_leds();
     dc0:	ce 01       	movw	r24, r28
     dc2:	db dd       	rcall	.-1098   	; 0x97a <_ZN13OutputHandler21initialize_panel_ledsEv>
     dc4:	43 e0       	ldi	r20, 0x03	; 3

	screen.initialize(memory, UART_3);
     dc6:	50 e0       	ldi	r21, 0x00	; 0
     dc8:	b8 01       	movw	r22, r16
     dca:	ce 01       	movw	r24, r28
     dcc:	02 96       	adiw	r24, 0x02	; 2
     dce:	04 d7       	rcall	.+3592   	; 0x1bd8 <_ZN11TouchScreen10initializeEP6Memoryj>
     dd0:	20 e0       	ldi	r18, 0x00	; 0

	lcd.begin (20, 4); // 20 x 4 LCD module
     dd2:	44 e0       	ldi	r20, 0x04	; 4
     dd4:	64 e1       	ldi	r22, 0x14	; 20
     dd6:	86 e1       	ldi	r24, 0x16	; 22
     dd8:	93 e0       	ldi	r25, 0x03	; 3
     dda:	15 d4       	rcall	.+2090   	; 0x1606 <_ZN17LiquidCrystal_I2C5beginEhhh>
     ddc:	40 e0       	ldi	r20, 0x00	; 0
	lcd.setBacklightPin(3, POSITIVE); // BL, BL_POL
     dde:	63 e0       	ldi	r22, 0x03	; 3
     de0:	86 e1       	ldi	r24, 0x16	; 22
     de2:	93 e0       	ldi	r25, 0x03	; 3
     de4:	19 d3       	rcall	.+1586   	; 0x1418 <_ZN17LiquidCrystal_I2C15setBacklightPinEh14t_backlightPol>
     de6:	61 e0       	ldi	r22, 0x01	; 1
	lcd.setBacklight(1);
     de8:	86 e1       	ldi	r24, 0x16	; 22
     dea:	93 e0       	ldi	r25, 0x03	; 3
     dec:	29 d3       	rcall	.+1618   	; 0x1440 <_ZN17LiquidCrystal_I2C12setBacklightEh>
     dee:	61 e5       	ldi	r22, 0x51	; 81
	lcd.print("NASA Robotics");
     df0:	72 e0       	ldi	r23, 0x02	; 2
     df2:	86 e1       	ldi	r24, 0x16	; 22
     df4:	93 e0       	ldi	r25, 0x03	; 3
     df6:	da d2       	rcall	.+1460   	; 0x13ac <_ZN3LCD5printEPKc>
     df8:	41 e0       	ldi	r20, 0x01	; 1
	lcd.setCursor(0, 1);
     dfa:	60 e0       	ldi	r22, 0x00	; 0
     dfc:	86 e1       	ldi	r24, 0x16	; 22
     dfe:	93 e0       	ldi	r25, 0x03	; 3
     e00:	fe d1       	rcall	.+1020   	; 0x11fe <_ZN3LCD9setCursorEhh>
     e02:	6f e5       	ldi	r22, 0x5F	; 95
	lcd.print("Control Box: V2.3");
     e04:	72 e0       	ldi	r23, 0x02	; 2
     e06:	86 e1       	ldi	r24, 0x16	; 22
     e08:	93 e0       	ldi	r25, 0x03	; 3
     e0a:	d0 d2       	rcall	.+1440   	; 0x13ac <_ZN3LCD5printEPKc>
     e0c:	60 e7       	ldi	r22, 0x70	; 112
	LsevenSeg.begin(0x70);
     e0e:	8d e6       	ldi	r24, 0x6D	; 109
     e10:	93 e0       	ldi	r25, 0x03	; 3
     e12:	29 d4       	rcall	.+2130   	; 0x1666 <_ZN20Adafruit_LEDBackpack5beginEh>
     e14:	61 e7       	ldi	r22, 0x71	; 113
     e16:	8c e2       	ldi	r24, 0x2C	; 44
	RsevenSeg.begin(0x71);
     e18:	93 e0       	ldi	r25, 0x03	; 3
     e1a:	25 d4       	rcall	.+2122   	; 0x1666 <_ZN20Adafruit_LEDBackpack5beginEh>
     e1c:	df 91       	pop	r29
     e1e:	cf 91       	pop	r28
     e20:	1f 91       	pop	r17
} // end initialize()
     e22:	0f 91       	pop	r16
     e24:	08 95       	ret

00000e26 <_Z10copy_rangePhS_h>:
     e26:	44 23       	and	r20, r20
     e28:	51 f0       	breq	.+20     	; 0xe3e <_Z10copy_rangePhS_h+0x18>
     e2a:	a8 2f       	mov	r26, r24
     e2c:	b9 2f       	mov	r27, r25
     e2e:	fb 01       	movw	r30, r22
     e30:	64 0f       	add	r22, r20
     e32:	71 1d       	adc	r23, r1
     e34:	8d 91       	ld	r24, X+
     e36:	81 93       	st	Z+, r24
     e38:	e6 17       	cp	r30, r22
     e3a:	f7 07       	cpc	r31, r23
     e3c:	d9 f7       	brne	.-10     	; 0xe34 <_Z10copy_rangePhS_h+0xe>
     e3e:	08 95       	ret

00000e40 <_ZN3I2C11set_addressEh>:
     e40:	66 0f       	add	r22, r22
     e42:	fc 01       	movw	r30, r24
     e44:	61 83       	std	Z+1, r22	; 0x01
     e46:	08 95       	ret

00000e48 <_ZN3I2C12send_addressENS_9DirectionE>:
     e48:	fc 01       	movw	r30, r24
     e4a:	61 11       	cpse	r22, r1
     e4c:	04 c0       	rjmp	.+8      	; 0xe56 <_ZN3I2C12send_addressENS_9DirectionE+0xe>
     e4e:	81 81       	ldd	r24, Z+1	; 0x01
     e50:	81 60       	ori	r24, 0x01	; 1
     e52:	81 83       	std	Z+1, r24	; 0x01
     e54:	03 c0       	rjmp	.+6      	; 0xe5c <_ZN3I2C12send_addressENS_9DirectionE+0x14>
     e56:	81 81       	ldd	r24, Z+1	; 0x01
     e58:	8e 7f       	andi	r24, 0xFE	; 254
     e5a:	81 83       	std	Z+1, r24	; 0x01
     e5c:	81 81       	ldd	r24, Z+1	; 0x01
     e5e:	80 93 bb 00 	sts	0x00BB, r24	; 0x8000bb <__TEXT_REGION_LENGTH__+0x7e00bb>
     e62:	84 e8       	ldi	r24, 0x84	; 132
     e64:	80 93 bc 00 	sts	0x00BC, r24	; 0x8000bc <__TEXT_REGION_LENGTH__+0x7e00bc>
     e68:	83 e0       	ldi	r24, 0x03	; 3
     e6a:	80 83       	st	Z, r24
     e6c:	08 95       	ret

00000e6e <_ZN3I2C14read_data_byteEv>:
     e6e:	fc 01       	movw	r30, r24
     e70:	84 85       	ldd	r24, Z+12	; 0x0c
     e72:	90 e0       	ldi	r25, 0x00	; 0
     e74:	25 85       	ldd	r18, Z+13	; 0x0d
     e76:	30 e0       	ldi	r19, 0x00	; 0
     e78:	21 50       	subi	r18, 0x01	; 1
     e7a:	31 09       	sbc	r19, r1
     e7c:	82 17       	cp	r24, r18
     e7e:	93 07       	cpc	r25, r19
     e80:	31 f4       	brne	.+12     	; 0xe8e <_ZN3I2C14read_data_byteEv+0x20>
     e82:	ac eb       	ldi	r26, 0xBC	; 188
     e84:	b0 e0       	ldi	r27, 0x00	; 0
     e86:	9c 91       	ld	r25, X
     e88:	80 e4       	ldi	r24, 0x40	; 64
     e8a:	89 27       	eor	r24, r25
     e8c:	8c 93       	st	X, r24
     e8e:	84 e8       	ldi	r24, 0x84	; 132
     e90:	80 93 bc 00 	sts	0x00BC, r24	; 0x8000bc <__TEXT_REGION_LENGTH__+0x7e00bc>
     e94:	86 e0       	ldi	r24, 0x06	; 6
     e96:	80 83       	st	Z, r24
     e98:	08 95       	ret

00000e9a <_ZN3I2C4failEv>:
     e9a:	fc 01       	movw	r30, r24
     e9c:	84 e9       	ldi	r24, 0x94	; 148
     e9e:	80 93 bc 00 	sts	0x00BC, r24	; 0x8000bc <__TEXT_REGION_LENGTH__+0x7e00bc>
     ea2:	14 86       	std	Z+12, r1	; 0x0c
     ea4:	10 82       	st	Z, r1
     ea6:	86 85       	ldd	r24, Z+14	; 0x0e
     ea8:	8f 5f       	subi	r24, 0xFF	; 255
     eaa:	86 87       	std	Z+14, r24	; 0x0e
	#else
		//round up by default
		__ticks_dc = (uint32_t)(ceil(fabs(__tmp)));
	#endif

	__builtin_avr_delay_cycles(__ticks_dc);
     eac:	85 e3       	ldi	r24, 0x35	; 53
     eae:	8a 95       	dec	r24
     eb0:	f1 f7       	brne	.-4      	; 0xeae <_ZN3I2C4failEv+0x14>
     eb2:	00 00       	nop
     eb4:	08 95       	ret

00000eb6 <_ZN3I2C12verify_startEv>:
     eb6:	fc 01       	movw	r30, r24
     eb8:	90 91 bc 00 	lds	r25, 0x00BC	; 0x8000bc <__TEXT_REGION_LENGTH__+0x7e00bc>
     ebc:	99 23       	and	r25, r25
     ebe:	54 f4       	brge	.+20     	; 0xed4 <_ZN3I2C12verify_startEv+0x1e>
     ec0:	80 91 b9 00 	lds	r24, 0x00B9	; 0x8000b9 <__TEXT_REGION_LENGTH__+0x7e00b9>
     ec4:	88 7f       	andi	r24, 0xF8	; 248
     ec6:	88 30       	cpi	r24, 0x08	; 8
     ec8:	19 f4       	brne	.+6      	; 0xed0 <_ZN3I2C12verify_startEv+0x1a>
     eca:	82 e0       	ldi	r24, 0x02	; 2
     ecc:	80 83       	st	Z, r24
     ece:	08 95       	ret
     ed0:	cf 01       	movw	r24, r30
     ed2:	e3 cf       	rjmp	.-58     	; 0xe9a <_ZN3I2C4failEv>
     ed4:	08 95       	ret

00000ed6 <_ZN3I2C25verify_write_address_sentEv>:
     ed6:	fc 01       	movw	r30, r24
     ed8:	90 91 bc 00 	lds	r25, 0x00BC	; 0x8000bc <__TEXT_REGION_LENGTH__+0x7e00bc>
     edc:	99 23       	and	r25, r25
     ede:	54 f4       	brge	.+20     	; 0xef4 <_ZN3I2C25verify_write_address_sentEv+0x1e>
     ee0:	80 91 b9 00 	lds	r24, 0x00B9	; 0x8000b9 <__TEXT_REGION_LENGTH__+0x7e00b9>
     ee4:	88 7f       	andi	r24, 0xF8	; 248
     ee6:	88 31       	cpi	r24, 0x18	; 24
     ee8:	19 f4       	brne	.+6      	; 0xef0 <_ZN3I2C25verify_write_address_sentEv+0x1a>
     eea:	84 e0       	ldi	r24, 0x04	; 4
     eec:	80 83       	st	Z, r24
     eee:	08 95       	ret
     ef0:	cf 01       	movw	r24, r30
     ef2:	d3 cf       	rjmp	.-90     	; 0xe9a <_ZN3I2C4failEv>
     ef4:	08 95       	ret

00000ef6 <_ZN3I2C24verify_read_address_sentEv>:
     ef6:	fc 01       	movw	r30, r24
     ef8:	90 91 bc 00 	lds	r25, 0x00BC	; 0x8000bc <__TEXT_REGION_LENGTH__+0x7e00bc>
     efc:	99 23       	and	r25, r25
     efe:	54 f4       	brge	.+20     	; 0xf14 <_ZN3I2C24verify_read_address_sentEv+0x1e>
     f00:	80 91 b9 00 	lds	r24, 0x00B9	; 0x8000b9 <__TEXT_REGION_LENGTH__+0x7e00b9>
     f04:	88 7f       	andi	r24, 0xF8	; 248
     f06:	80 34       	cpi	r24, 0x40	; 64
     f08:	19 f4       	brne	.+6      	; 0xf10 <_ZN3I2C24verify_read_address_sentEv+0x1a>
     f0a:	85 e0       	ldi	r24, 0x05	; 5
     f0c:	80 83       	st	Z, r24
     f0e:	08 95       	ret
     f10:	cf 01       	movw	r24, r30
     f12:	c3 cf       	rjmp	.-122    	; 0xe9a <_ZN3I2C4failEv>
     f14:	08 95       	ret

00000f16 <_ZN3I2C16verify_data_sentEv>:
     f16:	20 91 bc 00 	lds	r18, 0x00BC	; 0x8000bc <__TEXT_REGION_LENGTH__+0x7e00bc>
     f1a:	22 23       	and	r18, r18
     f1c:	a4 f4       	brge	.+40     	; 0xf46 <_ZN3I2C16verify_data_sentEv+0x30>
     f1e:	20 91 b9 00 	lds	r18, 0x00B9	; 0x8000b9 <__TEXT_REGION_LENGTH__+0x7e00b9>
     f22:	28 7f       	andi	r18, 0xF8	; 248
     f24:	28 32       	cpi	r18, 0x28	; 40
     f26:	71 f4       	brne	.+28     	; 0xf44 <_ZN3I2C16verify_data_sentEv+0x2e>
     f28:	fc 01       	movw	r30, r24
     f2a:	24 85       	ldd	r18, Z+12	; 0x0c
     f2c:	2f 5f       	subi	r18, 0xFF	; 255
     f2e:	24 87       	std	Z+12, r18	; 0x0c
     f30:	35 85       	ldd	r19, Z+13	; 0x0d
     f32:	23 17       	cp	r18, r19
     f34:	18 f4       	brcc	.+6      	; 0xf3c <_ZN3I2C16verify_data_sentEv+0x26>
     f36:	24 e0       	ldi	r18, 0x04	; 4
     f38:	20 83       	st	Z, r18
     f3a:	08 95       	ret
     f3c:	27 e0       	ldi	r18, 0x07	; 7
     f3e:	fc 01       	movw	r30, r24
     f40:	20 83       	st	Z, r18
     f42:	08 95       	ret
     f44:	aa cf       	rjmp	.-172    	; 0xe9a <_ZN3I2C4failEv>
     f46:	08 95       	ret

00000f48 <_ZN3I2C5writeEPhh>:
     f48:	9f 92       	push	r9
     f4a:	af 92       	push	r10
     f4c:	bf 92       	push	r11
     f4e:	cf 92       	push	r12
     f50:	df 92       	push	r13
     f52:	ef 92       	push	r14
     f54:	ff 92       	push	r15
     f56:	0f 93       	push	r16
     f58:	1f 93       	push	r17
     f5a:	cf 93       	push	r28
     f5c:	df 93       	push	r29
     f5e:	ec 01       	movw	r28, r24
     f60:	7b 01       	movw	r14, r22
     f62:	14 2f       	mov	r17, r20
     f64:	bc 01       	movw	r22, r24
     f66:	6e 5f       	subi	r22, 0xFE	; 254
     f68:	7f 4f       	sbci	r23, 0xFF	; 255
     f6a:	c7 01       	movw	r24, r14
     f6c:	5c df       	rcall	.-328    	; 0xe26 <_Z10copy_rangePhS_h>
     f6e:	88 e4       	ldi	r24, 0x48	; 72
     f70:	80 93 b8 00 	sts	0x00B8, r24	; 0x8000b8 <__TEXT_REGION_LENGTH__+0x7e00b8>
     f74:	1d 87       	std	Y+13, r17	; 0x0d
     f76:	1c 86       	std	Y+12, r1	; 0x0c
     f78:	1e 86       	std	Y+14, r1	; 0x0e
     f7a:	18 82       	st	Y, r1
     f7c:	e0 e0       	ldi	r30, 0x00	; 0
     f7e:	0f 2e       	mov	r0, r31
     f80:	fb eb       	ldi	r31, 0xBB	; 187
     f82:	cf 2e       	mov	r12, r31
     f84:	d1 2c       	mov	r13, r1
     f86:	f0 2d       	mov	r31, r0
     f88:	0c eb       	ldi	r16, 0xBC	; 188
     f8a:	10 e0       	ldi	r17, 0x00	; 0
     f8c:	0f 2e       	mov	r0, r31
     f8e:	f4 e8       	ldi	r31, 0x84	; 132
     f90:	9f 2e       	mov	r9, r31
     f92:	f0 2d       	mov	r31, r0
     f94:	0f 2e       	mov	r0, r31
     f96:	f6 e0       	ldi	r31, 0x06	; 6
     f98:	af 2e       	mov	r10, r31
     f9a:	f0 2d       	mov	r31, r0
     f9c:	0f 2e       	mov	r0, r31
     f9e:	f4 ee       	ldi	r31, 0xE4	; 228
     fa0:	bf 2e       	mov	r11, r31
     fa2:	f0 2d       	mov	r31, r0
     fa4:	03 c0       	rjmp	.+6      	; 0xfac <_ZN3I2C5writeEPhh+0x64>
     fa6:	e8 81       	ld	r30, Y
     fa8:	e8 30       	cpi	r30, 0x08	; 8
     faa:	99 f1       	breq	.+102    	; 0x1012 <_ZN3I2C5writeEPhh+0xca>
     fac:	8e 85       	ldd	r24, Y+14	; 0x0e
     fae:	85 30       	cpi	r24, 0x05	; 5
     fb0:	98 f5       	brcc	.+102    	; 0x1018 <_ZN3I2C5writeEPhh+0xd0>
     fb2:	8e 2f       	mov	r24, r30
     fb4:	90 e0       	ldi	r25, 0x00	; 0
     fb6:	88 30       	cpi	r24, 0x08	; 8
     fb8:	91 05       	cpc	r25, r1
     fba:	40 f5       	brcc	.+80     	; 0x100c <_ZN3I2C5writeEPhh+0xc4>
     fbc:	fc 01       	movw	r30, r24
     fbe:	e8 57       	subi	r30, 0x78	; 120
     fc0:	ff 4f       	sbci	r31, 0xFF	; 255
     fc2:	0c 94 52 14 	jmp	0x28a4	; 0x28a4 <__tablejump2__>
     fc6:	f8 01       	movw	r30, r16
     fc8:	b0 82       	st	Z, r11
     fca:	81 e0       	ldi	r24, 0x01	; 1
     fcc:	88 83       	st	Y, r24
     fce:	2a c0       	rjmp	.+84     	; 0x1024 <_ZN3I2C5writeEPhh+0xdc>
     fd0:	ce 01       	movw	r24, r28
     fd2:	71 df       	rcall	.-286    	; 0xeb6 <_ZN3I2C12verify_startEv>
     fd4:	e8 cf       	rjmp	.-48     	; 0xfa6 <_ZN3I2C5writeEPhh+0x5e>
     fd6:	61 e0       	ldi	r22, 0x01	; 1
     fd8:	ce 01       	movw	r24, r28
     fda:	36 df       	rcall	.-404    	; 0xe48 <_ZN3I2C12send_addressENS_9DirectionE>
     fdc:	e4 cf       	rjmp	.-56     	; 0xfa6 <_ZN3I2C5writeEPhh+0x5e>
     fde:	ce 01       	movw	r24, r28
     fe0:	7a df       	rcall	.-268    	; 0xed6 <_ZN3I2C25verify_write_address_sentEv>
     fe2:	e1 cf       	rjmp	.-62     	; 0xfa6 <_ZN3I2C5writeEPhh+0x5e>
     fe4:	8c 85       	ldd	r24, Y+12	; 0x0c
     fe6:	f7 01       	movw	r30, r14
     fe8:	e8 0f       	add	r30, r24
     fea:	f1 1d       	adc	r31, r1
     fec:	80 81       	ld	r24, Z
     fee:	f6 01       	movw	r30, r12
     ff0:	80 83       	st	Z, r24
     ff2:	f8 01       	movw	r30, r16
     ff4:	90 82       	st	Z, r9
     ff6:	a8 82       	st	Y, r10
     ff8:	15 c0       	rjmp	.+42     	; 0x1024 <_ZN3I2C5writeEPhh+0xdc>
     ffa:	ce 01       	movw	r24, r28
     ffc:	8c df       	rcall	.-232    	; 0xf16 <_ZN3I2C16verify_data_sentEv>
     ffe:	d3 cf       	rjmp	.-90     	; 0xfa6 <_ZN3I2C5writeEPhh+0x5e>
    1000:	84 e9       	ldi	r24, 0x94	; 148
    1002:	80 93 bc 00 	sts	0x00BC, r24	; 0x8000bc <__TEXT_REGION_LENGTH__+0x7e00bc>
    1006:	88 e0       	ldi	r24, 0x08	; 8
    1008:	88 83       	st	Y, r24
    100a:	09 c0       	rjmp	.+18     	; 0x101e <_ZN3I2C5writeEPhh+0xd6>
    100c:	88 e0       	ldi	r24, 0x08	; 8
    100e:	88 83       	st	Y, r24
    1010:	06 c0       	rjmp	.+12     	; 0x101e <_ZN3I2C5writeEPhh+0xd6>
    1012:	81 e0       	ldi	r24, 0x01	; 1
    1014:	90 e0       	ldi	r25, 0x00	; 0
    1016:	08 c0       	rjmp	.+16     	; 0x1028 <_ZN3I2C5writeEPhh+0xe0>
    1018:	80 e0       	ldi	r24, 0x00	; 0
    101a:	90 e0       	ldi	r25, 0x00	; 0
    101c:	05 c0       	rjmp	.+10     	; 0x1028 <_ZN3I2C5writeEPhh+0xe0>
    101e:	81 e0       	ldi	r24, 0x01	; 1
    1020:	90 e0       	ldi	r25, 0x00	; 0
    1022:	02 c0       	rjmp	.+4      	; 0x1028 <_ZN3I2C5writeEPhh+0xe0>
    1024:	e8 81       	ld	r30, Y
    1026:	c2 cf       	rjmp	.-124    	; 0xfac <_ZN3I2C5writeEPhh+0x64>
    1028:	df 91       	pop	r29
    102a:	cf 91       	pop	r28
    102c:	1f 91       	pop	r17
    102e:	0f 91       	pop	r16
    1030:	ff 90       	pop	r15
    1032:	ef 90       	pop	r14
    1034:	df 90       	pop	r13
    1036:	cf 90       	pop	r12
    1038:	bf 90       	pop	r11
    103a:	af 90       	pop	r10
    103c:	9f 90       	pop	r9
    103e:	08 95       	ret

00001040 <_ZN3I2C16verify_data_readEv>:
    1040:	20 91 bc 00 	lds	r18, 0x00BC	; 0x8000bc <__TEXT_REGION_LENGTH__+0x7e00bc>
    1044:	22 23       	and	r18, r18
    1046:	fc f4       	brge	.+62     	; 0x1086 <_ZN3I2C16verify_data_readEv+0x46>
    1048:	20 91 bc 00 	lds	r18, 0x00BC	; 0x8000bc <__TEXT_REGION_LENGTH__+0x7e00bc>
    104c:	26 ff       	sbrs	r18, 6
    104e:	03 c0       	rjmp	.+6      	; 0x1056 <_ZN3I2C16verify_data_readEv+0x16>
    1050:	40 e5       	ldi	r20, 0x50	; 80
    1052:	65 e0       	ldi	r22, 0x05	; 5
    1054:	02 c0       	rjmp	.+4      	; 0x105a <_ZN3I2C16verify_data_readEv+0x1a>
    1056:	48 e5       	ldi	r20, 0x58	; 88
    1058:	67 e0       	ldi	r22, 0x07	; 7
    105a:	20 91 b9 00 	lds	r18, 0x00B9	; 0x8000b9 <__TEXT_REGION_LENGTH__+0x7e00b9>
    105e:	28 7f       	andi	r18, 0xF8	; 248
    1060:	30 e0       	ldi	r19, 0x00	; 0
    1062:	50 e0       	ldi	r21, 0x00	; 0
    1064:	24 17       	cp	r18, r20
    1066:	35 07       	cpc	r19, r21
    1068:	69 f4       	brne	.+26     	; 0x1084 <_ZN3I2C16verify_data_readEv+0x44>
    106a:	fc 01       	movw	r30, r24
    106c:	24 85       	ldd	r18, Z+12	; 0x0c
    106e:	31 e0       	ldi	r19, 0x01	; 1
    1070:	32 0f       	add	r19, r18
    1072:	34 87       	std	Z+12, r19	; 0x0c
    1074:	30 91 bb 00 	lds	r19, 0x00BB	; 0x8000bb <__TEXT_REGION_LENGTH__+0x7e00bb>
    1078:	e2 0f       	add	r30, r18
    107a:	f1 1d       	adc	r31, r1
    107c:	32 83       	std	Z+2, r19	; 0x02
    107e:	fc 01       	movw	r30, r24
    1080:	60 83       	st	Z, r22
    1082:	08 95       	ret
    1084:	0a cf       	rjmp	.-492    	; 0xe9a <_ZN3I2C4failEv>
    1086:	08 95       	ret

00001088 <_ZN3I2C4readEPhh>:
    1088:	bf 92       	push	r11
    108a:	cf 92       	push	r12
    108c:	df 92       	push	r13
    108e:	ef 92       	push	r14
    1090:	ff 92       	push	r15
    1092:	0f 93       	push	r16
    1094:	1f 93       	push	r17
    1096:	cf 93       	push	r28
    1098:	df 93       	push	r29
    109a:	ec 01       	movw	r28, r24
    109c:	7b 01       	movw	r14, r22
    109e:	c4 2e       	mov	r12, r20
    10a0:	88 e4       	ldi	r24, 0x48	; 72
    10a2:	80 93 b8 00 	sts	0x00B8, r24	; 0x8000b8 <__TEXT_REGION_LENGTH__+0x7e00b8>
    10a6:	4d 87       	std	Y+13, r20	; 0x0d
    10a8:	1c 86       	std	Y+12, r1	; 0x0c
    10aa:	1e 86       	std	Y+14, r1	; 0x0e
    10ac:	18 82       	st	Y, r1
    10ae:	e0 e0       	ldi	r30, 0x00	; 0
    10b0:	0c eb       	ldi	r16, 0xBC	; 188
    10b2:	10 e0       	ldi	r17, 0x00	; 0
    10b4:	0f 2e       	mov	r0, r31
    10b6:	f4 ee       	ldi	r31, 0xE4	; 228
    10b8:	bf 2e       	mov	r11, r31
    10ba:	f0 2d       	mov	r31, r0
    10bc:	dd 24       	eor	r13, r13
    10be:	d3 94       	inc	r13
    10c0:	03 c0       	rjmp	.+6      	; 0x10c8 <_ZN3I2C4readEPhh+0x40>
    10c2:	e8 81       	ld	r30, Y
    10c4:	e8 30       	cpi	r30, 0x08	; 8
    10c6:	51 f1       	breq	.+84     	; 0x111c <_ZN3I2C4readEPhh+0x94>
    10c8:	8e 85       	ldd	r24, Y+14	; 0x0e
    10ca:	85 30       	cpi	r24, 0x05	; 5
    10cc:	78 f5       	brcc	.+94     	; 0x112c <_ZN3I2C4readEPhh+0xa4>
    10ce:	8e 2f       	mov	r24, r30
    10d0:	90 e0       	ldi	r25, 0x00	; 0
    10d2:	88 30       	cpi	r24, 0x08	; 8
    10d4:	91 05       	cpc	r25, r1
    10d6:	00 f5       	brcc	.+64     	; 0x1118 <_ZN3I2C4readEPhh+0x90>
    10d8:	fc 01       	movw	r30, r24
    10da:	e0 57       	subi	r30, 0x70	; 112
    10dc:	ff 4f       	sbci	r31, 0xFF	; 255
    10de:	0c 94 52 14 	jmp	0x28a4	; 0x28a4 <__tablejump2__>
    10e2:	f8 01       	movw	r30, r16
    10e4:	b0 82       	st	Z, r11
    10e6:	d8 82       	st	Y, r13
    10e8:	ed 2d       	mov	r30, r13
    10ea:	ee cf       	rjmp	.-36     	; 0x10c8 <_ZN3I2C4readEPhh+0x40>
    10ec:	ce 01       	movw	r24, r28
    10ee:	e3 de       	rcall	.-570    	; 0xeb6 <_ZN3I2C12verify_startEv>
    10f0:	e8 cf       	rjmp	.-48     	; 0x10c2 <_ZN3I2C4readEPhh+0x3a>
    10f2:	60 e0       	ldi	r22, 0x00	; 0
    10f4:	ce 01       	movw	r24, r28
    10f6:	a8 de       	rcall	.-688    	; 0xe48 <_ZN3I2C12send_addressENS_9DirectionE>
    10f8:	e4 cf       	rjmp	.-56     	; 0x10c2 <_ZN3I2C4readEPhh+0x3a>
    10fa:	ce 01       	movw	r24, r28
    10fc:	fc de       	rcall	.-520    	; 0xef6 <_ZN3I2C24verify_read_address_sentEv>
    10fe:	e1 cf       	rjmp	.-62     	; 0x10c2 <_ZN3I2C4readEPhh+0x3a>
    1100:	ce 01       	movw	r24, r28
    1102:	b5 de       	rcall	.-662    	; 0xe6e <_ZN3I2C14read_data_byteEv>
    1104:	de cf       	rjmp	.-68     	; 0x10c2 <_ZN3I2C4readEPhh+0x3a>
    1106:	ce 01       	movw	r24, r28
    1108:	9b df       	rcall	.-202    	; 0x1040 <_ZN3I2C16verify_data_readEv>
    110a:	db cf       	rjmp	.-74     	; 0x10c2 <_ZN3I2C4readEPhh+0x3a>
    110c:	84 e9       	ldi	r24, 0x94	; 148
    110e:	80 93 bc 00 	sts	0x00BC, r24	; 0x8000bc <__TEXT_REGION_LENGTH__+0x7e00bc>
    1112:	88 e0       	ldi	r24, 0x08	; 8
    1114:	88 83       	st	Y, r24
    1116:	02 c0       	rjmp	.+4      	; 0x111c <_ZN3I2C4readEPhh+0x94>
    1118:	88 e0       	ldi	r24, 0x08	; 8
    111a:	88 83       	st	Y, r24
    111c:	4c 2d       	mov	r20, r12
    111e:	b7 01       	movw	r22, r14
    1120:	ce 01       	movw	r24, r28
    1122:	02 96       	adiw	r24, 0x02	; 2
    1124:	80 de       	rcall	.-768    	; 0xe26 <_Z10copy_rangePhS_h>
    1126:	81 e0       	ldi	r24, 0x01	; 1
    1128:	90 e0       	ldi	r25, 0x00	; 0
    112a:	02 c0       	rjmp	.+4      	; 0x1130 <_ZN3I2C4readEPhh+0xa8>
    112c:	80 e0       	ldi	r24, 0x00	; 0
    112e:	90 e0       	ldi	r25, 0x00	; 0
    1130:	df 91       	pop	r29
    1132:	cf 91       	pop	r28
    1134:	1f 91       	pop	r17
    1136:	0f 91       	pop	r16
    1138:	ff 90       	pop	r15
    113a:	ef 90       	pop	r14
    113c:	df 90       	pop	r13
    113e:	cf 90       	pop	r12
    1140:	bf 90       	pop	r11
    1142:	08 95       	ret

00001144 <_ZN5I2CIOC1Ev>:
    1144:	fc 01       	movw	r30, r24
    1146:	12 82       	std	Z+2, r1	; 0x02
    1148:	8f ef       	ldi	r24, 0xFF	; 255
    114a:	81 83       	std	Z+1, r24	; 0x01
    114c:	10 82       	st	Z, r1
    114e:	13 82       	std	Z+3, r1	; 0x03
    1150:	08 95       	ret

00001152 <_ZN5I2CIO5beginEh>:
    1152:	cf 93       	push	r28
    1154:	df 93       	push	r29
    1156:	ec 01       	movw	r28, r24
    1158:	6a 83       	std	Y+2, r22	; 0x02
    115a:	8e ea       	ldi	r24, 0xAE	; 174
    115c:	93 e0       	ldi	r25, 0x03	; 3
    115e:	70 de       	rcall	.-800    	; 0xe40 <_ZN3I2C11set_addressEh>
    1160:	41 e0       	ldi	r20, 0x01	; 1
    1162:	be 01       	movw	r22, r28
    1164:	8e ea       	ldi	r24, 0xAE	; 174
    1166:	93 e0       	ldi	r25, 0x03	; 3
    1168:	8f df       	rcall	.-226    	; 0x1088 <_ZN3I2C4readEPhh>
    116a:	88 83       	st	Y, r24
    116c:	81 e0       	ldi	r24, 0x01	; 1
    116e:	90 e0       	ldi	r25, 0x00	; 0
    1170:	df 91       	pop	r29
    1172:	cf 91       	pop	r28
    1174:	08 95       	ret

00001176 <_ZN5I2CIO8portModeEh>:
    1176:	61 11       	cpse	r22, r1
    1178:	04 c0       	rjmp	.+8      	; 0x1182 <_ZN5I2CIO8portModeEh+0xc>
    117a:	2f ef       	ldi	r18, 0xFF	; 255
    117c:	fc 01       	movw	r30, r24
    117e:	21 83       	std	Z+1, r18	; 0x01
    1180:	08 95       	ret
    1182:	fc 01       	movw	r30, r24
    1184:	11 82       	std	Z+1, r1	; 0x01
    1186:	08 95       	ret

00001188 <_ZN5I2CIO5writeEh>:
    1188:	fc 01       	movw	r30, r24
    118a:	21 81       	ldd	r18, Z+1	; 0x01
    118c:	62 2b       	or	r22, r18
    118e:	60 83       	st	Z, r22
    1190:	41 e0       	ldi	r20, 0x01	; 1
    1192:	bc 01       	movw	r22, r24
    1194:	8e ea       	ldi	r24, 0xAE	; 174
    1196:	93 e0       	ldi	r25, 0x03	; 3
    1198:	d7 de       	rcall	.-594    	; 0xf48 <_ZN3I2C5writeEPhh>
    119a:	81 e0       	ldi	r24, 0x01	; 1
    119c:	90 e0       	ldi	r25, 0x00	; 0
    119e:	08 95       	ret

000011a0 <_ZN3LCD15setBacklightPinEh14t_backlightPol>:
    11a0:	08 95       	ret

000011a2 <_ZN3LCD12setBacklightEh>:
    11a2:	08 95       	ret

000011a4 <_ZN3LCD4sendEhh>:
    11a4:	08 95       	ret

000011a6 <_ZN3LCD5writeEh>:
    11a6:	dc 01       	movw	r26, r24
    11a8:	ed 91       	ld	r30, X+
    11aa:	fc 91       	ld	r31, X
    11ac:	00 84       	ldd	r0, Z+8	; 0x08
    11ae:	f1 85       	ldd	r31, Z+9	; 0x09
    11b0:	e0 2d       	mov	r30, r0
    11b2:	41 e0       	ldi	r20, 0x01	; 1
    11b4:	09 95       	icall
    11b6:	81 e0       	ldi	r24, 0x01	; 1
    11b8:	90 e0       	ldi	r25, 0x00	; 0
    11ba:	08 95       	ret

000011bc <_ZN3LCDC1Ev>:
    11bc:	23 e8       	ldi	r18, 0x83	; 131
    11be:	32 e0       	ldi	r19, 0x02	; 2
    11c0:	fc 01       	movw	r30, r24
    11c2:	31 83       	std	Z+1, r19	; 0x01
    11c4:	20 83       	st	Z, r18
    11c6:	08 95       	ret

000011c8 <_ZN3LCD9backlightEv>:
    11c8:	dc 01       	movw	r26, r24
    11ca:	ed 91       	ld	r30, X+
    11cc:	fc 91       	ld	r31, X
    11ce:	04 80       	ldd	r0, Z+4	; 0x04
    11d0:	f5 81       	ldd	r31, Z+5	; 0x05
    11d2:	e0 2d       	mov	r30, r0
    11d4:	6f ef       	ldi	r22, 0xFF	; 255
    11d6:	09 95       	icall
    11d8:	08 95       	ret

000011da <_ZN3LCD7commandEh>:
    11da:	dc 01       	movw	r26, r24
    11dc:	ed 91       	ld	r30, X+
    11de:	fc 91       	ld	r31, X
    11e0:	00 84       	ldd	r0, Z+8	; 0x08
    11e2:	f1 85       	ldd	r31, Z+9	; 0x09
    11e4:	e0 2d       	mov	r30, r0
    11e6:	40 e0       	ldi	r20, 0x00	; 0
    11e8:	09 95       	icall
    11ea:	08 95       	ret

000011ec <_ZN3LCD5clearEv>:
    11ec:	61 e0       	ldi	r22, 0x01	; 1
    11ee:	f5 df       	rcall	.-22     	; 0x11da <_ZN3LCD7commandEh>
    11f0:	8f e3       	ldi	r24, 0x3F	; 63
    11f2:	9f e1       	ldi	r25, 0x1F	; 31
    11f4:	01 97       	sbiw	r24, 0x01	; 1
    11f6:	f1 f7       	brne	.-4      	; 0x11f4 <_ZN3LCD5clearEv+0x8>
    11f8:	00 c0       	rjmp	.+0      	; 0x11fa <_ZN3LCD5clearEv+0xe>
    11fa:	00 00       	nop
    11fc:	08 95       	ret

000011fe <_ZN3LCD9setCursorEhh>:
    11fe:	cf 93       	push	r28
    1200:	df 93       	push	r29
    1202:	cd b7       	in	r28, 0x3d	; 61
    1204:	de b7       	in	r29, 0x3e	; 62
    1206:	28 97       	sbiw	r28, 0x08	; 8
    1208:	0f b6       	in	r0, 0x3f	; 63
    120a:	f8 94       	cli
    120c:	de bf       	out	0x3e, r29	; 62
    120e:	0f be       	out	0x3f, r0	; 63
    1210:	cd bf       	out	0x3d, r28	; 61
    1212:	fc 01       	movw	r30, r24
    1214:	19 82       	std	Y+1, r1	; 0x01
    1216:	80 e4       	ldi	r24, 0x40	; 64
    1218:	8a 83       	std	Y+2, r24	; 0x02
    121a:	94 e1       	ldi	r25, 0x14	; 20
    121c:	9b 83       	std	Y+3, r25	; 0x03
    121e:	94 e5       	ldi	r25, 0x54	; 84
    1220:	9c 83       	std	Y+4, r25	; 0x04
    1222:	1d 82       	std	Y+5, r1	; 0x05
    1224:	8e 83       	std	Y+6, r24	; 0x06
    1226:	80 e1       	ldi	r24, 0x10	; 16
    1228:	8f 83       	std	Y+7, r24	; 0x07
    122a:	80 e5       	ldi	r24, 0x50	; 80
    122c:	88 87       	std	Y+8, r24	; 0x08
    122e:	85 81       	ldd	r24, Z+5	; 0x05
    1230:	48 17       	cp	r20, r24
    1232:	10 f0       	brcs	.+4      	; 0x1238 <_ZN3LCD9setCursorEhh+0x3a>
    1234:	4f ef       	ldi	r20, 0xFF	; 255
    1236:	48 0f       	add	r20, r24
    1238:	96 81       	ldd	r25, Z+6	; 0x06
    123a:	90 31       	cpi	r25, 0x10	; 16
    123c:	61 f4       	brne	.+24     	; 0x1256 <_ZN3LCD9setCursorEhh+0x58>
    123e:	84 30       	cpi	r24, 0x04	; 4
    1240:	51 f4       	brne	.+20     	; 0x1256 <_ZN3LCD9setCursorEhh+0x58>
    1242:	de 01       	movw	r26, r28
    1244:	a4 0f       	add	r26, r20
    1246:	b1 1d       	adc	r27, r1
    1248:	15 96       	adiw	r26, 0x05	; 5
    124a:	8c 91       	ld	r24, X
    124c:	68 0f       	add	r22, r24
    124e:	60 68       	ori	r22, 0x80	; 128
    1250:	cf 01       	movw	r24, r30
    1252:	c3 df       	rcall	.-122    	; 0x11da <_ZN3LCD7commandEh>
    1254:	09 c0       	rjmp	.+18     	; 0x1268 <_ZN3LCD9setCursorEhh+0x6a>
    1256:	de 01       	movw	r26, r28
    1258:	a4 0f       	add	r26, r20
    125a:	b1 1d       	adc	r27, r1
    125c:	11 96       	adiw	r26, 0x01	; 1
    125e:	9c 91       	ld	r25, X
    1260:	69 0f       	add	r22, r25
    1262:	60 68       	ori	r22, 0x80	; 128
    1264:	cf 01       	movw	r24, r30
    1266:	b9 df       	rcall	.-142    	; 0x11da <_ZN3LCD7commandEh>
    1268:	28 96       	adiw	r28, 0x08	; 8
    126a:	0f b6       	in	r0, 0x3f	; 63
    126c:	f8 94       	cli
    126e:	de bf       	out	0x3e, r29	; 62
    1270:	0f be       	out	0x3f, r0	; 63
    1272:	cd bf       	out	0x3d, r28	; 61
    1274:	df 91       	pop	r29
    1276:	cf 91       	pop	r28
    1278:	08 95       	ret

0000127a <_ZN3LCD7displayEv>:
    127a:	fc 01       	movw	r30, r24
    127c:	63 81       	ldd	r22, Z+3	; 0x03
    127e:	26 2f       	mov	r18, r22
    1280:	24 60       	ori	r18, 0x04	; 4
    1282:	23 83       	std	Z+3, r18	; 0x03
    1284:	6c 60       	ori	r22, 0x0C	; 12
    1286:	a9 cf       	rjmp	.-174    	; 0x11da <_ZN3LCD7commandEh>
    1288:	08 95       	ret

0000128a <_ZN3LCD5beginEhhh>:
    128a:	cf 93       	push	r28
    128c:	df 93       	push	r29
    128e:	ec 01       	movw	r28, r24
    1290:	42 30       	cpi	r20, 0x02	; 2
    1292:	18 f0       	brcs	.+6      	; 0x129a <_ZN3LCD5beginEhhh+0x10>
    1294:	8a 81       	ldd	r24, Y+2	; 0x02
    1296:	88 60       	ori	r24, 0x08	; 8
    1298:	8a 83       	std	Y+2, r24	; 0x02
    129a:	4d 83       	std	Y+5, r20	; 0x05
    129c:	6e 83       	std	Y+6, r22	; 0x06
    129e:	22 23       	and	r18, r18
    12a0:	29 f0       	breq	.+10     	; 0x12ac <_ZN3LCD5beginEhhh+0x22>
    12a2:	41 30       	cpi	r20, 0x01	; 1
    12a4:	19 f4       	brne	.+6      	; 0x12ac <_ZN3LCD5beginEhhh+0x22>
    12a6:	8a 81       	ldd	r24, Y+2	; 0x02
    12a8:	84 60       	ori	r24, 0x04	; 4
    12aa:	8a 83       	std	Y+2, r24	; 0x02
    12ac:	2f ef       	ldi	r18, 0xFF	; 255
    12ae:	81 ee       	ldi	r24, 0xE1	; 225
    12b0:	94 e0       	ldi	r25, 0x04	; 4
    12b2:	21 50       	subi	r18, 0x01	; 1
    12b4:	80 40       	sbci	r24, 0x00	; 0
    12b6:	90 40       	sbci	r25, 0x00	; 0
    12b8:	e1 f7       	brne	.-8      	; 0x12b2 <_ZN3LCD5beginEhhh+0x28>
    12ba:	00 c0       	rjmp	.+0      	; 0x12bc <_ZN3LCD5beginEhhh+0x32>
    12bc:	00 00       	nop
    12be:	6a 81       	ldd	r22, Y+2	; 0x02
    12c0:	64 fd       	sbrc	r22, 4
    12c2:	3d c0       	rjmp	.+122    	; 0x133e <_ZN3LCD5beginEhhh+0xb4>
    12c4:	e8 81       	ld	r30, Y
    12c6:	f9 81       	ldd	r31, Y+1	; 0x01
    12c8:	00 84       	ldd	r0, Z+8	; 0x08
    12ca:	f1 85       	ldd	r31, Z+9	; 0x09
    12cc:	e0 2d       	mov	r30, r0
    12ce:	42 e0       	ldi	r20, 0x02	; 2
    12d0:	63 e0       	ldi	r22, 0x03	; 3
    12d2:	ce 01       	movw	r24, r28
    12d4:	09 95       	icall
    12d6:	8f e4       	ldi	r24, 0x4F	; 79
    12d8:	96 e4       	ldi	r25, 0x46	; 70
    12da:	01 97       	sbiw	r24, 0x01	; 1
    12dc:	f1 f7       	brne	.-4      	; 0x12da <_ZN3LCD5beginEhhh+0x50>
    12de:	00 c0       	rjmp	.+0      	; 0x12e0 <_ZN3LCD5beginEhhh+0x56>
    12e0:	00 00       	nop
    12e2:	e8 81       	ld	r30, Y
    12e4:	f9 81       	ldd	r31, Y+1	; 0x01
    12e6:	00 84       	ldd	r0, Z+8	; 0x08
    12e8:	f1 85       	ldd	r31, Z+9	; 0x09
    12ea:	e0 2d       	mov	r30, r0
    12ec:	42 e0       	ldi	r20, 0x02	; 2
    12ee:	63 e0       	ldi	r22, 0x03	; 3
    12f0:	ce 01       	movw	r24, r28
    12f2:	09 95       	icall
    12f4:	87 e5       	ldi	r24, 0x57	; 87
    12f6:	92 e0       	ldi	r25, 0x02	; 2
    12f8:	01 97       	sbiw	r24, 0x01	; 1
    12fa:	f1 f7       	brne	.-4      	; 0x12f8 <_ZN3LCD5beginEhhh+0x6e>
    12fc:	00 c0       	rjmp	.+0      	; 0x12fe <_ZN3LCD5beginEhhh+0x74>
    12fe:	00 00       	nop
    1300:	e8 81       	ld	r30, Y
    1302:	f9 81       	ldd	r31, Y+1	; 0x01
    1304:	00 84       	ldd	r0, Z+8	; 0x08
    1306:	f1 85       	ldd	r31, Z+9	; 0x09
    1308:	e0 2d       	mov	r30, r0
    130a:	42 e0       	ldi	r20, 0x02	; 2
    130c:	63 e0       	ldi	r22, 0x03	; 3
    130e:	ce 01       	movw	r24, r28
    1310:	09 95       	icall
    1312:	87 e5       	ldi	r24, 0x57	; 87
    1314:	92 e0       	ldi	r25, 0x02	; 2
    1316:	01 97       	sbiw	r24, 0x01	; 1
    1318:	f1 f7       	brne	.-4      	; 0x1316 <_ZN3LCD5beginEhhh+0x8c>
    131a:	00 c0       	rjmp	.+0      	; 0x131c <_ZN3LCD5beginEhhh+0x92>
    131c:	00 00       	nop
    131e:	e8 81       	ld	r30, Y
    1320:	f9 81       	ldd	r31, Y+1	; 0x01
    1322:	00 84       	ldd	r0, Z+8	; 0x08
    1324:	f1 85       	ldd	r31, Z+9	; 0x09
    1326:	e0 2d       	mov	r30, r0
    1328:	42 e0       	ldi	r20, 0x02	; 2
    132a:	62 e0       	ldi	r22, 0x02	; 2
    132c:	ce 01       	movw	r24, r28
    132e:	09 95       	icall
    1330:	87 e5       	ldi	r24, 0x57	; 87
    1332:	92 e0       	ldi	r25, 0x02	; 2
    1334:	01 97       	sbiw	r24, 0x01	; 1
    1336:	f1 f7       	brne	.-4      	; 0x1334 <_ZN3LCD5beginEhhh+0xaa>
    1338:	00 c0       	rjmp	.+0      	; 0x133a <_ZN3LCD5beginEhhh+0xb0>
    133a:	00 00       	nop
    133c:	1d c0       	rjmp	.+58     	; 0x1378 <_ZN3LCD5beginEhhh+0xee>
    133e:	60 62       	ori	r22, 0x20	; 32
    1340:	ce 01       	movw	r24, r28
    1342:	4b df       	rcall	.-362    	; 0x11da <_ZN3LCD7commandEh>
    1344:	8f e4       	ldi	r24, 0x4F	; 79
    1346:	96 e4       	ldi	r25, 0x46	; 70
    1348:	01 97       	sbiw	r24, 0x01	; 1
    134a:	f1 f7       	brne	.-4      	; 0x1348 <_ZN3LCD5beginEhhh+0xbe>
    134c:	00 c0       	rjmp	.+0      	; 0x134e <_ZN3LCD5beginEhhh+0xc4>
    134e:	00 00       	nop
    1350:	6a 81       	ldd	r22, Y+2	; 0x02
    1352:	60 62       	ori	r22, 0x20	; 32
    1354:	ce 01       	movw	r24, r28
    1356:	41 df       	rcall	.-382    	; 0x11da <_ZN3LCD7commandEh>
    1358:	87 e5       	ldi	r24, 0x57	; 87
    135a:	92 e0       	ldi	r25, 0x02	; 2
    135c:	01 97       	sbiw	r24, 0x01	; 1
    135e:	f1 f7       	brne	.-4      	; 0x135c <_ZN3LCD5beginEhhh+0xd2>
    1360:	00 c0       	rjmp	.+0      	; 0x1362 <_ZN3LCD5beginEhhh+0xd8>
    1362:	00 00       	nop
    1364:	6a 81       	ldd	r22, Y+2	; 0x02
    1366:	60 62       	ori	r22, 0x20	; 32
    1368:	ce 01       	movw	r24, r28
    136a:	37 df       	rcall	.-402    	; 0x11da <_ZN3LCD7commandEh>
    136c:	87 e5       	ldi	r24, 0x57	; 87
    136e:	92 e0       	ldi	r25, 0x02	; 2
    1370:	01 97       	sbiw	r24, 0x01	; 1
    1372:	f1 f7       	brne	.-4      	; 0x1370 <_ZN3LCD5beginEhhh+0xe6>
    1374:	00 c0       	rjmp	.+0      	; 0x1376 <_ZN3LCD5beginEhhh+0xec>
    1376:	00 00       	nop
    1378:	6a 81       	ldd	r22, Y+2	; 0x02
    137a:	60 62       	ori	r22, 0x20	; 32
    137c:	ce 01       	movw	r24, r28
    137e:	2d df       	rcall	.-422    	; 0x11da <_ZN3LCD7commandEh>
    1380:	8f ee       	ldi	r24, 0xEF	; 239
    1382:	90 e0       	ldi	r25, 0x00	; 0
    1384:	01 97       	sbiw	r24, 0x01	; 1
    1386:	f1 f7       	brne	.-4      	; 0x1384 <_ZN3LCD5beginEhhh+0xfa>
    1388:	00 c0       	rjmp	.+0      	; 0x138a <_ZN3LCD5beginEhhh+0x100>
    138a:	00 00       	nop
    138c:	84 e0       	ldi	r24, 0x04	; 4
    138e:	8b 83       	std	Y+3, r24	; 0x03
    1390:	ce 01       	movw	r24, r28
    1392:	73 df       	rcall	.-282    	; 0x127a <_ZN3LCD7displayEv>
    1394:	ce 01       	movw	r24, r28
    1396:	2a df       	rcall	.-428    	; 0x11ec <_ZN3LCD5clearEv>
    1398:	82 e0       	ldi	r24, 0x02	; 2
    139a:	8c 83       	std	Y+4, r24	; 0x04
    139c:	66 e0       	ldi	r22, 0x06	; 6
    139e:	ce 01       	movw	r24, r28
    13a0:	1c df       	rcall	.-456    	; 0x11da <_ZN3LCD7commandEh>
    13a2:	ce 01       	movw	r24, r28
    13a4:	11 df       	rcall	.-478    	; 0x11c8 <_ZN3LCD9backlightEv>
    13a6:	df 91       	pop	r29
    13a8:	cf 91       	pop	r28
    13aa:	08 95       	ret

000013ac <_ZN3LCD5printEPKc>:
    13ac:	cf 92       	push	r12
    13ae:	df 92       	push	r13
    13b0:	ef 92       	push	r14
    13b2:	ff 92       	push	r15
    13b4:	0f 93       	push	r16
    13b6:	1f 93       	push	r17
    13b8:	cf 93       	push	r28
    13ba:	df 93       	push	r29
    13bc:	8c 01       	movw	r16, r24
    13be:	db 01       	movw	r26, r22
    13c0:	9c 91       	ld	r25, X
    13c2:	99 23       	and	r25, r25
    13c4:	01 f1       	breq	.+64     	; 0x1406 <_ZN3LCD5printEPKc+0x5a>
    13c6:	eb 01       	movw	r28, r22
    13c8:	0f 2e       	mov	r0, r31
    13ca:	f1 e7       	ldi	r31, 0x71	; 113
    13cc:	ef 2e       	mov	r14, r31
    13ce:	f2 e0       	ldi	r31, 0x02	; 2
    13d0:	ff 2e       	mov	r15, r31
    13d2:	f0 2d       	mov	r31, r0
    13d4:	6e 01       	movw	r12, r28
    13d6:	df 93       	push	r29
    13d8:	cf 93       	push	r28
    13da:	ff 92       	push	r15
    13dc:	ef 92       	push	r14
    13de:	0e 94 be 14 	call	0x297c	; 0x297c <printf>
    13e2:	21 96       	adiw	r28, 0x01	; 1
    13e4:	d8 01       	movw	r26, r16
    13e6:	ed 91       	ld	r30, X+
    13e8:	fc 91       	ld	r31, X
    13ea:	06 80       	ldd	r0, Z+6	; 0x06
    13ec:	f7 81       	ldd	r31, Z+7	; 0x07
    13ee:	e0 2d       	mov	r30, r0
    13f0:	d6 01       	movw	r26, r12
    13f2:	6c 91       	ld	r22, X
    13f4:	c8 01       	movw	r24, r16
    13f6:	09 95       	icall
    13f8:	0f 90       	pop	r0
    13fa:	0f 90       	pop	r0
    13fc:	0f 90       	pop	r0
    13fe:	0f 90       	pop	r0
    1400:	88 81       	ld	r24, Y
    1402:	81 11       	cpse	r24, r1
    1404:	e7 cf       	rjmp	.-50     	; 0x13d4 <_ZN3LCD5printEPKc+0x28>
    1406:	df 91       	pop	r29
    1408:	cf 91       	pop	r28
    140a:	1f 91       	pop	r17
    140c:	0f 91       	pop	r16
    140e:	ff 90       	pop	r15
    1410:	ef 90       	pop	r14
    1412:	df 90       	pop	r13
    1414:	cf 90       	pop	r12
    1416:	08 95       	ret

00001418 <_ZN17LiquidCrystal_I2C15setBacklightPinEh14t_backlightPol>:
    1418:	21 e0       	ldi	r18, 0x01	; 1
    141a:	01 c0       	rjmp	.+2      	; 0x141e <_ZN17LiquidCrystal_I2C15setBacklightPinEh14t_backlightPol+0x6>
    141c:	22 0f       	add	r18, r18
    141e:	6a 95       	dec	r22
    1420:	ea f7       	brpl	.-6      	; 0x141c <_ZN17LiquidCrystal_I2C15setBacklightPinEh14t_backlightPol+0x4>
    1422:	dc 01       	movw	r26, r24
    1424:	19 96       	adiw	r26, 0x09	; 9
    1426:	2c 93       	st	X, r18
    1428:	19 97       	sbiw	r26, 0x09	; 9
    142a:	17 96       	adiw	r26, 0x07	; 7
    142c:	4c 93       	st	X, r20
    142e:	17 97       	sbiw	r26, 0x07	; 7
    1430:	ed 91       	ld	r30, X+
    1432:	fc 91       	ld	r31, X
    1434:	04 80       	ldd	r0, Z+4	; 0x04
    1436:	f5 81       	ldd	r31, Z+5	; 0x05
    1438:	e0 2d       	mov	r30, r0
    143a:	60 e0       	ldi	r22, 0x00	; 0
    143c:	09 95       	icall
    143e:	08 95       	ret

00001440 <_ZN17LiquidCrystal_I2C12setBacklightEh>:
    1440:	fc 01       	movw	r30, r24
    1442:	81 85       	ldd	r24, Z+9	; 0x09
    1444:	88 23       	and	r24, r24
    1446:	89 f0       	breq	.+34     	; 0x146a <_ZN17LiquidCrystal_I2C12setBacklightEh+0x2a>
    1448:	97 81       	ldd	r25, Z+7	; 0x07
    144a:	91 11       	cpse	r25, r1
    144c:	03 c0       	rjmp	.+6      	; 0x1454 <_ZN17LiquidCrystal_I2C12setBacklightEh+0x14>
    144e:	61 11       	cpse	r22, r1
    1450:	05 c0       	rjmp	.+10     	; 0x145c <_ZN17LiquidCrystal_I2C12setBacklightEh+0x1c>
    1452:	06 c0       	rjmp	.+12     	; 0x1460 <_ZN17LiquidCrystal_I2C12setBacklightEh+0x20>
    1454:	91 30       	cpi	r25, 0x01	; 1
    1456:	21 f4       	brne	.+8      	; 0x1460 <_ZN17LiquidCrystal_I2C12setBacklightEh+0x20>
    1458:	61 11       	cpse	r22, r1
    145a:	02 c0       	rjmp	.+4      	; 0x1460 <_ZN17LiquidCrystal_I2C12setBacklightEh+0x20>
    145c:	82 87       	std	Z+10, r24	; 0x0a
    145e:	01 c0       	rjmp	.+2      	; 0x1462 <_ZN17LiquidCrystal_I2C12setBacklightEh+0x22>
    1460:	12 86       	std	Z+10, r1	; 0x0a
    1462:	62 85       	ldd	r22, Z+10	; 0x0a
    1464:	cf 01       	movw	r24, r30
    1466:	0b 96       	adiw	r24, 0x0b	; 11
    1468:	8f ce       	rjmp	.-738    	; 0x1188 <_ZN5I2CIO5writeEh>
    146a:	08 95       	ret

0000146c <_ZN17LiquidCrystal_I2CC1Ehhhhhhhh>:
    146c:	6f 92       	push	r6
    146e:	7f 92       	push	r7
    1470:	8f 92       	push	r8
    1472:	af 92       	push	r10
    1474:	cf 92       	push	r12
    1476:	df 92       	push	r13
    1478:	ef 92       	push	r14
    147a:	ff 92       	push	r15
    147c:	0f 93       	push	r16
    147e:	1f 93       	push	r17
    1480:	cf 93       	push	r28
    1482:	df 93       	push	r29
    1484:	cd b7       	in	r28, 0x3d	; 61
    1486:	de b7       	in	r29, 0x3e	; 62
    1488:	3c 01       	movw	r6, r24
    148a:	d6 2e       	mov	r13, r22
    148c:	f4 2e       	mov	r15, r20
    148e:	12 2f       	mov	r17, r18
    1490:	95 de       	rcall	.-726    	; 0x11bc <_ZN3LCDC1Ev>
    1492:	81 e9       	ldi	r24, 0x91	; 145
    1494:	92 e0       	ldi	r25, 0x02	; 2
    1496:	f3 01       	movw	r30, r6
    1498:	91 83       	std	Z+1, r25	; 0x01
    149a:	80 83       	st	Z, r24
    149c:	c3 01       	movw	r24, r6
    149e:	0b 96       	adiw	r24, 0x0b	; 11
    14a0:	51 de       	rcall	.-862    	; 0x1144 <_ZN5I2CIOC1Ev>
    14a2:	f3 01       	movw	r30, r6
    14a4:	d0 86       	std	Z+8, r13	; 0x08
    14a6:	11 86       	std	Z+9, r1	; 0x09
    14a8:	12 86       	std	Z+10, r1	; 0x0a
    14aa:	17 82       	std	Z+7, r1	; 0x07
    14ac:	81 e0       	ldi	r24, 0x01	; 1
    14ae:	98 2f       	mov	r25, r24
    14b0:	01 c0       	rjmp	.+2      	; 0x14b4 <_ZN17LiquidCrystal_I2CC1Ehhhhhhhh+0x48>
    14b2:	99 0f       	add	r25, r25
    14b4:	fa 94       	dec	r15
    14b6:	ea f7       	brpl	.-6      	; 0x14b2 <_ZN17LiquidCrystal_I2CC1Ehhhhhhhh+0x46>
    14b8:	97 87       	std	Z+15, r25	; 0x0f
    14ba:	98 2f       	mov	r25, r24
    14bc:	01 c0       	rjmp	.+2      	; 0x14c0 <_ZN17LiquidCrystal_I2CC1Ehhhhhhhh+0x54>
    14be:	99 0f       	add	r25, r25
    14c0:	1a 95       	dec	r17
    14c2:	ea f7       	brpl	.-6      	; 0x14be <_ZN17LiquidCrystal_I2CC1Ehhhhhhhh+0x52>
    14c4:	90 8b       	std	Z+16, r25	; 0x10
    14c6:	98 2f       	mov	r25, r24
    14c8:	01 c0       	rjmp	.+2      	; 0x14cc <_ZN17LiquidCrystal_I2CC1Ehhhhhhhh+0x60>
    14ca:	99 0f       	add	r25, r25
    14cc:	0a 95       	dec	r16
    14ce:	ea f7       	brpl	.-6      	; 0x14ca <_ZN17LiquidCrystal_I2CC1Ehhhhhhhh+0x5e>
    14d0:	91 8b       	std	Z+17, r25	; 0x11
    14d2:	98 2f       	mov	r25, r24
    14d4:	01 c0       	rjmp	.+2      	; 0x14d8 <_ZN17LiquidCrystal_I2CC1Ehhhhhhhh+0x6c>
    14d6:	99 0f       	add	r25, r25
    14d8:	ea 94       	dec	r14
    14da:	ea f7       	brpl	.-6      	; 0x14d6 <_ZN17LiquidCrystal_I2CC1Ehhhhhhhh+0x6a>
    14dc:	92 8b       	std	Z+18, r25	; 0x12
    14de:	98 2f       	mov	r25, r24
    14e0:	01 c0       	rjmp	.+2      	; 0x14e4 <_ZN17LiquidCrystal_I2CC1Ehhhhhhhh+0x78>
    14e2:	99 0f       	add	r25, r25
    14e4:	ca 94       	dec	r12
    14e6:	ea f7       	brpl	.-6      	; 0x14e2 <_ZN17LiquidCrystal_I2CC1Ehhhhhhhh+0x76>
    14e8:	93 8b       	std	Z+19, r25	; 0x13
    14ea:	98 2f       	mov	r25, r24
    14ec:	01 c0       	rjmp	.+2      	; 0x14f0 <_ZN17LiquidCrystal_I2CC1Ehhhhhhhh+0x84>
    14ee:	99 0f       	add	r25, r25
    14f0:	aa 94       	dec	r10
    14f2:	ea f7       	brpl	.-6      	; 0x14ee <_ZN17LiquidCrystal_I2CC1Ehhhhhhhh+0x82>
    14f4:	94 8b       	std	Z+20, r25	; 0x14
    14f6:	01 c0       	rjmp	.+2      	; 0x14fa <_ZN17LiquidCrystal_I2CC1Ehhhhhhhh+0x8e>
    14f8:	88 0f       	add	r24, r24
    14fa:	8a 94       	dec	r8
    14fc:	ea f7       	brpl	.-6      	; 0x14f8 <_ZN17LiquidCrystal_I2CC1Ehhhhhhhh+0x8c>
    14fe:	85 8b       	std	Z+21, r24	; 0x15
    1500:	df 91       	pop	r29
    1502:	cf 91       	pop	r28
    1504:	1f 91       	pop	r17
    1506:	0f 91       	pop	r16
    1508:	ff 90       	pop	r15
    150a:	ef 90       	pop	r14
    150c:	df 90       	pop	r13
    150e:	cf 90       	pop	r12
    1510:	af 90       	pop	r10
    1512:	8f 90       	pop	r8
    1514:	7f 90       	pop	r7
    1516:	6f 90       	pop	r6
    1518:	08 95       	ret

0000151a <_ZN17LiquidCrystal_I2C4initEv>:
    151a:	0f 93       	push	r16
    151c:	1f 93       	push	r17
    151e:	cf 93       	push	r28
    1520:	df 93       	push	r29
    1522:	ec 01       	movw	r28, r24
    1524:	8c 01       	movw	r16, r24
    1526:	05 5f       	subi	r16, 0xF5	; 245
    1528:	1f 4f       	sbci	r17, 0xFF	; 255
    152a:	68 85       	ldd	r22, Y+8	; 0x08
    152c:	c8 01       	movw	r24, r16
    152e:	11 de       	rcall	.-990    	; 0x1152 <_ZN5I2CIO5beginEh>
    1530:	01 97       	sbiw	r24, 0x01	; 1
    1532:	51 f4       	brne	.+20     	; 0x1548 <_ZN17LiquidCrystal_I2C4initEv+0x2e>
    1534:	61 e0       	ldi	r22, 0x01	; 1
    1536:	c8 01       	movw	r24, r16
    1538:	1e de       	rcall	.-964    	; 0x1176 <_ZN5I2CIO8portModeEh>
    153a:	1a 82       	std	Y+2, r1	; 0x02
    153c:	60 e0       	ldi	r22, 0x00	; 0
    153e:	c8 01       	movw	r24, r16
    1540:	23 de       	rcall	.-954    	; 0x1188 <_ZN5I2CIO5writeEh>
    1542:	81 e0       	ldi	r24, 0x01	; 1
    1544:	90 e0       	ldi	r25, 0x00	; 0
    1546:	02 c0       	rjmp	.+4      	; 0x154c <_ZN17LiquidCrystal_I2C4initEv+0x32>
    1548:	80 e0       	ldi	r24, 0x00	; 0
    154a:	90 e0       	ldi	r25, 0x00	; 0
    154c:	df 91       	pop	r29
    154e:	cf 91       	pop	r28
    1550:	1f 91       	pop	r17
    1552:	0f 91       	pop	r16
    1554:	08 95       	ret

00001556 <_ZN17LiquidCrystal_I2C11pulseEnableEh>:
    1556:	ef 92       	push	r14
    1558:	ff 92       	push	r15
    155a:	0f 93       	push	r16
    155c:	1f 93       	push	r17
    155e:	cf 93       	push	r28
    1560:	8c 01       	movw	r16, r24
    1562:	c6 2f       	mov	r28, r22
    1564:	7c 01       	movw	r14, r24
    1566:	8b e0       	ldi	r24, 0x0B	; 11
    1568:	e8 0e       	add	r14, r24
    156a:	f1 1c       	adc	r15, r1
    156c:	f8 01       	movw	r30, r16
    156e:	67 85       	ldd	r22, Z+15	; 0x0f
    1570:	6c 2b       	or	r22, r28
    1572:	c7 01       	movw	r24, r14
    1574:	09 de       	rcall	.-1006   	; 0x1188 <_ZN5I2CIO5writeEh>
    1576:	f8 01       	movw	r30, r16
    1578:	67 85       	ldd	r22, Z+15	; 0x0f
    157a:	60 95       	com	r22
    157c:	6c 23       	and	r22, r28
    157e:	c7 01       	movw	r24, r14
    1580:	03 de       	rcall	.-1018   	; 0x1188 <_ZN5I2CIO5writeEh>
    1582:	cf 91       	pop	r28
    1584:	1f 91       	pop	r17
    1586:	0f 91       	pop	r16
    1588:	ff 90       	pop	r15
    158a:	ef 90       	pop	r14
    158c:	08 95       	ret

0000158e <_ZN17LiquidCrystal_I2C10write4bitsEhh>:
    158e:	dc 01       	movw	r26, r24
    1590:	fc 01       	movw	r30, r24
    1592:	04 96       	adiw	r24, 0x04	; 4
    1594:	20 e0       	ldi	r18, 0x00	; 0
    1596:	60 ff       	sbrs	r22, 0
    1598:	02 c0       	rjmp	.+4      	; 0x159e <_ZN17LiquidCrystal_I2C10write4bitsEhh+0x10>
    159a:	32 89       	ldd	r19, Z+18	; 0x12
    159c:	23 2b       	or	r18, r19
    159e:	66 95       	lsr	r22
    15a0:	31 96       	adiw	r30, 0x01	; 1
    15a2:	e8 17       	cp	r30, r24
    15a4:	f9 07       	cpc	r31, r25
    15a6:	b9 f7       	brne	.-18     	; 0x1596 <_ZN17LiquidCrystal_I2C10write4bitsEhh+0x8>
    15a8:	41 30       	cpi	r20, 0x01	; 1
    15aa:	19 f4       	brne	.+6      	; 0x15b2 <_ZN17LiquidCrystal_I2C10write4bitsEhh+0x24>
    15ac:	51 96       	adiw	r26, 0x11	; 17
    15ae:	4c 91       	ld	r20, X
    15b0:	51 97       	sbiw	r26, 0x11	; 17
    15b2:	1a 96       	adiw	r26, 0x0a	; 10
    15b4:	9c 91       	ld	r25, X
    15b6:	1a 97       	sbiw	r26, 0x0a	; 10
    15b8:	62 2f       	mov	r22, r18
    15ba:	69 2b       	or	r22, r25
    15bc:	64 2b       	or	r22, r20
    15be:	cd 01       	movw	r24, r26
    15c0:	ca cf       	rjmp	.-108    	; 0x1556 <_ZN17LiquidCrystal_I2C11pulseEnableEh>
    15c2:	08 95       	ret

000015c4 <_ZN17LiquidCrystal_I2C4sendEhh>:
    15c4:	0f 93       	push	r16
    15c6:	1f 93       	push	r17
    15c8:	cf 93       	push	r28
    15ca:	df 93       	push	r29
    15cc:	8c 01       	movw	r16, r24
    15ce:	c6 2f       	mov	r28, r22
    15d0:	d4 2f       	mov	r29, r20
    15d2:	42 30       	cpi	r20, 0x02	; 2
    15d4:	21 f4       	brne	.+8      	; 0x15de <_ZN17LiquidCrystal_I2C4sendEhh+0x1a>
    15d6:	6f 70       	andi	r22, 0x0F	; 15
    15d8:	40 e0       	ldi	r20, 0x00	; 0
    15da:	d9 df       	rcall	.-78     	; 0x158e <_ZN17LiquidCrystal_I2C10write4bitsEhh>
    15dc:	0f c0       	rjmp	.+30     	; 0x15fc <_ZN17LiquidCrystal_I2C4sendEhh+0x38>
    15de:	70 e0       	ldi	r23, 0x00	; 0
    15e0:	75 95       	asr	r23
    15e2:	67 95       	ror	r22
    15e4:	75 95       	asr	r23
    15e6:	67 95       	ror	r22
    15e8:	75 95       	asr	r23
    15ea:	67 95       	ror	r22
    15ec:	75 95       	asr	r23
    15ee:	67 95       	ror	r22
    15f0:	ce df       	rcall	.-100    	; 0x158e <_ZN17LiquidCrystal_I2C10write4bitsEhh>
    15f2:	6c 2f       	mov	r22, r28
    15f4:	6f 70       	andi	r22, 0x0F	; 15
    15f6:	4d 2f       	mov	r20, r29
    15f8:	c8 01       	movw	r24, r16
    15fa:	c9 df       	rcall	.-110    	; 0x158e <_ZN17LiquidCrystal_I2C10write4bitsEhh>
    15fc:	df 91       	pop	r29
    15fe:	cf 91       	pop	r28
    1600:	1f 91       	pop	r17
    1602:	0f 91       	pop	r16
    1604:	08 95       	ret

00001606 <_ZN17LiquidCrystal_I2C5beginEhhh>:
    1606:	ff 92       	push	r15
    1608:	0f 93       	push	r16
    160a:	1f 93       	push	r17
    160c:	cf 93       	push	r28
    160e:	df 93       	push	r29
    1610:	ec 01       	movw	r28, r24
    1612:	16 2f       	mov	r17, r22
    1614:	04 2f       	mov	r16, r20
    1616:	f2 2e       	mov	r15, r18
    1618:	80 df       	rcall	.-256    	; 0x151a <_ZN17LiquidCrystal_I2C4initEv>
    161a:	2f 2d       	mov	r18, r15
    161c:	40 2f       	mov	r20, r16
    161e:	61 2f       	mov	r22, r17
    1620:	ce 01       	movw	r24, r28
    1622:	33 de       	rcall	.-922    	; 0x128a <_ZN3LCD5beginEhhh>
    1624:	df 91       	pop	r29
    1626:	cf 91       	pop	r28
    1628:	1f 91       	pop	r17
    162a:	0f 91       	pop	r16
    162c:	ff 90       	pop	r15
    162e:	08 95       	ret

00001630 <_ZN20Adafruit_LEDBackpack13setBrightnessEh>:
    1630:	60 31       	cpi	r22, 0x10	; 16
    1632:	08 f0       	brcs	.+2      	; 0x1636 <_ZN20Adafruit_LEDBackpack13setBrightnessEh+0x6>
    1634:	6f e0       	ldi	r22, 0x0F	; 15
    1636:	60 6e       	ori	r22, 0xE0	; 224
    1638:	fc 01       	movw	r30, r24
    163a:	60 a3       	std	Z+32, r22	; 0x20
    163c:	bc 01       	movw	r22, r24
    163e:	60 5e       	subi	r22, 0xE0	; 224
    1640:	7f 4f       	sbci	r23, 0xFF	; 255
    1642:	41 e0       	ldi	r20, 0x01	; 1
    1644:	41 96       	adiw	r24, 0x11	; 17
    1646:	80 cc       	rjmp	.-1792   	; 0xf48 <_ZN3I2C5writeEPhh>
    1648:	08 95       	ret

0000164a <_ZN20Adafruit_LEDBackpack9blinkRateEh>:
    164a:	64 30       	cpi	r22, 0x04	; 4
    164c:	08 f0       	brcs	.+2      	; 0x1650 <_ZN20Adafruit_LEDBackpack9blinkRateEh+0x6>
    164e:	60 e0       	ldi	r22, 0x00	; 0
    1650:	66 0f       	add	r22, r22
    1652:	61 68       	ori	r22, 0x81	; 129
    1654:	fc 01       	movw	r30, r24
    1656:	60 a3       	std	Z+32, r22	; 0x20
    1658:	bc 01       	movw	r22, r24
    165a:	60 5e       	subi	r22, 0xE0	; 224
    165c:	7f 4f       	sbci	r23, 0xFF	; 255
    165e:	41 e0       	ldi	r20, 0x01	; 1
    1660:	41 96       	adiw	r24, 0x11	; 17
    1662:	72 cc       	rjmp	.-1820   	; 0xf48 <_ZN3I2C5writeEPhh>
    1664:	08 95       	ret

00001666 <_ZN20Adafruit_LEDBackpack5beginEh>:
    1666:	cf 93       	push	r28
    1668:	df 93       	push	r29
    166a:	ec 01       	movw	r28, r24
    166c:	68 8b       	std	Y+16, r22	; 0x10
    166e:	81 e2       	ldi	r24, 0x21	; 33
    1670:	88 a3       	std	Y+32, r24	; 0x20
    1672:	be 01       	movw	r22, r28
    1674:	60 5e       	subi	r22, 0xE0	; 224
    1676:	7f 4f       	sbci	r23, 0xFF	; 255
    1678:	41 e0       	ldi	r20, 0x01	; 1
    167a:	ce 01       	movw	r24, r28
    167c:	41 96       	adiw	r24, 0x11	; 17
    167e:	64 dc       	rcall	.-1848   	; 0xf48 <_ZN3I2C5writeEPhh>
    1680:	60 e0       	ldi	r22, 0x00	; 0
    1682:	ce 01       	movw	r24, r28
    1684:	e2 df       	rcall	.-60     	; 0x164a <_ZN20Adafruit_LEDBackpack9blinkRateEh>
    1686:	62 e0       	ldi	r22, 0x02	; 2
    1688:	ce 01       	movw	r24, r28
    168a:	d2 df       	rcall	.-92     	; 0x1630 <_ZN20Adafruit_LEDBackpack13setBrightnessEh>
    168c:	df 91       	pop	r29
    168e:	cf 91       	pop	r28
    1690:	08 95       	ret

00001692 <_ZN20Adafruit_LEDBackpack12writeDisplayEv>:
    1692:	dc 01       	movw	r26, r24
    1694:	90 96       	adiw	r26, 0x20	; 32
    1696:	1c 92       	st	X, r1
    1698:	90 97       	sbiw	r26, 0x20	; 32
    169a:	fc 01       	movw	r30, r24
    169c:	ac 01       	movw	r20, r24
    169e:	40 5f       	subi	r20, 0xF0	; 240
    16a0:	5f 4f       	sbci	r21, 0xFF	; 255
    16a2:	20 81       	ld	r18, Z
    16a4:	91 81       	ldd	r25, Z+1	; 0x01
    16a6:	32 96       	adiw	r30, 0x02	; 2
    16a8:	27 8f       	std	Z+31, r18	; 0x1f
    16aa:	90 a3       	std	Z+32, r25	; 0x20
    16ac:	e4 17       	cp	r30, r20
    16ae:	f5 07       	cpc	r31, r21
    16b0:	c1 f7       	brne	.-16     	; 0x16a2 <_ZN20Adafruit_LEDBackpack12writeDisplayEv+0x10>
    16b2:	bd 01       	movw	r22, r26
    16b4:	60 5e       	subi	r22, 0xE0	; 224
    16b6:	7f 4f       	sbci	r23, 0xFF	; 255
    16b8:	41 e1       	ldi	r20, 0x11	; 17
    16ba:	cd 01       	movw	r24, r26
    16bc:	41 96       	adiw	r24, 0x11	; 17
    16be:	44 cc       	rjmp	.-1912   	; 0xf48 <_ZN3I2C5writeEPhh>
    16c0:	08 95       	ret

000016c2 <_ZN17Adafruit_7segmentC1Eh>:
    16c2:	fc 01       	movw	r30, r24
    16c4:	e0 5c       	subi	r30, 0xC0	; 192
    16c6:	ff 4f       	sbci	r31, 0xFF	; 255
    16c8:	10 82       	st	Z, r1
    16ca:	41 96       	adiw	r24, 0x11	; 17
    16cc:	b9 cb       	rjmp	.-2190   	; 0xe40 <_ZN3I2C11set_addressEh>
    16ce:	08 95       	ret

000016d0 <_ZN17Adafruit_7segment13writeDigitNumEhhb>:
    16d0:	65 30       	cpi	r22, 0x05	; 5
    16d2:	98 f4       	brcc	.+38     	; 0x16fa <_ZN17Adafruit_7segment13writeDigitNumEhhb+0x2a>
    16d4:	70 e0       	ldi	r23, 0x00	; 0
    16d6:	66 0f       	add	r22, r22
    16d8:	77 1f       	adc	r23, r23
    16da:	fc 01       	movw	r30, r24
    16dc:	e6 0f       	add	r30, r22
    16de:	f7 1f       	adc	r31, r23
    16e0:	a4 2f       	mov	r26, r20
    16e2:	b0 e0       	ldi	r27, 0x00	; 0
    16e4:	a5 56       	subi	r26, 0x65	; 101
    16e6:	bd 4f       	sbci	r27, 0xFD	; 253
    16e8:	80 e8       	ldi	r24, 0x80	; 128
    16ea:	28 9f       	mul	r18, r24
    16ec:	90 01       	movw	r18, r0
    16ee:	11 24       	eor	r1, r1
    16f0:	8c 91       	ld	r24, X
    16f2:	28 2b       	or	r18, r24
    16f4:	30 e0       	ldi	r19, 0x00	; 0
    16f6:	31 83       	std	Z+1, r19	; 0x01
    16f8:	20 83       	st	Z, r18
    16fa:	08 95       	ret

000016fc <_ZN17Adafruit_7segment5writeEh>:
    16fc:	cf 93       	push	r28
    16fe:	df 93       	push	r29
    1700:	ec 01       	movw	r28, r24
    1702:	6a 30       	cpi	r22, 0x0A	; 10
    1704:	31 f4       	brne	.+12     	; 0x1712 <_ZN17Adafruit_7segment5writeEh+0x16>
    1706:	fc 01       	movw	r30, r24
    1708:	e0 5c       	subi	r30, 0xC0	; 192
    170a:	ff 4f       	sbci	r31, 0xFF	; 255
    170c:	10 82       	st	Z, r1
    170e:	80 e0       	ldi	r24, 0x00	; 0
    1710:	16 c0       	rjmp	.+44     	; 0x173e <_ZN17Adafruit_7segment5writeEh+0x42>
    1712:	6d 30       	cpi	r22, 0x0D	; 13
    1714:	39 f4       	brne	.+14     	; 0x1724 <_ZN17Adafruit_7segment5writeEh+0x28>
    1716:	fc 01       	movw	r30, r24
    1718:	e0 5c       	subi	r30, 0xC0	; 192
    171a:	ff 4f       	sbci	r31, 0xFF	; 255
    171c:	10 82       	st	Z, r1
    171e:	21 e0       	ldi	r18, 0x01	; 1
    1720:	80 e0       	ldi	r24, 0x00	; 0
    1722:	15 c0       	rjmp	.+42     	; 0x174e <_ZN17Adafruit_7segment5writeEh+0x52>
    1724:	40 ed       	ldi	r20, 0xD0	; 208
    1726:	46 0f       	add	r20, r22
    1728:	4a 30       	cpi	r20, 0x0A	; 10
    172a:	40 f4       	brcc	.+16     	; 0x173c <_ZN17Adafruit_7segment5writeEh+0x40>
    172c:	20 e0       	ldi	r18, 0x00	; 0
    172e:	fc 01       	movw	r30, r24
    1730:	e0 5c       	subi	r30, 0xC0	; 192
    1732:	ff 4f       	sbci	r31, 0xFF	; 255
    1734:	60 81       	ld	r22, Z
    1736:	cc df       	rcall	.-104    	; 0x16d0 <_ZN17Adafruit_7segment13writeDigitNumEhhb>
    1738:	81 e0       	ldi	r24, 0x01	; 1
    173a:	01 c0       	rjmp	.+2      	; 0x173e <_ZN17Adafruit_7segment5writeEh+0x42>
    173c:	80 e0       	ldi	r24, 0x00	; 0
    173e:	fe 01       	movw	r30, r28
    1740:	e0 5c       	subi	r30, 0xC0	; 192
    1742:	ff 4f       	sbci	r31, 0xFF	; 255
    1744:	90 81       	ld	r25, Z
    1746:	21 e0       	ldi	r18, 0x01	; 1
    1748:	29 0f       	add	r18, r25
    174a:	22 30       	cpi	r18, 0x02	; 2
    174c:	21 f0       	breq	.+8      	; 0x1756 <_ZN17Adafruit_7segment5writeEh+0x5a>
    174e:	c0 5c       	subi	r28, 0xC0	; 192
    1750:	df 4f       	sbci	r29, 0xFF	; 255
    1752:	28 83       	st	Y, r18
    1754:	04 c0       	rjmp	.+8      	; 0x175e <_ZN17Adafruit_7segment5writeEh+0x62>
    1756:	c0 5c       	subi	r28, 0xC0	; 192
    1758:	df 4f       	sbci	r29, 0xFF	; 255
    175a:	9e 5f       	subi	r25, 0xFE	; 254
    175c:	98 83       	st	Y, r25
    175e:	90 e0       	ldi	r25, 0x00	; 0
    1760:	df 91       	pop	r29
    1762:	cf 91       	pop	r28
    1764:	08 95       	ret

00001766 <_ZN17Adafruit_7segment10printErrorEv>:
    1766:	fc 01       	movw	r30, r24
    1768:	80 e4       	ldi	r24, 0x40	; 64
    176a:	90 e0       	ldi	r25, 0x00	; 0
    176c:	91 83       	std	Z+1, r25	; 0x01
    176e:	80 83       	st	Z, r24
    1770:	93 83       	std	Z+3, r25	; 0x03
    1772:	82 83       	std	Z+2, r24	; 0x02
    1774:	15 82       	std	Z+5, r1	; 0x05
    1776:	14 82       	std	Z+4, r1	; 0x04
    1778:	97 83       	std	Z+7, r25	; 0x07
    177a:	86 83       	std	Z+6, r24	; 0x06
    177c:	91 87       	std	Z+9, r25	; 0x09
    177e:	80 87       	std	Z+8, r24	; 0x08
    1780:	08 95       	ret

00001782 <_ZN17Adafruit_7segment10printFloatEdhh>:
    1782:	2f 92       	push	r2
    1784:	3f 92       	push	r3
    1786:	4f 92       	push	r4
    1788:	5f 92       	push	r5
    178a:	6f 92       	push	r6
    178c:	7f 92       	push	r7
    178e:	8f 92       	push	r8
    1790:	9f 92       	push	r9
    1792:	af 92       	push	r10
    1794:	bf 92       	push	r11
    1796:	cf 92       	push	r12
    1798:	df 92       	push	r13
    179a:	ef 92       	push	r14
    179c:	ff 92       	push	r15
    179e:	0f 93       	push	r16
    17a0:	1f 93       	push	r17
    17a2:	cf 93       	push	r28
    17a4:	df 93       	push	r29
    17a6:	cd b7       	in	r28, 0x3d	; 61
    17a8:	de b7       	in	r29, 0x3e	; 62
    17aa:	2b 97       	sbiw	r28, 0x0b	; 11
    17ac:	0f b6       	in	r0, 0x3f	; 63
    17ae:	f8 94       	cli
    17b0:	de bf       	out	0x3e, r29	; 62
    17b2:	0f be       	out	0x3f, r0	; 63
    17b4:	cd bf       	out	0x3d, r28	; 61
    17b6:	1c 01       	movw	r2, r24
    17b8:	4d 83       	std	Y+5, r20	; 0x05
    17ba:	5e 83       	std	Y+6, r21	; 0x06
    17bc:	6f 83       	std	Y+7, r22	; 0x07
    17be:	78 87       	std	Y+8, r23	; 0x08
    17c0:	2b 87       	std	Y+11, r18	; 0x0b
    17c2:	09 87       	std	Y+9, r16	; 0x09
    17c4:	20 e0       	ldi	r18, 0x00	; 0
    17c6:	30 e0       	ldi	r19, 0x00	; 0
    17c8:	a9 01       	movw	r20, r18
    17ca:	6d 81       	ldd	r22, Y+5	; 0x05
    17cc:	7e 81       	ldd	r23, Y+6	; 0x06
    17ce:	8f 81       	ldd	r24, Y+7	; 0x07
    17d0:	98 85       	ldd	r25, Y+8	; 0x08
    17d2:	8a d6       	rcall	.+3348   	; 0x24e8 <__cmpsf2>
    17d4:	88 23       	and	r24, r24
    17d6:	0c f0       	brlt	.+2      	; 0x17da <_ZN17Adafruit_7segment10printFloatEdhh+0x58>
    17d8:	2e c1       	rjmp	.+604    	; 0x1a36 <_ZN17Adafruit_7segment10printFloatEdhh+0x2b4>
    17da:	8d 81       	ldd	r24, Y+5	; 0x05
    17dc:	9e 81       	ldd	r25, Y+6	; 0x06
    17de:	af 81       	ldd	r26, Y+7	; 0x07
    17e0:	b8 85       	ldd	r27, Y+8	; 0x08
    17e2:	b0 58       	subi	r27, 0x80	; 128
    17e4:	8d 83       	std	Y+5, r24	; 0x05
    17e6:	9e 83       	std	Y+6, r25	; 0x06
    17e8:	af 83       	std	Y+7, r26	; 0x07
    17ea:	b8 87       	std	Y+8, r27	; 0x08
    17ec:	91 e0       	ldi	r25, 0x01	; 1
    17ee:	9a 87       	std	Y+10, r25	; 0x0a
    17f0:	a3 e0       	ldi	r26, 0x03	; 3
    17f2:	a9 83       	std	Y+1, r26	; 0x01
    17f4:	23 c1       	rjmp	.+582    	; 0x1a3c <_ZN17Adafruit_7segment10printFloatEdhh+0x2ba>
    17f6:	c3 01       	movw	r24, r6
    17f8:	b2 01       	movw	r22, r4
    17fa:	10 d7       	rcall	.+3616   	; 0x261c <__floatsisf>
    17fc:	9b 01       	movw	r18, r22
    17fe:	ac 01       	movw	r20, r24
    1800:	c7 01       	movw	r24, r14
    1802:	b6 01       	movw	r22, r12
    1804:	bb d7       	rcall	.+3958   	; 0x277c <__mulsf3>
    1806:	6b 01       	movw	r12, r22
    1808:	7c 01       	movw	r14, r24
    180a:	0f 5f       	subi	r16, 0xFF	; 255
    180c:	1f 4f       	sbci	r17, 0xFF	; 255
    180e:	0a 15       	cp	r16, r10
    1810:	1b 05       	cpc	r17, r11
    1812:	89 f7       	brne	.-30     	; 0x17f6 <_ZN17Adafruit_7segment10printFloatEdhh+0x74>
    1814:	2d 81       	ldd	r18, Y+5	; 0x05
    1816:	3e 81       	ldd	r19, Y+6	; 0x06
    1818:	4f 81       	ldd	r20, Y+7	; 0x07
    181a:	58 85       	ldd	r21, Y+8	; 0x08
    181c:	c7 01       	movw	r24, r14
    181e:	b6 01       	movw	r22, r12
    1820:	ad d7       	rcall	.+3930   	; 0x277c <__mulsf3>
    1822:	20 e0       	ldi	r18, 0x00	; 0
    1824:	30 e0       	ldi	r19, 0x00	; 0
    1826:	40 e0       	ldi	r20, 0x00	; 0
    1828:	5f e3       	ldi	r21, 0x3F	; 63
    182a:	fa d5       	rcall	.+3060   	; 0x2420 <__addsf3>
    182c:	c9 d6       	rcall	.+3474   	; 0x25c0 <__fixunssfsi>
    182e:	2b 01       	movw	r4, r22
    1830:	3c 01       	movw	r6, r24
    1832:	99 81       	ldd	r25, Y+1	; 0x01
    1834:	e9 2f       	mov	r30, r25
    1836:	f0 e0       	ldi	r31, 0x00	; 0
    1838:	1e 16       	cp	r1, r30
    183a:	1f 06       	cpc	r1, r31
    183c:	a4 f0       	brlt	.+40     	; 0x1866 <_ZN17Adafruit_7segment10printFloatEdhh+0xe4>
    183e:	81 2c       	mov	r8, r1
    1840:	91 2c       	mov	r9, r1
    1842:	54 01       	movw	r10, r8
    1844:	83 94       	inc	r8
    1846:	48 14       	cp	r4, r8
    1848:	59 04       	cpc	r5, r9
    184a:	6a 04       	cpc	r6, r10
    184c:	7b 04       	cpc	r7, r11
    184e:	08 f4       	brcc	.+2      	; 0x1852 <_ZN17Adafruit_7segment10printFloatEdhh+0xd0>
    1850:	49 c0       	rjmp	.+146    	; 0x18e4 <_ZN17Adafruit_7segment10printFloatEdhh+0x162>
    1852:	99 85       	ldd	r25, Y+9	; 0x09
    1854:	89 2f       	mov	r24, r25
    1856:	90 e0       	ldi	r25, 0x00	; 0
    1858:	a0 e0       	ldi	r26, 0x00	; 0
    185a:	b0 e0       	ldi	r27, 0x00	; 0
    185c:	89 83       	std	Y+1, r24	; 0x01
    185e:	9a 83       	std	Y+2, r25	; 0x02
    1860:	ab 83       	std	Y+3, r26	; 0x03
    1862:	bc 83       	std	Y+4, r27	; 0x04
    1864:	1e c0       	rjmp	.+60     	; 0x18a2 <_ZN17Adafruit_7segment10printFloatEdhh+0x120>
    1866:	00 e0       	ldi	r16, 0x00	; 0
    1868:	10 e0       	ldi	r17, 0x00	; 0
    186a:	81 2c       	mov	r8, r1
    186c:	91 2c       	mov	r9, r1
    186e:	54 01       	movw	r10, r8
    1870:	83 94       	inc	r8
    1872:	99 85       	ldd	r25, Y+9	; 0x09
    1874:	89 2f       	mov	r24, r25
    1876:	90 e0       	ldi	r25, 0x00	; 0
    1878:	a0 e0       	ldi	r26, 0x00	; 0
    187a:	b0 e0       	ldi	r27, 0x00	; 0
    187c:	89 83       	std	Y+1, r24	; 0x01
    187e:	9a 83       	std	Y+2, r25	; 0x02
    1880:	ab 83       	std	Y+3, r26	; 0x03
    1882:	bc 83       	std	Y+4, r27	; 0x04
    1884:	a5 01       	movw	r20, r10
    1886:	94 01       	movw	r18, r8
    1888:	69 81       	ldd	r22, Y+1	; 0x01
    188a:	7a 81       	ldd	r23, Y+2	; 0x02
    188c:	8b 81       	ldd	r24, Y+3	; 0x03
    188e:	9c 81       	ldd	r25, Y+4	; 0x04
    1890:	d8 d7       	rcall	.+4016   	; 0x2842 <__mulsi3>
    1892:	4b 01       	movw	r8, r22
    1894:	5c 01       	movw	r10, r24
    1896:	0f 5f       	subi	r16, 0xFF	; 255
    1898:	1f 4f       	sbci	r17, 0xFF	; 255
    189a:	0e 17       	cp	r16, r30
    189c:	1f 07       	cpc	r17, r31
    189e:	94 f3       	brlt	.-28     	; 0x1884 <_ZN17Adafruit_7segment10printFloatEdhh+0x102>
    18a0:	d2 cf       	rjmp	.-92     	; 0x1846 <_ZN17Adafruit_7segment10printFloatEdhh+0xc4>
    18a2:	8b 85       	ldd	r24, Y+11	; 0x0b
    18a4:	81 50       	subi	r24, 0x01	; 1
    18a6:	8b 87       	std	Y+11, r24	; 0x0b
    18a8:	69 81       	ldd	r22, Y+1	; 0x01
    18aa:	7a 81       	ldd	r23, Y+2	; 0x02
    18ac:	8b 81       	ldd	r24, Y+3	; 0x03
    18ae:	9c 81       	ldd	r25, Y+4	; 0x04
    18b0:	b5 d6       	rcall	.+3434   	; 0x261c <__floatsisf>
    18b2:	9b 01       	movw	r18, r22
    18b4:	ac 01       	movw	r20, r24
    18b6:	c7 01       	movw	r24, r14
    18b8:	b6 01       	movw	r22, r12
    18ba:	1a d6       	rcall	.+3124   	; 0x24f0 <__divsf3>
    18bc:	6b 01       	movw	r12, r22
    18be:	7c 01       	movw	r14, r24
    18c0:	2d 81       	ldd	r18, Y+5	; 0x05
    18c2:	3e 81       	ldd	r19, Y+6	; 0x06
    18c4:	4f 81       	ldd	r20, Y+7	; 0x07
    18c6:	58 85       	ldd	r21, Y+8	; 0x08
    18c8:	59 d7       	rcall	.+3762   	; 0x277c <__mulsf3>
    18ca:	20 e0       	ldi	r18, 0x00	; 0
    18cc:	30 e0       	ldi	r19, 0x00	; 0
    18ce:	40 e0       	ldi	r20, 0x00	; 0
    18d0:	5f e3       	ldi	r21, 0x3F	; 63
    18d2:	a6 d5       	rcall	.+2892   	; 0x2420 <__addsf3>
    18d4:	75 d6       	rcall	.+3306   	; 0x25c0 <__fixunssfsi>
    18d6:	2b 01       	movw	r4, r22
    18d8:	3c 01       	movw	r6, r24
    18da:	68 15       	cp	r22, r8
    18dc:	79 05       	cpc	r23, r9
    18de:	8a 05       	cpc	r24, r10
    18e0:	9b 05       	cpc	r25, r11
    18e2:	f8 f6       	brcc	.-66     	; 0x18a2 <_ZN17Adafruit_7segment10printFloatEdhh+0x120>
    18e4:	20 e0       	ldi	r18, 0x00	; 0
    18e6:	30 e0       	ldi	r19, 0x00	; 0
    18e8:	40 e8       	ldi	r20, 0x80	; 128
    18ea:	5f e3       	ldi	r21, 0x3F	; 63
    18ec:	c7 01       	movw	r24, r14
    18ee:	b6 01       	movw	r22, r12
    18f0:	fb d5       	rcall	.+3062   	; 0x24e8 <__cmpsf2>
    18f2:	88 23       	and	r24, r24
    18f4:	1c f4       	brge	.+6      	; 0x18fc <_ZN17Adafruit_7segment10printFloatEdhh+0x17a>
    18f6:	c1 01       	movw	r24, r2
    18f8:	36 df       	rcall	.-404    	; 0x1766 <_ZN17Adafruit_7segment10printErrorEv>
    18fa:	b6 c0       	rjmp	.+364    	; 0x1a68 <_ZN17Adafruit_7segment10printFloatEdhh+0x2e6>
    18fc:	41 14       	cp	r4, r1
    18fe:	51 04       	cpc	r5, r1
    1900:	61 04       	cpc	r6, r1
    1902:	71 04       	cpc	r7, r1
    1904:	29 f4       	brne	.+10     	; 0x1910 <_ZN17Adafruit_7segment10printFloatEdhh+0x18e>
    1906:	46 c0       	rjmp	.+140    	; 0x1994 <_ZN17Adafruit_7segment10printFloatEdhh+0x212>
    1908:	ab 85       	ldd	r26, Y+11	; 0x0b
    190a:	a1 17       	cp	r26, r17
    190c:	60 f4       	brcc	.+24     	; 0x1926 <_ZN17Adafruit_7segment10printFloatEdhh+0x1a4>
    190e:	4d c0       	rjmp	.+154    	; 0x19aa <_ZN17Adafruit_7segment10printFloatEdhh+0x228>
    1910:	10 e0       	ldi	r17, 0x00	; 0
    1912:	84 e0       	ldi	r24, 0x04	; 4
    1914:	99 24       	eor	r9, r9
    1916:	93 94       	inc	r9
    1918:	a1 2c       	mov	r10, r1
    191a:	99 85       	ldd	r25, Y+9	; 0x09
    191c:	c9 2e       	mov	r12, r25
    191e:	d1 2c       	mov	r13, r1
    1920:	e1 2c       	mov	r14, r1
    1922:	f1 2c       	mov	r15, r1
    1924:	89 83       	std	Y+1, r24	; 0x01
    1926:	bb 85       	ldd	r27, Y+11	; 0x0b
    1928:	bb 23       	and	r27, r27
    192a:	29 f0       	breq	.+10     	; 0x1936 <_ZN17Adafruit_7segment10printFloatEdhh+0x1b4>
    192c:	09 2d       	mov	r16, r9
    192e:	b1 17       	cp	r27, r17
    1930:	19 f0       	breq	.+6      	; 0x1938 <_ZN17Adafruit_7segment10printFloatEdhh+0x1b6>
    1932:	0a 2d       	mov	r16, r10
    1934:	01 c0       	rjmp	.+2      	; 0x1938 <_ZN17Adafruit_7segment10printFloatEdhh+0x1b6>
    1936:	0a 2d       	mov	r16, r10
    1938:	b9 80       	ldd	r11, Y+1	; 0x01
    193a:	8b 2d       	mov	r24, r11
    193c:	81 50       	subi	r24, 0x01	; 1
    193e:	89 83       	std	Y+1, r24	; 0x01
    1940:	88 2e       	mov	r8, r24
    1942:	c3 01       	movw	r24, r6
    1944:	b2 01       	movw	r22, r4
    1946:	a7 01       	movw	r20, r14
    1948:	96 01       	movw	r18, r12
    194a:	8a d7       	rcall	.+3860   	; 0x2860 <__udivmodsi4>
    194c:	46 2f       	mov	r20, r22
    194e:	20 2f       	mov	r18, r16
    1950:	6b 2d       	mov	r22, r11
    1952:	c1 01       	movw	r24, r2
    1954:	bd de       	rcall	.-646    	; 0x16d0 <_ZN17Adafruit_7segment13writeDigitNumEhhb>
    1956:	99 81       	ldd	r25, Y+1	; 0x01
    1958:	92 30       	cpi	r25, 0x02	; 2
    195a:	71 f4       	brne	.+28     	; 0x1978 <_ZN17Adafruit_7segment10printFloatEdhh+0x1f6>
    195c:	ba 94       	dec	r11
    195e:	ba 94       	dec	r11
    1960:	b9 82       	std	Y+1, r11	; 0x01
    1962:	a4 e0       	ldi	r26, 0x04	; 4
    1964:	a8 15       	cp	r26, r8
    1966:	40 f0       	brcs	.+16     	; 0x1978 <_ZN17Adafruit_7segment10printFloatEdhh+0x1f6>
    1968:	e8 2d       	mov	r30, r8
    196a:	f0 e0       	ldi	r31, 0x00	; 0
    196c:	ee 0f       	add	r30, r30
    196e:	ff 1f       	adc	r31, r31
    1970:	e2 0d       	add	r30, r2
    1972:	f3 1d       	adc	r31, r3
    1974:	11 82       	std	Z+1, r1	; 0x01
    1976:	10 82       	st	Z, r1
    1978:	c3 01       	movw	r24, r6
    197a:	b2 01       	movw	r22, r4
    197c:	a7 01       	movw	r20, r14
    197e:	96 01       	movw	r18, r12
    1980:	6f d7       	rcall	.+3806   	; 0x2860 <__udivmodsi4>
    1982:	29 01       	movw	r4, r18
    1984:	3a 01       	movw	r6, r20
    1986:	1f 5f       	subi	r17, 0xFF	; 255
    1988:	23 2b       	or	r18, r19
    198a:	24 2b       	or	r18, r20
    198c:	25 2b       	or	r18, r21
    198e:	09 f4       	brne	.+2      	; 0x1992 <_ZN17Adafruit_7segment10printFloatEdhh+0x210>
    1990:	bb cf       	rjmp	.-138    	; 0x1908 <_ZN17Adafruit_7segment10printFloatEdhh+0x186>
    1992:	c9 cf       	rjmp	.-110    	; 0x1926 <_ZN17Adafruit_7segment10printFloatEdhh+0x1a4>
    1994:	20 e0       	ldi	r18, 0x00	; 0
    1996:	40 e0       	ldi	r20, 0x00	; 0
    1998:	64 e0       	ldi	r22, 0x04	; 4
    199a:	c1 01       	movw	r24, r2
    199c:	99 de       	rcall	.-718    	; 0x16d0 <_ZN17Adafruit_7segment13writeDigitNumEhhb>
    199e:	ba 85       	ldd	r27, Y+10	; 0x0a
    19a0:	b1 11       	cpse	r27, r1
    19a2:	0e c0       	rjmp	.+28     	; 0x19c0 <_ZN17Adafruit_7segment10printFloatEdhh+0x23e>
    19a4:	83 e0       	ldi	r24, 0x03	; 3
    19a6:	89 83       	std	Y+1, r24	; 0x01
    19a8:	1b c0       	rjmp	.+54     	; 0x19e0 <_ZN17Adafruit_7segment10printFloatEdhh+0x25e>
    19aa:	b9 81       	ldd	r27, Y+1	; 0x01
    19ac:	9a 85       	ldd	r25, Y+10	; 0x0a
    19ae:	99 23       	and	r25, r25
    19b0:	99 f0       	breq	.+38     	; 0x19d8 <_ZN17Adafruit_7segment10printFloatEdhh+0x256>
    19b2:	eb 2f       	mov	r30, r27
    19b4:	ab 2f       	mov	r26, r27
    19b6:	a1 50       	subi	r26, 0x01	; 1
    19b8:	a9 83       	std	Y+1, r26	; 0x01
    19ba:	b5 30       	cpi	r27, 0x05	; 5
    19bc:	68 f4       	brcc	.+26     	; 0x19d8 <_ZN17Adafruit_7segment10printFloatEdhh+0x256>
    19be:	03 c0       	rjmp	.+6      	; 0x19c6 <_ZN17Adafruit_7segment10printFloatEdhh+0x244>
    19c0:	b2 e0       	ldi	r27, 0x02	; 2
    19c2:	b9 83       	std	Y+1, r27	; 0x01
    19c4:	e3 e0       	ldi	r30, 0x03	; 3
    19c6:	f0 e0       	ldi	r31, 0x00	; 0
    19c8:	ee 0f       	add	r30, r30
    19ca:	ff 1f       	adc	r31, r31
    19cc:	e2 0d       	add	r30, r2
    19ce:	f3 1d       	adc	r31, r3
    19d0:	80 e4       	ldi	r24, 0x40	; 64
    19d2:	90 e0       	ldi	r25, 0x00	; 0
    19d4:	91 83       	std	Z+1, r25	; 0x01
    19d6:	80 83       	st	Z, r24
    19d8:	89 81       	ldd	r24, Y+1	; 0x01
    19da:	88 23       	and	r24, r24
    19dc:	0c f4       	brge	.+2      	; 0x19e0 <_ZN17Adafruit_7segment10printFloatEdhh+0x25e>
    19de:	44 c0       	rjmp	.+136    	; 0x1a68 <_ZN17Adafruit_7segment10printFloatEdhh+0x2e6>
    19e0:	06 c0       	rjmp	.+12     	; 0x19ee <_ZN17Adafruit_7segment10printFloatEdhh+0x26c>
    19e2:	a9 81       	ldd	r26, Y+1	; 0x01
    19e4:	a1 50       	subi	r26, 0x01	; 1
    19e6:	a9 83       	std	Y+1, r26	; 0x01
    19e8:	aa 23       	and	r26, r26
    19ea:	0c f4       	brge	.+2      	; 0x19ee <_ZN17Adafruit_7segment10printFloatEdhh+0x26c>
    19ec:	3d c0       	rjmp	.+122    	; 0x1a68 <_ZN17Adafruit_7segment10printFloatEdhh+0x2e6>
    19ee:	b9 81       	ldd	r27, Y+1	; 0x01
    19f0:	b5 30       	cpi	r27, 0x05	; 5
    19f2:	b8 f7       	brcc	.-18     	; 0x19e2 <_ZN17Adafruit_7segment10printFloatEdhh+0x260>
    19f4:	eb 2f       	mov	r30, r27
    19f6:	f0 e0       	ldi	r31, 0x00	; 0
    19f8:	ee 0f       	add	r30, r30
    19fa:	ff 1f       	adc	r31, r31
    19fc:	e2 0d       	add	r30, r2
    19fe:	f3 1d       	adc	r31, r3
    1a00:	11 82       	std	Z+1, r1	; 0x01
    1a02:	10 82       	st	Z, r1
    1a04:	ee cf       	rjmp	.-36     	; 0x19e2 <_ZN17Adafruit_7segment10printFloatEdhh+0x260>
    1a06:	20 e0       	ldi	r18, 0x00	; 0
    1a08:	30 e0       	ldi	r19, 0x00	; 0
    1a0a:	40 e0       	ldi	r20, 0x00	; 0
    1a0c:	5f e3       	ldi	r21, 0x3F	; 63
    1a0e:	6d 81       	ldd	r22, Y+5	; 0x05
    1a10:	7e 81       	ldd	r23, Y+6	; 0x06
    1a12:	8f 81       	ldd	r24, Y+7	; 0x07
    1a14:	98 85       	ldd	r25, Y+8	; 0x08
    1a16:	04 d5       	rcall	.+2568   	; 0x2420 <__addsf3>
    1a18:	d3 d5       	rcall	.+2982   	; 0x25c0 <__fixunssfsi>
    1a1a:	2b 01       	movw	r4, r22
    1a1c:	3c 01       	movw	r6, r24
    1a1e:	89 81       	ldd	r24, Y+1	; 0x01
    1a20:	e8 2f       	mov	r30, r24
    1a22:	f0 e0       	ldi	r31, 0x00	; 0
    1a24:	0f 2e       	mov	r0, r31
    1a26:	c1 2c       	mov	r12, r1
    1a28:	d1 2c       	mov	r13, r1
    1a2a:	f0 e8       	ldi	r31, 0x80	; 128
    1a2c:	ef 2e       	mov	r14, r31
    1a2e:	ff e3       	ldi	r31, 0x3F	; 63
    1a30:	ff 2e       	mov	r15, r31
    1a32:	f0 2d       	mov	r31, r0
    1a34:	18 cf       	rjmp	.-464    	; 0x1866 <_ZN17Adafruit_7segment10printFloatEdhh+0xe4>
    1a36:	1a 86       	std	Y+10, r1	; 0x0a
    1a38:	94 e0       	ldi	r25, 0x04	; 4
    1a3a:	99 83       	std	Y+1, r25	; 0x01
    1a3c:	ab 85       	ldd	r26, Y+11	; 0x0b
    1a3e:	aa 2e       	mov	r10, r26
    1a40:	b1 2c       	mov	r11, r1
    1a42:	1a 14       	cp	r1, r10
    1a44:	1b 04       	cpc	r1, r11
    1a46:	fc f6       	brge	.-66     	; 0x1a06 <_ZN17Adafruit_7segment10printFloatEdhh+0x284>
    1a48:	00 e0       	ldi	r16, 0x00	; 0
    1a4a:	10 e0       	ldi	r17, 0x00	; 0
    1a4c:	0f 2e       	mov	r0, r31
    1a4e:	c1 2c       	mov	r12, r1
    1a50:	d1 2c       	mov	r13, r1
    1a52:	f0 e8       	ldi	r31, 0x80	; 128
    1a54:	ef 2e       	mov	r14, r31
    1a56:	ff e3       	ldi	r31, 0x3F	; 63
    1a58:	ff 2e       	mov	r15, r31
    1a5a:	f0 2d       	mov	r31, r0
    1a5c:	b9 85       	ldd	r27, Y+9	; 0x09
    1a5e:	4b 2e       	mov	r4, r27
    1a60:	51 2c       	mov	r5, r1
    1a62:	61 2c       	mov	r6, r1
    1a64:	71 2c       	mov	r7, r1
    1a66:	c7 ce       	rjmp	.-626    	; 0x17f6 <_ZN17Adafruit_7segment10printFloatEdhh+0x74>
    1a68:	2b 96       	adiw	r28, 0x0b	; 11
    1a6a:	0f b6       	in	r0, 0x3f	; 63
    1a6c:	f8 94       	cli
    1a6e:	de bf       	out	0x3e, r29	; 62
    1a70:	0f be       	out	0x3f, r0	; 63
    1a72:	cd bf       	out	0x3d, r28	; 61
    1a74:	df 91       	pop	r29
    1a76:	cf 91       	pop	r28
    1a78:	1f 91       	pop	r17
    1a7a:	0f 91       	pop	r16
    1a7c:	ff 90       	pop	r15
    1a7e:	ef 90       	pop	r14
    1a80:	df 90       	pop	r13
    1a82:	cf 90       	pop	r12
    1a84:	bf 90       	pop	r11
    1a86:	af 90       	pop	r10
    1a88:	9f 90       	pop	r9
    1a8a:	8f 90       	pop	r8
    1a8c:	7f 90       	pop	r7
    1a8e:	6f 90       	pop	r6
    1a90:	5f 90       	pop	r5
    1a92:	4f 90       	pop	r4
    1a94:	3f 90       	pop	r3
    1a96:	2f 90       	pop	r2
    1a98:	08 95       	ret

00001a9a <_ZN17Adafruit_7segment11printNumberElh>:
    1a9a:	0f 93       	push	r16
    1a9c:	cf 93       	push	r28
    1a9e:	df 93       	push	r29
    1aa0:	ec 01       	movw	r28, r24
    1aa2:	02 2f       	mov	r16, r18
    1aa4:	cb 01       	movw	r24, r22
    1aa6:	ba 01       	movw	r22, r20
    1aa8:	b9 d5       	rcall	.+2930   	; 0x261c <__floatsisf>
    1aaa:	ab 01       	movw	r20, r22
    1aac:	bc 01       	movw	r22, r24
    1aae:	20 e0       	ldi	r18, 0x00	; 0
    1ab0:	ce 01       	movw	r24, r28
    1ab2:	67 de       	rcall	.-818    	; 0x1782 <_ZN17Adafruit_7segment10printFloatEdhh>
    1ab4:	df 91       	pop	r29
    1ab6:	cf 91       	pop	r28
    1ab8:	0f 91       	pop	r16
    1aba:	08 95       	ret

00001abc <_ZN17Adafruit_7segment5printEmi>:
    1abc:	21 15       	cp	r18, r1
    1abe:	31 05       	cpc	r19, r1
    1ac0:	19 f4       	brne	.+6      	; 0x1ac8 <_ZN17Adafruit_7segment5printEmi+0xc>
    1ac2:	64 2f       	mov	r22, r20
    1ac4:	1b ce       	rjmp	.-970    	; 0x16fc <_ZN17Adafruit_7segment5writeEh>
    1ac6:	08 95       	ret
    1ac8:	e8 cf       	rjmp	.-48     	; 0x1a9a <_ZN17Adafruit_7segment11printNumberElh>
    1aca:	08 95       	ret

00001acc <_ZN17Adafruit_7segment5printEji>:
    1acc:	9a 01       	movw	r18, r20
    1ace:	ab 01       	movw	r20, r22
    1ad0:	60 e0       	ldi	r22, 0x00	; 0
    1ad2:	70 e0       	ldi	r23, 0x00	; 0
    1ad4:	f3 cf       	rjmp	.-26     	; 0x1abc <_ZN17Adafruit_7segment5printEmi>
    1ad6:	08 95       	ret

00001ad8 <main>:

#define F_CPU 16000000UL
#include <util/delay.h>

int main ()
{
    1ad8:	cf 93       	push	r28
    1ada:	df 93       	push	r29
    1adc:	cd b7       	in	r28, 0x3d	; 61
    1ade:	de b7       	in	r29, 0x3e	; 62
    1ae0:	cf 55       	subi	r28, 0x5F	; 95
    1ae2:	d2 40       	sbci	r29, 0x02	; 2
    1ae4:	0f b6       	in	r0, 0x3f	; 63
    1ae6:	f8 94       	cli
    1ae8:	de bf       	out	0x3e, r29	; 62
    1aea:	0f be       	out	0x3f, r0	; 63
    1aec:	cd bf       	out	0x3d, r28	; 61
	#else
		//round up by default
		__ticks_dc = (uint32_t)(ceil(fabs(__tmp)));
	#endif

	__builtin_avr_delay_cycles(__ticks_dc);
    1aee:	2f ef       	ldi	r18, 0xFF	; 255
    1af0:	83 ed       	ldi	r24, 0xD3	; 211
    1af2:	90 e3       	ldi	r25, 0x30	; 48
    1af4:	21 50       	subi	r18, 0x01	; 1
    1af6:	80 40       	sbci	r24, 0x00	; 0
    1af8:	90 40       	sbci	r25, 0x00	; 0
    1afa:	e1 f7       	brne	.-8      	; 0x1af4 <main+0x1c>
    1afc:	00 c0       	rjmp	.+0      	; 0x1afe <main+0x26>
    1afe:	00 00       	nop
#include "../memory/memory.hpp"
#include "../uart/uart_module.hpp"
#include "request.hpp"
#include "../timer/Clock.hpp"

class Communications
    1b00:	ce 01       	movw	r24, r28
    1b02:	04 96       	adiw	r24, 0x04	; 4
    1b04:	0e 94 a0 01 	call	0x340	; 0x340 <_ZN12MessageQueueC1Ev>
    1b08:	ce 01       	movw	r24, r28
    1b0a:	83 56       	subi	r24, 0x63	; 99
    1b0c:	9f 4f       	sbci	r25, 0xFF	; 255
    1b0e:	0e 94 f3 01 	call	0x3e6	; 0x3e6 <_ZN18FastTransferParserC1Ev>
    1b12:	ce 01       	movw	r24, r28
    1b14:	80 53       	subi	r24, 0x30	; 48
    1b16:	9f 4f       	sbci	r25, 0xFF	; 255
    1b18:	e3 d0       	rcall	.+454    	; 0x1ce0 <_ZN6ClocksC1Ev>
  _delay_ms(1000);
  ControlBoxEngine box;
  box.initialize();
    1b1a:	ce 01       	movw	r24, r28
    1b1c:	01 96       	adiw	r24, 0x01	; 1
    1b1e:	0e 94 7e 02 	call	0x4fc	; 0x4fc <_ZN16ControlBoxEngine10initializeEv>
  box.loop();
    1b22:	ce 01       	movw	r24, r28
    1b24:	01 96       	adiw	r24, 0x01	; 1
    1b26:	0e 94 96 02 	call	0x52c	; 0x52c <_ZN16ControlBoxEngine4loopEv>
  return 0;
    1b2a:	80 e0       	ldi	r24, 0x00	; 0
    1b2c:	90 e0       	ldi	r25, 0x00	; 0
    1b2e:	c1 5a       	subi	r28, 0xA1	; 161
    1b30:	dd 4f       	sbci	r29, 0xFD	; 253
    1b32:	0f b6       	in	r0, 0x3f	; 63
    1b34:	f8 94       	cli
    1b36:	de bf       	out	0x3e, r29	; 62
    1b38:	0f be       	out	0x3f, r0	; 63
    1b3a:	cd bf       	out	0x3d, r28	; 61
    1b3c:	df 91       	pop	r29
    1b3e:	cf 91       	pop	r28
    1b40:	08 95       	ret

00001b42 <_ZN6Memory10initializeEv>:
    1b42:	ed eb       	ldi	r30, 0xBD	; 189
    1b44:	f3 e0       	ldi	r31, 0x03	; 3
    1b46:	8d eb       	ldi	r24, 0xBD	; 189
    1b48:	96 e0       	ldi	r25, 0x06	; 6
    1b4a:	11 82       	std	Z+1, r1	; 0x01
    1b4c:	10 82       	st	Z, r1
    1b4e:	13 82       	std	Z+3, r1	; 0x03
    1b50:	12 82       	std	Z+2, r1	; 0x02
    1b52:	15 82       	std	Z+5, r1	; 0x05
    1b54:	14 82       	std	Z+4, r1	; 0x04
    1b56:	36 96       	adiw	r30, 0x06	; 6
    1b58:	e8 17       	cp	r30, r24
    1b5a:	f9 07       	cpc	r31, r25
    1b5c:	b1 f7       	brne	.-20     	; 0x1b4a <_ZN6Memory10initializeEv+0x8>
    1b5e:	08 95       	ret

00001b60 <_ZN6Memory5writeEhj>:
    1b60:	90 e0       	ldi	r25, 0x00	; 0
    1b62:	fc 01       	movw	r30, r24
    1b64:	ee 0f       	add	r30, r30
    1b66:	ff 1f       	adc	r31, r31
    1b68:	e8 0f       	add	r30, r24
    1b6a:	f9 1f       	adc	r31, r25
    1b6c:	ee 0f       	add	r30, r30
    1b6e:	ff 1f       	adc	r31, r31
    1b70:	e3 54       	subi	r30, 0x43	; 67
    1b72:	fc 4f       	sbci	r31, 0xFC	; 252
    1b74:	01 c0       	rjmp	.+2      	; 0x1b78 <_ZN6Memory5writeEhj+0x18>
    1b76:	fc 01       	movw	r30, r24
    1b78:	84 81       	ldd	r24, Z+4	; 0x04
    1b7a:	95 81       	ldd	r25, Z+5	; 0x05
    1b7c:	00 97       	sbiw	r24, 0x00	; 0
    1b7e:	d9 f7       	brne	.-10     	; 0x1b76 <_ZN6Memory5writeEhj+0x16>
    1b80:	30 97       	sbiw	r30, 0x00	; 0
    1b82:	39 f0       	breq	.+14     	; 0x1b92 <_ZN6Memory5writeEhj+0x32>
    1b84:	71 83       	std	Z+1, r23	; 0x01
    1b86:	60 83       	st	Z, r22
    1b88:	02 80       	ldd	r0, Z+2	; 0x02
    1b8a:	f3 81       	ldd	r31, Z+3	; 0x03
    1b8c:	e0 2d       	mov	r30, r0
    1b8e:	30 97       	sbiw	r30, 0x00	; 0
    1b90:	c9 f7       	brne	.-14     	; 0x1b84 <_ZN6Memory5writeEhj+0x24>
    1b92:	08 95       	ret

00001b94 <_ZN6Memory4readEh>:
    1b94:	90 e0       	ldi	r25, 0x00	; 0
    1b96:	fc 01       	movw	r30, r24
    1b98:	ee 0f       	add	r30, r30
    1b9a:	ff 1f       	adc	r31, r31
    1b9c:	e8 0f       	add	r30, r24
    1b9e:	f9 1f       	adc	r31, r25
    1ba0:	ee 0f       	add	r30, r30
    1ba2:	ff 1f       	adc	r31, r31
    1ba4:	e3 54       	subi	r30, 0x43	; 67
    1ba6:	fc 4f       	sbci	r31, 0xFC	; 252
    1ba8:	80 81       	ld	r24, Z
    1baa:	91 81       	ldd	r25, Z+1	; 0x01
    1bac:	08 95       	ret

00001bae <_ZN6Memory13valid_addressEh>:
    1bae:	80 95       	com	r24
    1bb0:	88 1f       	adc	r24, r24
    1bb2:	88 27       	eor	r24, r24
    1bb4:	88 1f       	adc	r24, r24
    1bb6:	08 95       	ret

00001bb8 <_ZN11TouchScreen14assign_objectsEv>:
		if (i >= MAX_ATTEMPTS)
			printf("Fail:!!\r\n");
		return success;
	} // end if
	return false;
} // end send_message()
    1bb8:	fc 01       	movw	r30, r24
    1bba:	36 96       	adiw	r30, 0x06	; 6
    1bbc:	9c 01       	movw	r18, r24
    1bbe:	2a 5f       	subi	r18, 0xFA	; 250
    1bc0:	3e 4f       	sbci	r19, 0xFE	; 254
    1bc2:	11 92       	st	Z+, r1
    1bc4:	11 92       	st	Z+, r1
    1bc6:	e2 17       	cp	r30, r18
    1bc8:	f3 07       	cpc	r31, r19
    1bca:	d9 f7       	brne	.-10     	; 0x1bc2 <_ZN11TouchScreen14assign_objectsEv+0xa>
    1bcc:	20 e0       	ldi	r18, 0x00	; 0
    1bce:	3f e0       	ldi	r19, 0x0F	; 15
    1bd0:	fc 01       	movw	r30, r24
    1bd2:	33 8f       	std	Z+27, r19	; 0x1b
    1bd4:	22 8f       	std	Z+26, r18	; 0x1a
    1bd6:	08 95       	ret

00001bd8 <_ZN11TouchScreen10initializeEP6Memoryj>:
    1bd8:	cf 93       	push	r28
    1bda:	df 93       	push	r29
    1bdc:	ea 01       	movw	r28, r20
    1bde:	fc 01       	movw	r30, r24
    1be0:	11 82       	std	Z+1, r1	; 0x01
    1be2:	10 82       	st	Z, r1
    1be4:	73 83       	std	Z+3, r23	; 0x03
    1be6:	62 83       	std	Z+2, r22	; 0x02
    1be8:	55 83       	std	Z+5, r21	; 0x05
    1bea:	44 83       	std	Z+4, r20	; 0x04
    1bec:	e5 df       	rcall	.-54     	; 0x1bb8 <_ZN11TouchScreen14assign_objectsEv>
    1bee:	c1 30       	cpi	r28, 0x01	; 1
    1bf0:	d1 05       	cpc	r29, r1
    1bf2:	49 f0       	breq	.+18     	; 0x1c06 <_ZN11TouchScreen10initializeEP6Memoryj+0x2e>
    1bf4:	20 f0       	brcs	.+8      	; 0x1bfe <_ZN11TouchScreen10initializeEP6Memoryj+0x26>
    1bf6:	c2 30       	cpi	r28, 0x02	; 2
    1bf8:	d1 05       	cpc	r29, r1
    1bfa:	49 f0       	breq	.+18     	; 0x1c0e <_ZN11TouchScreen10initializeEP6Memoryj+0x36>
    1bfc:	0c c0       	rjmp	.+24     	; 0x1c16 <_ZN11TouchScreen10initializeEP6Memoryj+0x3e>
    1bfe:	87 e6       	ldi	r24, 0x67	; 103
    1c00:	90 e0       	ldi	r25, 0x00	; 0
    1c02:	5b d2       	rcall	.+1206   	; 0x20ba <_Z16uart0_initializej>
    1c04:	0b c0       	rjmp	.+22     	; 0x1c1c <_ZN11TouchScreen10initializeEP6Memoryj+0x44>
    1c06:	87 e6       	ldi	r24, 0x67	; 103
    1c08:	90 e0       	ldi	r25, 0x00	; 0
    1c0a:	c9 d2       	rcall	.+1426   	; 0x219e <_Z16uart1_initializej>
    1c0c:	07 c0       	rjmp	.+14     	; 0x1c1c <_ZN11TouchScreen10initializeEP6Memoryj+0x44>
    1c0e:	87 e6       	ldi	r24, 0x67	; 103
    1c10:	90 e0       	ldi	r25, 0x00	; 0
    1c12:	56 d3       	rcall	.+1708   	; 0x22c0 <_Z16uart2_initializej>
    1c14:	03 c0       	rjmp	.+6      	; 0x1c1c <_ZN11TouchScreen10initializeEP6Memoryj+0x44>
    1c16:	87 e6       	ldi	r24, 0x67	; 103
    1c18:	90 e0       	ldi	r25, 0x00	; 0
    1c1a:	ed d3       	rcall	.+2010   	; 0x23f6 <_Z16uart3_initializej>
    1c1c:	df 93       	push	r29
    1c1e:	cf 93       	push	r28
    1c20:	8b ea       	ldi	r24, 0xAB	; 171
    1c22:	92 e0       	ldi	r25, 0x02	; 2
    1c24:	9f 93       	push	r25
    1c26:	8f 93       	push	r24
    1c28:	a9 d6       	rcall	.+3410   	; 0x297c <printf>
    1c2a:	0f 90       	pop	r0
    1c2c:	0f 90       	pop	r0
    1c2e:	0f 90       	pop	r0
    1c30:	0f 90       	pop	r0
    1c32:	df 91       	pop	r29
    1c34:	cf 91       	pop	r28
    1c36:	08 95       	ret

00001c38 <_ZNK11TouchScreen13update_objectEj>:
    1c38:	9b 01       	movw	r18, r22
    1c3a:	2d 5f       	subi	r18, 0xFD	; 253
    1c3c:	3f 4f       	sbci	r19, 0xFF	; 255
    1c3e:	22 0f       	add	r18, r18
    1c40:	33 1f       	adc	r19, r19
    1c42:	82 0f       	add	r24, r18
    1c44:	93 1f       	adc	r25, r19
    1c46:	fc 01       	movw	r30, r24
    1c48:	80 81       	ld	r24, Z
    1c4a:	91 81       	ldd	r25, Z+1	; 0x01
    1c4c:	89 2b       	or	r24, r25
    1c4e:	11 f0       	breq	.+4      	; 0x1c54 <_ZNK11TouchScreen13update_objectEj+0x1c>
    1c50:	cb 01       	movw	r24, r22
    1c52:	a0 cf       	rjmp	.-192    	; 0x1b94 <_ZN6Memory4readEh>
    1c54:	08 95       	ret

00001c56 <_ZNK11TouchScreen7refreshEv>:
    1c56:	0f 93       	push	r16
    1c58:	1f 93       	push	r17
    1c5a:	cf 93       	push	r28
    1c5c:	df 93       	push	r29
    1c5e:	8c 01       	movw	r16, r24
    1c60:	8f eb       	ldi	r24, 0xBF	; 191
    1c62:	96 e0       	ldi	r25, 0x06	; 6
    1c64:	8a d0       	rcall	.+276    	; 0x1d7a <_ZN6Clocks6isDoneEv>
    1c66:	88 23       	and	r24, r24
    1c68:	e9 f0       	breq	.+58     	; 0x1ca4 <_ZNK11TouchScreen7refreshEv+0x4e>
    1c6a:	80 91 bd 06 	lds	r24, 0x06BD	; 0x8006bd <_ZZNK11TouchScreen7refreshEvE5count>
    1c6e:	90 91 be 06 	lds	r25, 0x06BE	; 0x8006be <_ZZNK11TouchScreen7refreshEvE5count+0x1>
    1c72:	8a 30       	cpi	r24, 0x0A	; 10
    1c74:	91 05       	cpc	r25, r1
    1c76:	2c f0       	brlt	.+10     	; 0x1c82 <_ZNK11TouchScreen7refreshEv+0x2c>
    1c78:	10 92 be 06 	sts	0x06BE, r1	; 0x8006be <_ZZNK11TouchScreen7refreshEvE5count+0x1>
    1c7c:	10 92 bd 06 	sts	0x06BD, r1	; 0x8006bd <_ZZNK11TouchScreen7refreshEvE5count>
    1c80:	11 c0       	rjmp	.+34     	; 0x1ca4 <_ZNK11TouchScreen7refreshEv+0x4e>
    1c82:	01 96       	adiw	r24, 0x01	; 1
    1c84:	90 93 be 06 	sts	0x06BE, r25	; 0x8006be <_ZZNK11TouchScreen7refreshEvE5count+0x1>
    1c88:	80 93 bd 06 	sts	0x06BD, r24	; 0x8006bd <_ZZNK11TouchScreen7refreshEvE5count>
    1c8c:	c0 e0       	ldi	r28, 0x00	; 0
    1c8e:	d0 e0       	ldi	r29, 0x00	; 0
    1c90:	be 01       	movw	r22, r28
    1c92:	c8 01       	movw	r24, r16
    1c94:	d1 df       	rcall	.-94     	; 0x1c38 <_ZNK11TouchScreen13update_objectEj>
    1c96:	21 96       	adiw	r28, 0x01	; 1
    1c98:	c0 38       	cpi	r28, 0x80	; 128
    1c9a:	d1 05       	cpc	r29, r1
    1c9c:	c9 f7       	brne	.-14     	; 0x1c90 <_ZNK11TouchScreen7refreshEv+0x3a>
    1c9e:	8f eb       	ldi	r24, 0xBF	; 191
    1ca0:	96 e0       	ldi	r25, 0x06	; 6
    1ca2:	0d d0       	rcall	.+26     	; 0x1cbe <_ZN6Clocks5resetEv>
    1ca4:	df 91       	pop	r29
    1ca6:	cf 91       	pop	r28
    1ca8:	1f 91       	pop	r17
    1caa:	0f 91       	pop	r16
    1cac:	08 95       	ret

00001cae <_GLOBAL__sub_I__ZN11TouchScreen10initializeEP6Memoryj>:
//	objects[JOYSTICK_RIGHT_Y] = Gauge4;
//  objects[SLIDER_RIGHT] = Gauge5;
}

/*----------------------------- Updating Screen ------------------------------*/
Clocks screenRefreshTimer(500);
    1cae:	44 ef       	ldi	r20, 0xF4	; 244
    1cb0:	51 e0       	ldi	r21, 0x01	; 1
    1cb2:	60 e0       	ldi	r22, 0x00	; 0
    1cb4:	70 e0       	ldi	r23, 0x00	; 0
    1cb6:	8f eb       	ldi	r24, 0xBF	; 191
    1cb8:	96 e0       	ldi	r25, 0x06	; 6
    1cba:	2c c0       	rjmp	.+88     	; 0x1d14 <_ZN6ClocksC1El>
    1cbc:	08 95       	ret

00001cbe <_ZN6Clocks5resetEv>:
    1cbe:	cf 93       	push	r28
    1cc0:	df 93       	push	r29
    1cc2:	ec 01       	movw	r28, r24
    1cc4:	8b ec       	ldi	r24, 0xCB	; 203
    1cc6:	96 e0       	ldi	r25, 0x06	; 6
    1cc8:	3b d1       	rcall	.+630    	; 0x1f40 <_ZN12SimpleTimer16millisEv>
    1cca:	6c 83       	std	Y+4, r22	; 0x04
    1ccc:	7d 83       	std	Y+5, r23	; 0x05
    1cce:	8e 83       	std	Y+6, r24	; 0x06
    1cd0:	9f 83       	std	Y+7, r25	; 0x07
    1cd2:	68 83       	st	Y, r22
    1cd4:	79 83       	std	Y+1, r23	; 0x01
    1cd6:	8a 83       	std	Y+2, r24	; 0x02
    1cd8:	9b 83       	std	Y+3, r25	; 0x03
    1cda:	df 91       	pop	r29
    1cdc:	cf 91       	pop	r28
    1cde:	08 95       	ret

00001ce0 <_ZN6ClocksC1Ev>:
    1ce0:	cf 93       	push	r28
    1ce2:	df 93       	push	r29
    1ce4:	ec 01       	movw	r28, r24
    1ce6:	41 e0       	ldi	r20, 0x01	; 1
    1ce8:	50 e0       	ldi	r21, 0x00	; 0
    1cea:	60 e0       	ldi	r22, 0x00	; 0
    1cec:	70 e0       	ldi	r23, 0x00	; 0
    1cee:	8b ec       	ldi	r24, 0xCB	; 203
    1cf0:	96 e0       	ldi	r25, 0x06	; 6
    1cf2:	3c d1       	rcall	.+632    	; 0x1f6c <_ZN12SimpleTimer112set_durationEm>
    1cf4:	8b ec       	ldi	r24, 0xCB	; 203
    1cf6:	96 e0       	ldi	r25, 0x06	; 6
    1cf8:	2c d1       	rcall	.+600    	; 0x1f52 <_ZN12SimpleTimer15startEv>
    1cfa:	82 e3       	ldi	r24, 0x32	; 50
    1cfc:	90 e0       	ldi	r25, 0x00	; 0
    1cfe:	a0 e0       	ldi	r26, 0x00	; 0
    1d00:	b0 e0       	ldi	r27, 0x00	; 0
    1d02:	88 87       	std	Y+8, r24	; 0x08
    1d04:	99 87       	std	Y+9, r25	; 0x09
    1d06:	aa 87       	std	Y+10, r26	; 0x0a
    1d08:	bb 87       	std	Y+11, r27	; 0x0b
    1d0a:	ce 01       	movw	r24, r28
    1d0c:	d8 df       	rcall	.-80     	; 0x1cbe <_ZN6Clocks5resetEv>
    1d0e:	df 91       	pop	r29
    1d10:	cf 91       	pop	r28
    1d12:	08 95       	ret

00001d14 <_ZN6ClocksC1El>:
    1d14:	cf 92       	push	r12
    1d16:	df 92       	push	r13
    1d18:	ef 92       	push	r14
    1d1a:	ff 92       	push	r15
    1d1c:	cf 93       	push	r28
    1d1e:	df 93       	push	r29
    1d20:	ec 01       	movw	r28, r24
    1d22:	6a 01       	movw	r12, r20
    1d24:	7b 01       	movw	r14, r22
    1d26:	41 e0       	ldi	r20, 0x01	; 1
    1d28:	50 e0       	ldi	r21, 0x00	; 0
    1d2a:	60 e0       	ldi	r22, 0x00	; 0
    1d2c:	70 e0       	ldi	r23, 0x00	; 0
    1d2e:	8b ec       	ldi	r24, 0xCB	; 203
    1d30:	96 e0       	ldi	r25, 0x06	; 6
    1d32:	1c d1       	rcall	.+568    	; 0x1f6c <_ZN12SimpleTimer112set_durationEm>
    1d34:	8b ec       	ldi	r24, 0xCB	; 203
    1d36:	96 e0       	ldi	r25, 0x06	; 6
    1d38:	0c d1       	rcall	.+536    	; 0x1f52 <_ZN12SimpleTimer15startEv>
    1d3a:	c8 86       	std	Y+8, r12	; 0x08
    1d3c:	d9 86       	std	Y+9, r13	; 0x09
    1d3e:	ea 86       	std	Y+10, r14	; 0x0a
    1d40:	fb 86       	std	Y+11, r15	; 0x0b
    1d42:	ce 01       	movw	r24, r28
    1d44:	bc df       	rcall	.-136    	; 0x1cbe <_ZN6Clocks5resetEv>
    1d46:	df 91       	pop	r29
    1d48:	cf 91       	pop	r28
    1d4a:	ff 90       	pop	r15
    1d4c:	ef 90       	pop	r14
    1d4e:	df 90       	pop	r13
    1d50:	cf 90       	pop	r12
    1d52:	08 95       	ret

00001d54 <_ZN6Clocks11setIntervalEl>:
    1d54:	fc 01       	movw	r30, r24
    1d56:	40 87       	std	Z+8, r20	; 0x08
    1d58:	51 87       	std	Z+9, r21	; 0x09
    1d5a:	62 87       	std	Z+10, r22	; 0x0a
    1d5c:	73 87       	std	Z+11, r23	; 0x0b
    1d5e:	08 95       	ret

00001d60 <_ZN6Clocks6updateEv>:
    1d60:	cf 93       	push	r28
    1d62:	df 93       	push	r29
    1d64:	ec 01       	movw	r28, r24
    1d66:	8b ec       	ldi	r24, 0xCB	; 203
    1d68:	96 e0       	ldi	r25, 0x06	; 6
    1d6a:	ea d0       	rcall	.+468    	; 0x1f40 <_ZN12SimpleTimer16millisEv>
    1d6c:	68 83       	st	Y, r22
    1d6e:	79 83       	std	Y+1, r23	; 0x01
    1d70:	8a 83       	std	Y+2, r24	; 0x02
    1d72:	9b 83       	std	Y+3, r25	; 0x03
    1d74:	df 91       	pop	r29
    1d76:	cf 91       	pop	r28
    1d78:	08 95       	ret

00001d7a <_ZN6Clocks6isDoneEv>:
    1d7a:	cf 93       	push	r28
    1d7c:	df 93       	push	r29
    1d7e:	ec 01       	movw	r28, r24
    1d80:	ef df       	rcall	.-34     	; 0x1d60 <_ZN6Clocks6updateEv>
    1d82:	28 81       	ld	r18, Y
    1d84:	39 81       	ldd	r19, Y+1	; 0x01
    1d86:	8c 81       	ldd	r24, Y+4	; 0x04
    1d88:	9d 81       	ldd	r25, Y+5	; 0x05
    1d8a:	28 1b       	sub	r18, r24
    1d8c:	39 0b       	sbc	r19, r25
    1d8e:	c9 01       	movw	r24, r18
    1d90:	99 23       	and	r25, r25
    1d92:	24 f4       	brge	.+8      	; 0x1d9c <_ZN6Clocks6isDoneEv+0x22>
    1d94:	88 27       	eor	r24, r24
    1d96:	99 27       	eor	r25, r25
    1d98:	82 1b       	sub	r24, r18
    1d9a:	93 0b       	sbc	r25, r19
    1d9c:	09 2e       	mov	r0, r25
    1d9e:	00 0c       	add	r0, r0
    1da0:	aa 0b       	sbc	r26, r26
    1da2:	bb 0b       	sbc	r27, r27
    1da4:	48 85       	ldd	r20, Y+8	; 0x08
    1da6:	59 85       	ldd	r21, Y+9	; 0x09
    1da8:	6a 85       	ldd	r22, Y+10	; 0x0a
    1daa:	7b 85       	ldd	r23, Y+11	; 0x0b
    1dac:	48 17       	cp	r20, r24
    1dae:	59 07       	cpc	r21, r25
    1db0:	6a 07       	cpc	r22, r26
    1db2:	7b 07       	cpc	r23, r27
    1db4:	24 f4       	brge	.+8      	; 0x1dbe <_ZN6Clocks6isDoneEv+0x44>
    1db6:	ce 01       	movw	r24, r28
    1db8:	82 df       	rcall	.-252    	; 0x1cbe <_ZN6Clocks5resetEv>
    1dba:	81 e0       	ldi	r24, 0x01	; 1
    1dbc:	01 c0       	rjmp	.+2      	; 0x1dc0 <_ZN6Clocks6isDoneEv+0x46>
    1dbe:	80 e0       	ldi	r24, 0x00	; 0
    1dc0:	df 91       	pop	r29
    1dc2:	cf 91       	pop	r28
    1dc4:	08 95       	ret

00001dc6 <_GLOBAL__sub_I__ZN6ClocksC2Ev>:
    1dc6:	8b ec       	ldi	r24, 0xCB	; 203
    1dc8:	96 e0       	ldi	r25, 0x06	; 6
    1dca:	ce c0       	rjmp	.+412    	; 0x1f68 <_ZN12SimpleTimer1C1Ev>
    1dcc:	08 95       	ret

00001dce <_Z5resetv>:
    1dce:	10 92 d0 06 	sts	0x06D0, r1	; 0x8006d0 <_ZL5count>
    1dd2:	10 92 d1 06 	sts	0x06D1, r1	; 0x8006d1 <_ZL5count+0x1>
    1dd6:	10 92 d2 06 	sts	0x06D2, r1	; 0x8006d2 <_ZL5count+0x2>
    1dda:	10 92 d3 06 	sts	0x06D3, r1	; 0x8006d3 <_ZL5count+0x3>
    1dde:	07 d1       	rcall	.+526    	; 0x1fee <_Z36timer0_disableTimerOverflowInterruptv>
    1de0:	80 e0       	ldi	r24, 0x00	; 0
    1de2:	d7 c0       	rjmp	.+430    	; 0x1f92 <_Z21timer0_setClockSource12CLOCK_SOURCE>
    1de4:	08 95       	ret

00001de6 <__vector_23>:
    1de6:	1f 92       	push	r1
    1de8:	0f 92       	push	r0
    1dea:	0f b6       	in	r0, 0x3f	; 63
    1dec:	0f 92       	push	r0
    1dee:	11 24       	eor	r1, r1
    1df0:	0b b6       	in	r0, 0x3b	; 59
    1df2:	0f 92       	push	r0
    1df4:	2f 93       	push	r18
    1df6:	3f 93       	push	r19
    1df8:	4f 93       	push	r20
    1dfa:	5f 93       	push	r21
    1dfc:	6f 93       	push	r22
    1dfe:	7f 93       	push	r23
    1e00:	8f 93       	push	r24
    1e02:	9f 93       	push	r25
    1e04:	af 93       	push	r26
    1e06:	bf 93       	push	r27
    1e08:	ef 93       	push	r30
    1e0a:	ff 93       	push	r31
    1e0c:	80 91 d0 06 	lds	r24, 0x06D0	; 0x8006d0 <_ZL5count>
    1e10:	90 91 d1 06 	lds	r25, 0x06D1	; 0x8006d1 <_ZL5count+0x1>
    1e14:	a0 91 d2 06 	lds	r26, 0x06D2	; 0x8006d2 <_ZL5count+0x2>
    1e18:	b0 91 d3 06 	lds	r27, 0x06D3	; 0x8006d3 <_ZL5count+0x3>
    1e1c:	01 96       	adiw	r24, 0x01	; 1
    1e1e:	a1 1d       	adc	r26, r1
    1e20:	b1 1d       	adc	r27, r1
    1e22:	80 93 d0 06 	sts	0x06D0, r24	; 0x8006d0 <_ZL5count>
    1e26:	90 93 d1 06 	sts	0x06D1, r25	; 0x8006d1 <_ZL5count+0x1>
    1e2a:	a0 93 d2 06 	sts	0x06D2, r26	; 0x8006d2 <_ZL5count+0x2>
    1e2e:	b0 93 d3 06 	sts	0x06D3, r27	; 0x8006d3 <_ZL5count+0x3>
    1e32:	40 91 d0 06 	lds	r20, 0x06D0	; 0x8006d0 <_ZL5count>
    1e36:	50 91 d1 06 	lds	r21, 0x06D1	; 0x8006d1 <_ZL5count+0x1>
    1e3a:	60 91 d2 06 	lds	r22, 0x06D2	; 0x8006d2 <_ZL5count+0x2>
    1e3e:	70 91 d3 06 	lds	r23, 0x06D3	; 0x8006d3 <_ZL5count+0x3>
    1e42:	80 91 cc 06 	lds	r24, 0x06CC	; 0x8006cc <_ZL9max_count>
    1e46:	90 91 cd 06 	lds	r25, 0x06CD	; 0x8006cd <_ZL9max_count+0x1>
    1e4a:	a0 91 ce 06 	lds	r26, 0x06CE	; 0x8006ce <_ZL9max_count+0x2>
    1e4e:	b0 91 cf 06 	lds	r27, 0x06CF	; 0x8006cf <_ZL9max_count+0x3>
    1e52:	84 17       	cp	r24, r20
    1e54:	95 07       	cpc	r25, r21
    1e56:	a6 07       	cpc	r26, r22
    1e58:	b7 07       	cpc	r27, r23
    1e5a:	08 f4       	brcc	.+2      	; 0x1e5e <__vector_23+0x78>
    1e5c:	b8 df       	rcall	.-144    	; 0x1dce <_Z5resetv>
    1e5e:	ff 91       	pop	r31
    1e60:	ef 91       	pop	r30
    1e62:	bf 91       	pop	r27
    1e64:	af 91       	pop	r26
    1e66:	9f 91       	pop	r25
    1e68:	8f 91       	pop	r24
    1e6a:	7f 91       	pop	r23
    1e6c:	6f 91       	pop	r22
    1e6e:	5f 91       	pop	r21
    1e70:	4f 91       	pop	r20
    1e72:	3f 91       	pop	r19
    1e74:	2f 91       	pop	r18
    1e76:	0f 90       	pop	r0
    1e78:	0b be       	out	0x3b, r0	; 59
    1e7a:	0f 90       	pop	r0
    1e7c:	0f be       	out	0x3f, r0	; 63
    1e7e:	0f 90       	pop	r0
    1e80:	1f 90       	pop	r1
    1e82:	18 95       	reti

00001e84 <__vector_20>:
    1e84:	1f 92       	push	r1
    1e86:	0f 92       	push	r0
    1e88:	0f b6       	in	r0, 0x3f	; 63
    1e8a:	0f 92       	push	r0
    1e8c:	11 24       	eor	r1, r1
    1e8e:	4f 93       	push	r20
    1e90:	5f 93       	push	r21
    1e92:	6f 93       	push	r22
    1e94:	7f 93       	push	r23
    1e96:	8f 93       	push	r24
    1e98:	9f 93       	push	r25
    1e9a:	af 93       	push	r26
    1e9c:	bf 93       	push	r27
    1e9e:	80 91 dc 06 	lds	r24, 0x06DC	; 0x8006dc <_ZL5count>
    1ea2:	90 91 dd 06 	lds	r25, 0x06DD	; 0x8006dd <_ZL5count+0x1>
    1ea6:	a0 91 de 06 	lds	r26, 0x06DE	; 0x8006de <_ZL5count+0x2>
    1eaa:	b0 91 df 06 	lds	r27, 0x06DF	; 0x8006df <_ZL5count+0x3>
    1eae:	01 96       	adiw	r24, 0x01	; 1
    1eb0:	a1 1d       	adc	r26, r1
    1eb2:	b1 1d       	adc	r27, r1
    1eb4:	80 93 dc 06 	sts	0x06DC, r24	; 0x8006dc <_ZL5count>
    1eb8:	90 93 dd 06 	sts	0x06DD, r25	; 0x8006dd <_ZL5count+0x1>
    1ebc:	a0 93 de 06 	sts	0x06DE, r26	; 0x8006de <_ZL5count+0x2>
    1ec0:	b0 93 df 06 	sts	0x06DF, r27	; 0x8006df <_ZL5count+0x3>
    1ec4:	40 91 dc 06 	lds	r20, 0x06DC	; 0x8006dc <_ZL5count>
    1ec8:	50 91 dd 06 	lds	r21, 0x06DD	; 0x8006dd <_ZL5count+0x1>
    1ecc:	60 91 de 06 	lds	r22, 0x06DE	; 0x8006de <_ZL5count+0x2>
    1ed0:	70 91 df 06 	lds	r23, 0x06DF	; 0x8006df <_ZL5count+0x3>
    1ed4:	80 91 d4 06 	lds	r24, 0x06D4	; 0x8006d4 <_ZL9max_count>
    1ed8:	90 91 d5 06 	lds	r25, 0x06D5	; 0x8006d5 <_ZL9max_count+0x1>
    1edc:	a0 91 d6 06 	lds	r26, 0x06D6	; 0x8006d6 <_ZL9max_count+0x2>
    1ee0:	b0 91 d7 06 	lds	r27, 0x06D7	; 0x8006d7 <_ZL9max_count+0x3>
    1ee4:	84 17       	cp	r24, r20
    1ee6:	95 07       	cpc	r25, r21
    1ee8:	a6 07       	cpc	r26, r22
    1eea:	b7 07       	cpc	r27, r23
    1eec:	d8 f4       	brcc	.+54     	; 0x1f24 <__vector_20+0xa0>
    1eee:	80 91 d8 06 	lds	r24, 0x06D8	; 0x8006d8 <_ZL11GlobalCount>
    1ef2:	90 91 d9 06 	lds	r25, 0x06D9	; 0x8006d9 <_ZL11GlobalCount+0x1>
    1ef6:	a0 91 da 06 	lds	r26, 0x06DA	; 0x8006da <_ZL11GlobalCount+0x2>
    1efa:	b0 91 db 06 	lds	r27, 0x06DB	; 0x8006db <_ZL11GlobalCount+0x3>
    1efe:	04 96       	adiw	r24, 0x04	; 4
    1f00:	a1 1d       	adc	r26, r1
    1f02:	b1 1d       	adc	r27, r1
    1f04:	80 93 d8 06 	sts	0x06D8, r24	; 0x8006d8 <_ZL11GlobalCount>
    1f08:	90 93 d9 06 	sts	0x06D9, r25	; 0x8006d9 <_ZL11GlobalCount+0x1>
    1f0c:	a0 93 da 06 	sts	0x06DA, r26	; 0x8006da <_ZL11GlobalCount+0x2>
    1f10:	b0 93 db 06 	sts	0x06DB, r27	; 0x8006db <_ZL11GlobalCount+0x3>
    1f14:	10 92 dc 06 	sts	0x06DC, r1	; 0x8006dc <_ZL5count>
    1f18:	10 92 dd 06 	sts	0x06DD, r1	; 0x8006dd <_ZL5count+0x1>
    1f1c:	10 92 de 06 	sts	0x06DE, r1	; 0x8006de <_ZL5count+0x2>
    1f20:	10 92 df 06 	sts	0x06DF, r1	; 0x8006df <_ZL5count+0x3>
    1f24:	16 ba       	out	0x16, r1	; 22
    1f26:	bf 91       	pop	r27
    1f28:	af 91       	pop	r26
    1f2a:	9f 91       	pop	r25
    1f2c:	8f 91       	pop	r24
    1f2e:	7f 91       	pop	r23
    1f30:	6f 91       	pop	r22
    1f32:	5f 91       	pop	r21
    1f34:	4f 91       	pop	r20
    1f36:	0f 90       	pop	r0
    1f38:	0f be       	out	0x3f, r0	; 63
    1f3a:	0f 90       	pop	r0
    1f3c:	1f 90       	pop	r1
    1f3e:	18 95       	reti

00001f40 <_ZN12SimpleTimer16millisEv>:
    1f40:	60 91 d8 06 	lds	r22, 0x06D8	; 0x8006d8 <_ZL11GlobalCount>
    1f44:	70 91 d9 06 	lds	r23, 0x06D9	; 0x8006d9 <_ZL11GlobalCount+0x1>
    1f48:	80 91 da 06 	lds	r24, 0x06DA	; 0x8006da <_ZL11GlobalCount+0x2>
    1f4c:	90 91 db 06 	lds	r25, 0x06DB	; 0x8006db <_ZL11GlobalCount+0x3>
    1f50:	08 95       	ret

00001f52 <_ZN12SimpleTimer15startEv>:
    1f52:	ef e6       	ldi	r30, 0x6F	; 111
    1f54:	f0 e0       	ldi	r31, 0x00	; 0
    1f56:	80 81       	ld	r24, Z
    1f58:	81 60       	ori	r24, 0x01	; 1
    1f5a:	80 83       	st	Z, r24
    1f5c:	e1 e8       	ldi	r30, 0x81	; 129
    1f5e:	f0 e0       	ldi	r31, 0x00	; 0
    1f60:	80 81       	ld	r24, Z
    1f62:	81 60       	ori	r24, 0x01	; 1
    1f64:	80 83       	st	Z, r24
    1f66:	08 95       	ret

00001f68 <_ZN12SimpleTimer1C1Ev>:
    1f68:	f4 cf       	rjmp	.-24     	; 0x1f52 <_ZN12SimpleTimer15startEv>
    1f6a:	08 95       	ret

00001f6c <_ZN12SimpleTimer112set_durationEm>:
    1f6c:	a0 e8       	ldi	r26, 0x80	; 128
    1f6e:	be e3       	ldi	r27, 0x3E	; 62
    1f70:	9a 01       	movw	r18, r20
    1f72:	ab 01       	movw	r20, r22
    1f74:	a0 d4       	rcall	.+2368   	; 0x28b6 <__muluhisi3>
    1f76:	2f ef       	ldi	r18, 0xFF	; 255
    1f78:	3f ef       	ldi	r19, 0xFF	; 255
    1f7a:	40 e0       	ldi	r20, 0x00	; 0
    1f7c:	50 e0       	ldi	r21, 0x00	; 0
    1f7e:	70 d4       	rcall	.+2272   	; 0x2860 <__udivmodsi4>
    1f80:	20 93 d4 06 	sts	0x06D4, r18	; 0x8006d4 <_ZL9max_count>
    1f84:	30 93 d5 06 	sts	0x06D5, r19	; 0x8006d5 <_ZL9max_count+0x1>
    1f88:	40 93 d6 06 	sts	0x06D6, r20	; 0x8006d6 <_ZL9max_count+0x2>
    1f8c:	50 93 d7 06 	sts	0x06D7, r21	; 0x8006d7 <_ZL9max_count+0x3>
    1f90:	08 95       	ret

00001f92 <_Z21timer0_setClockSource12CLOCK_SOURCE>:
    1f92:	e8 2f       	mov	r30, r24
    1f94:	80 93 e0 06 	sts	0x06E0, r24	; 0x8006e0 <_ZL2cs>
    1f98:	85 b5       	in	r24, 0x25	; 37
    1f9a:	88 7f       	andi	r24, 0xF8	; 248
    1f9c:	85 bd       	out	0x25, r24	; 37
    1f9e:	8e 2f       	mov	r24, r30
    1fa0:	90 e0       	ldi	r25, 0x00	; 0
    1fa2:	88 30       	cpi	r24, 0x08	; 8
    1fa4:	91 05       	cpc	r25, r1
    1fa6:	10 f5       	brcc	.+68     	; 0x1fec <_Z21timer0_setClockSource12CLOCK_SOURCE+0x5a>
    1fa8:	fc 01       	movw	r30, r24
    1faa:	e8 56       	subi	r30, 0x68	; 104
    1fac:	ff 4f       	sbci	r31, 0xFF	; 255
    1fae:	7a c4       	rjmp	.+2292   	; 0x28a4 <__tablejump2__>
    1fb0:	85 b5       	in	r24, 0x25	; 37
    1fb2:	85 bd       	out	0x25, r24	; 37
    1fb4:	08 95       	ret
    1fb6:	85 b5       	in	r24, 0x25	; 37
    1fb8:	81 60       	ori	r24, 0x01	; 1
    1fba:	85 bd       	out	0x25, r24	; 37
    1fbc:	08 95       	ret
    1fbe:	85 b5       	in	r24, 0x25	; 37
    1fc0:	82 60       	ori	r24, 0x02	; 2
    1fc2:	85 bd       	out	0x25, r24	; 37
    1fc4:	08 95       	ret
    1fc6:	85 b5       	in	r24, 0x25	; 37
    1fc8:	83 60       	ori	r24, 0x03	; 3
    1fca:	85 bd       	out	0x25, r24	; 37
    1fcc:	08 95       	ret
    1fce:	85 b5       	in	r24, 0x25	; 37
    1fd0:	84 60       	ori	r24, 0x04	; 4
    1fd2:	85 bd       	out	0x25, r24	; 37
    1fd4:	08 95       	ret
    1fd6:	85 b5       	in	r24, 0x25	; 37
    1fd8:	85 60       	ori	r24, 0x05	; 5
    1fda:	85 bd       	out	0x25, r24	; 37
    1fdc:	08 95       	ret
    1fde:	85 b5       	in	r24, 0x25	; 37
    1fe0:	86 60       	ori	r24, 0x06	; 6
    1fe2:	85 bd       	out	0x25, r24	; 37
    1fe4:	08 95       	ret
    1fe6:	85 b5       	in	r24, 0x25	; 37
    1fe8:	87 60       	ori	r24, 0x07	; 7
    1fea:	85 bd       	out	0x25, r24	; 37
    1fec:	08 95       	ret

00001fee <_Z36timer0_disableTimerOverflowInterruptv>:
    1fee:	ee e6       	ldi	r30, 0x6E	; 110
    1ff0:	f0 e0       	ldi	r31, 0x00	; 0
    1ff2:	80 81       	ld	r24, Z
    1ff4:	8e 7f       	andi	r24, 0xFE	; 254
    1ff6:	80 83       	st	Z, r24
    1ff8:	08 95       	ret

00001ffa <__vector_25>:
    1ffa:	1f 92       	push	r1
    1ffc:	0f 92       	push	r0
    1ffe:	0f b6       	in	r0, 0x3f	; 63
    2000:	0f 92       	push	r0
    2002:	11 24       	eor	r1, r1
    2004:	0b b6       	in	r0, 0x3b	; 59
    2006:	0f 92       	push	r0
    2008:	2f 93       	push	r18
    200a:	8f 93       	push	r24
    200c:	9f 93       	push	r25
    200e:	ef 93       	push	r30
    2010:	ff 93       	push	r31
    2012:	80 91 c0 00 	lds	r24, 0x00C0	; 0x8000c0 <__TEXT_REGION_LENGTH__+0x7e00c0>
    2016:	20 91 c6 00 	lds	r18, 0x00C6	; 0x8000c6 <__TEXT_REGION_LENGTH__+0x7e00c6>
    201a:	8c 71       	andi	r24, 0x1C	; 28
    201c:	e0 91 e3 06 	lds	r30, 0x06E3	; 0x8006e3 <_ZL12receive_head>
    2020:	ef 5f       	subi	r30, 0xFF	; 255
    2022:	ef 71       	andi	r30, 0x1F	; 31
    2024:	90 91 e2 06 	lds	r25, 0x06E2	; 0x8006e2 <_ZL12receive_tail>
    2028:	e9 17       	cp	r30, r25
    202a:	39 f0       	breq	.+14     	; 0x203a <__vector_25+0x40>
    202c:	e0 93 e3 06 	sts	0x06E3, r30	; 0x8006e3 <_ZL12receive_head>
    2030:	f0 e0       	ldi	r31, 0x00	; 0
    2032:	ec 51       	subi	r30, 0x1C	; 28
    2034:	f9 4f       	sbci	r31, 0xF9	; 249
    2036:	20 83       	st	Z, r18
    2038:	01 c0       	rjmp	.+2      	; 0x203c <__vector_25+0x42>
    203a:	82 e0       	ldi	r24, 0x02	; 2
    203c:	90 91 e1 06 	lds	r25, 0x06E1	; 0x8006e1 <_ZL18last_receive_error>
    2040:	89 2b       	or	r24, r25
    2042:	80 93 e1 06 	sts	0x06E1, r24	; 0x8006e1 <_ZL18last_receive_error>
    2046:	ff 91       	pop	r31
    2048:	ef 91       	pop	r30
    204a:	9f 91       	pop	r25
    204c:	8f 91       	pop	r24
    204e:	2f 91       	pop	r18
    2050:	0f 90       	pop	r0
    2052:	0b be       	out	0x3b, r0	; 59
    2054:	0f 90       	pop	r0
    2056:	0f be       	out	0x3f, r0	; 63
    2058:	0f 90       	pop	r0
    205a:	1f 90       	pop	r1
    205c:	18 95       	reti

0000205e <__vector_26>:
    205e:	1f 92       	push	r1
    2060:	0f 92       	push	r0
    2062:	0f b6       	in	r0, 0x3f	; 63
    2064:	0f 92       	push	r0
    2066:	11 24       	eor	r1, r1
    2068:	0b b6       	in	r0, 0x3b	; 59
    206a:	0f 92       	push	r0
    206c:	8f 93       	push	r24
    206e:	9f 93       	push	r25
    2070:	ef 93       	push	r30
    2072:	ff 93       	push	r31
    2074:	90 91 05 07 	lds	r25, 0x0705	; 0x800705 <_ZL13transmit_head>
    2078:	80 91 04 07 	lds	r24, 0x0704	; 0x800704 <_ZL13transmit_tail>
    207c:	98 17       	cp	r25, r24
    207e:	69 f0       	breq	.+26     	; 0x209a <__vector_26+0x3c>
    2080:	e0 91 04 07 	lds	r30, 0x0704	; 0x800704 <_ZL13transmit_tail>
    2084:	ef 5f       	subi	r30, 0xFF	; 255
    2086:	ef 71       	andi	r30, 0x1F	; 31
    2088:	e0 93 04 07 	sts	0x0704, r30	; 0x800704 <_ZL13transmit_tail>
    208c:	f0 e0       	ldi	r31, 0x00	; 0
    208e:	ea 5f       	subi	r30, 0xFA	; 250
    2090:	f8 4f       	sbci	r31, 0xF8	; 248
    2092:	80 81       	ld	r24, Z
    2094:	80 93 c6 00 	sts	0x00C6, r24	; 0x8000c6 <__TEXT_REGION_LENGTH__+0x7e00c6>
    2098:	05 c0       	rjmp	.+10     	; 0x20a4 <__vector_26+0x46>
    209a:	e1 ec       	ldi	r30, 0xC1	; 193
    209c:	f0 e0       	ldi	r31, 0x00	; 0
    209e:	80 81       	ld	r24, Z
    20a0:	8f 7d       	andi	r24, 0xDF	; 223
    20a2:	80 83       	st	Z, r24
    20a4:	ff 91       	pop	r31
    20a6:	ef 91       	pop	r30
    20a8:	9f 91       	pop	r25
    20aa:	8f 91       	pop	r24
    20ac:	0f 90       	pop	r0
    20ae:	0b be       	out	0x3b, r0	; 59
    20b0:	0f 90       	pop	r0
    20b2:	0f be       	out	0x3f, r0	; 63
    20b4:	0f 90       	pop	r0
    20b6:	1f 90       	pop	r1
    20b8:	18 95       	reti

000020ba <_Z16uart0_initializej>:
    20ba:	10 92 05 07 	sts	0x0705, r1	; 0x800705 <_ZL13transmit_head>
    20be:	10 92 04 07 	sts	0x0704, r1	; 0x800704 <_ZL13transmit_tail>
    20c2:	10 92 e3 06 	sts	0x06E3, r1	; 0x8006e3 <_ZL12receive_head>
    20c6:	10 92 e2 06 	sts	0x06E2, r1	; 0x8006e2 <_ZL12receive_tail>
    20ca:	90 78       	andi	r25, 0x80	; 128
    20cc:	90 93 c5 00 	sts	0x00C5, r25	; 0x8000c5 <__TEXT_REGION_LENGTH__+0x7e00c5>
    20d0:	80 93 c4 00 	sts	0x00C4, r24	; 0x8000c4 <__TEXT_REGION_LENGTH__+0x7e00c4>
    20d4:	88 e9       	ldi	r24, 0x98	; 152
    20d6:	80 93 c1 00 	sts	0x00C1, r24	; 0x8000c1 <__TEXT_REGION_LENGTH__+0x7e00c1>
    20da:	86 e0       	ldi	r24, 0x06	; 6
    20dc:	80 93 c2 00 	sts	0x00C2, r24	; 0x8000c2 <__TEXT_REGION_LENGTH__+0x7e00c2>
    20e0:	08 95       	ret

000020e2 <__vector_36>:
    20e2:	1f 92       	push	r1
    20e4:	0f 92       	push	r0
    20e6:	0f b6       	in	r0, 0x3f	; 63
    20e8:	0f 92       	push	r0
    20ea:	11 24       	eor	r1, r1
    20ec:	0b b6       	in	r0, 0x3b	; 59
    20ee:	0f 92       	push	r0
    20f0:	2f 93       	push	r18
    20f2:	8f 93       	push	r24
    20f4:	9f 93       	push	r25
    20f6:	ef 93       	push	r30
    20f8:	ff 93       	push	r31
    20fa:	80 91 c8 00 	lds	r24, 0x00C8	; 0x8000c8 <__TEXT_REGION_LENGTH__+0x7e00c8>
    20fe:	20 91 ce 00 	lds	r18, 0x00CE	; 0x8000ce <__TEXT_REGION_LENGTH__+0x7e00ce>
    2102:	8c 71       	andi	r24, 0x1C	; 28
    2104:	e0 91 28 07 	lds	r30, 0x0728	; 0x800728 <_ZL12receive_head>
    2108:	ef 5f       	subi	r30, 0xFF	; 255
    210a:	90 91 27 07 	lds	r25, 0x0727	; 0x800727 <_ZL12receive_tail>
    210e:	e9 17       	cp	r30, r25
    2110:	39 f0       	breq	.+14     	; 0x2120 <__vector_36+0x3e>
    2112:	e0 93 28 07 	sts	0x0728, r30	; 0x800728 <_ZL12receive_head>
    2116:	f0 e0       	ldi	r31, 0x00	; 0
    2118:	e7 5d       	subi	r30, 0xD7	; 215
    211a:	f8 4f       	sbci	r31, 0xF8	; 248
    211c:	20 83       	st	Z, r18
    211e:	01 c0       	rjmp	.+2      	; 0x2122 <__vector_36+0x40>
    2120:	82 e0       	ldi	r24, 0x02	; 2
    2122:	90 91 26 07 	lds	r25, 0x0726	; 0x800726 <_ZL18last_receive_error>
    2126:	89 2b       	or	r24, r25
    2128:	80 93 26 07 	sts	0x0726, r24	; 0x800726 <_ZL18last_receive_error>
    212c:	ff 91       	pop	r31
    212e:	ef 91       	pop	r30
    2130:	9f 91       	pop	r25
    2132:	8f 91       	pop	r24
    2134:	2f 91       	pop	r18
    2136:	0f 90       	pop	r0
    2138:	0b be       	out	0x3b, r0	; 59
    213a:	0f 90       	pop	r0
    213c:	0f be       	out	0x3f, r0	; 63
    213e:	0f 90       	pop	r0
    2140:	1f 90       	pop	r1
    2142:	18 95       	reti

00002144 <__vector_37>:
    2144:	1f 92       	push	r1
    2146:	0f 92       	push	r0
    2148:	0f b6       	in	r0, 0x3f	; 63
    214a:	0f 92       	push	r0
    214c:	11 24       	eor	r1, r1
    214e:	0b b6       	in	r0, 0x3b	; 59
    2150:	0f 92       	push	r0
    2152:	8f 93       	push	r24
    2154:	9f 93       	push	r25
    2156:	ef 93       	push	r30
    2158:	ff 93       	push	r31
    215a:	90 91 2a 08 	lds	r25, 0x082A	; 0x80082a <_ZL13transmit_head>
    215e:	80 91 29 08 	lds	r24, 0x0829	; 0x800829 <_ZL13transmit_tail>
    2162:	98 17       	cp	r25, r24
    2164:	61 f0       	breq	.+24     	; 0x217e <__vector_37+0x3a>
    2166:	e0 91 29 08 	lds	r30, 0x0829	; 0x800829 <_ZL13transmit_tail>
    216a:	ef 5f       	subi	r30, 0xFF	; 255
    216c:	e0 93 29 08 	sts	0x0829, r30	; 0x800829 <_ZL13transmit_tail>
    2170:	f0 e0       	ldi	r31, 0x00	; 0
    2172:	e5 5d       	subi	r30, 0xD5	; 213
    2174:	f7 4f       	sbci	r31, 0xF7	; 247
    2176:	80 81       	ld	r24, Z
    2178:	80 93 ce 00 	sts	0x00CE, r24	; 0x8000ce <__TEXT_REGION_LENGTH__+0x7e00ce>
    217c:	05 c0       	rjmp	.+10     	; 0x2188 <__vector_37+0x44>
    217e:	e9 ec       	ldi	r30, 0xC9	; 201
    2180:	f0 e0       	ldi	r31, 0x00	; 0
    2182:	80 81       	ld	r24, Z
    2184:	8f 7d       	andi	r24, 0xDF	; 223
    2186:	80 83       	st	Z, r24
    2188:	ff 91       	pop	r31
    218a:	ef 91       	pop	r30
    218c:	9f 91       	pop	r25
    218e:	8f 91       	pop	r24
    2190:	0f 90       	pop	r0
    2192:	0b be       	out	0x3b, r0	; 59
    2194:	0f 90       	pop	r0
    2196:	0f be       	out	0x3f, r0	; 63
    2198:	0f 90       	pop	r0
    219a:	1f 90       	pop	r1
    219c:	18 95       	reti

0000219e <_Z16uart1_initializej>:
    219e:	10 92 2a 08 	sts	0x082A, r1	; 0x80082a <_ZL13transmit_head>
    21a2:	10 92 29 08 	sts	0x0829, r1	; 0x800829 <_ZL13transmit_tail>
    21a6:	10 92 28 07 	sts	0x0728, r1	; 0x800728 <_ZL12receive_head>
    21aa:	10 92 27 07 	sts	0x0727, r1	; 0x800727 <_ZL12receive_tail>
    21ae:	90 78       	andi	r25, 0x80	; 128
    21b0:	90 93 cd 00 	sts	0x00CD, r25	; 0x8000cd <__TEXT_REGION_LENGTH__+0x7e00cd>
    21b4:	80 93 cc 00 	sts	0x00CC, r24	; 0x8000cc <__TEXT_REGION_LENGTH__+0x7e00cc>
    21b8:	88 e9       	ldi	r24, 0x98	; 152
    21ba:	80 93 c9 00 	sts	0x00C9, r24	; 0x8000c9 <__TEXT_REGION_LENGTH__+0x7e00c9>
    21be:	86 e0       	ldi	r24, 0x06	; 6
    21c0:	80 93 ca 00 	sts	0x00CA, r24	; 0x8000ca <__TEXT_REGION_LENGTH__+0x7e00ca>
    21c4:	08 95       	ret

000021c6 <_Z15uart1_read_bytev>:
    21c6:	90 91 28 07 	lds	r25, 0x0728	; 0x800728 <_ZL12receive_head>
    21ca:	80 91 27 07 	lds	r24, 0x0727	; 0x800727 <_ZL12receive_tail>
    21ce:	98 17       	cp	r25, r24
    21d0:	a1 f0       	breq	.+40     	; 0x21fa <_Z15uart1_read_bytev+0x34>
    21d2:	80 91 27 07 	lds	r24, 0x0727	; 0x800727 <_ZL12receive_tail>
    21d6:	8f 5f       	subi	r24, 0xFF	; 255
    21d8:	e8 2f       	mov	r30, r24
    21da:	f0 e0       	ldi	r31, 0x00	; 0
    21dc:	e7 5d       	subi	r30, 0xD7	; 215
    21de:	f8 4f       	sbci	r31, 0xF8	; 248
    21e0:	20 81       	ld	r18, Z
    21e2:	80 93 27 07 	sts	0x0727, r24	; 0x800727 <_ZL12receive_tail>
    21e6:	80 91 26 07 	lds	r24, 0x0726	; 0x800726 <_ZL18last_receive_error>
    21ea:	10 92 26 07 	sts	0x0726, r1	; 0x800726 <_ZL18last_receive_error>
    21ee:	90 e0       	ldi	r25, 0x00	; 0
    21f0:	98 2f       	mov	r25, r24
    21f2:	88 27       	eor	r24, r24
    21f4:	82 0f       	add	r24, r18
    21f6:	91 1d       	adc	r25, r1
    21f8:	08 95       	ret
    21fa:	80 e0       	ldi	r24, 0x00	; 0
    21fc:	91 e0       	ldi	r25, 0x01	; 1
    21fe:	08 95       	ret

00002200 <__vector_51>:
    2200:	1f 92       	push	r1
    2202:	0f 92       	push	r0
    2204:	0f b6       	in	r0, 0x3f	; 63
    2206:	0f 92       	push	r0
    2208:	11 24       	eor	r1, r1
    220a:	0b b6       	in	r0, 0x3b	; 59
    220c:	0f 92       	push	r0
    220e:	2f 93       	push	r18
    2210:	8f 93       	push	r24
    2212:	9f 93       	push	r25
    2214:	ef 93       	push	r30
    2216:	ff 93       	push	r31
    2218:	80 91 d0 00 	lds	r24, 0x00D0	; 0x8000d0 <__TEXT_REGION_LENGTH__+0x7e00d0>
    221c:	20 91 d6 00 	lds	r18, 0x00D6	; 0x8000d6 <__TEXT_REGION_LENGTH__+0x7e00d6>
    2220:	8c 71       	andi	r24, 0x1C	; 28
    2222:	e0 91 2d 09 	lds	r30, 0x092D	; 0x80092d <_ZL12receive_head>
    2226:	ef 5f       	subi	r30, 0xFF	; 255
    2228:	ef 71       	andi	r30, 0x1F	; 31
    222a:	90 91 2c 09 	lds	r25, 0x092C	; 0x80092c <_ZL12receive_tail>
    222e:	e9 17       	cp	r30, r25
    2230:	39 f0       	breq	.+14     	; 0x2240 <__vector_51+0x40>
    2232:	e0 93 2d 09 	sts	0x092D, r30	; 0x80092d <_ZL12receive_head>
    2236:	f0 e0       	ldi	r31, 0x00	; 0
    2238:	e2 5d       	subi	r30, 0xD2	; 210
    223a:	f6 4f       	sbci	r31, 0xF6	; 246
    223c:	20 83       	st	Z, r18
    223e:	01 c0       	rjmp	.+2      	; 0x2242 <__vector_51+0x42>
    2240:	82 e0       	ldi	r24, 0x02	; 2
    2242:	90 91 2b 09 	lds	r25, 0x092B	; 0x80092b <_ZL18last_receive_error>
    2246:	89 2b       	or	r24, r25
    2248:	80 93 2b 09 	sts	0x092B, r24	; 0x80092b <_ZL18last_receive_error>
    224c:	ff 91       	pop	r31
    224e:	ef 91       	pop	r30
    2250:	9f 91       	pop	r25
    2252:	8f 91       	pop	r24
    2254:	2f 91       	pop	r18
    2256:	0f 90       	pop	r0
    2258:	0b be       	out	0x3b, r0	; 59
    225a:	0f 90       	pop	r0
    225c:	0f be       	out	0x3f, r0	; 63
    225e:	0f 90       	pop	r0
    2260:	1f 90       	pop	r1
    2262:	18 95       	reti

00002264 <__vector_52>:
    2264:	1f 92       	push	r1
    2266:	0f 92       	push	r0
    2268:	0f b6       	in	r0, 0x3f	; 63
    226a:	0f 92       	push	r0
    226c:	11 24       	eor	r1, r1
    226e:	0b b6       	in	r0, 0x3b	; 59
    2270:	0f 92       	push	r0
    2272:	8f 93       	push	r24
    2274:	9f 93       	push	r25
    2276:	ef 93       	push	r30
    2278:	ff 93       	push	r31
    227a:	90 91 4f 09 	lds	r25, 0x094F	; 0x80094f <_ZL13transmit_head>
    227e:	80 91 4e 09 	lds	r24, 0x094E	; 0x80094e <_ZL13transmit_tail>
    2282:	98 17       	cp	r25, r24
    2284:	69 f0       	breq	.+26     	; 0x22a0 <__vector_52+0x3c>
    2286:	e0 91 4e 09 	lds	r30, 0x094E	; 0x80094e <_ZL13transmit_tail>
    228a:	ef 5f       	subi	r30, 0xFF	; 255
    228c:	ef 71       	andi	r30, 0x1F	; 31
    228e:	e0 93 4e 09 	sts	0x094E, r30	; 0x80094e <_ZL13transmit_tail>
    2292:	f0 e0       	ldi	r31, 0x00	; 0
    2294:	e0 5b       	subi	r30, 0xB0	; 176
    2296:	f6 4f       	sbci	r31, 0xF6	; 246
    2298:	80 81       	ld	r24, Z
    229a:	80 93 d6 00 	sts	0x00D6, r24	; 0x8000d6 <__TEXT_REGION_LENGTH__+0x7e00d6>
    229e:	05 c0       	rjmp	.+10     	; 0x22aa <__vector_52+0x46>
    22a0:	e1 ed       	ldi	r30, 0xD1	; 209
    22a2:	f0 e0       	ldi	r31, 0x00	; 0
    22a4:	80 81       	ld	r24, Z
    22a6:	8f 7d       	andi	r24, 0xDF	; 223
    22a8:	80 83       	st	Z, r24
    22aa:	ff 91       	pop	r31
    22ac:	ef 91       	pop	r30
    22ae:	9f 91       	pop	r25
    22b0:	8f 91       	pop	r24
    22b2:	0f 90       	pop	r0
    22b4:	0b be       	out	0x3b, r0	; 59
    22b6:	0f 90       	pop	r0
    22b8:	0f be       	out	0x3f, r0	; 63
    22ba:	0f 90       	pop	r0
    22bc:	1f 90       	pop	r1
    22be:	18 95       	reti

000022c0 <_Z16uart2_initializej>:
    22c0:	10 92 4f 09 	sts	0x094F, r1	; 0x80094f <_ZL13transmit_head>
    22c4:	10 92 4e 09 	sts	0x094E, r1	; 0x80094e <_ZL13transmit_tail>
    22c8:	10 92 2d 09 	sts	0x092D, r1	; 0x80092d <_ZL12receive_head>
    22cc:	10 92 2c 09 	sts	0x092C, r1	; 0x80092c <_ZL12receive_tail>
    22d0:	90 78       	andi	r25, 0x80	; 128
    22d2:	90 93 d5 00 	sts	0x00D5, r25	; 0x8000d5 <__TEXT_REGION_LENGTH__+0x7e00d5>
    22d6:	80 93 d4 00 	sts	0x00D4, r24	; 0x8000d4 <__TEXT_REGION_LENGTH__+0x7e00d4>
    22da:	88 e9       	ldi	r24, 0x98	; 152
    22dc:	80 93 d1 00 	sts	0x00D1, r24	; 0x8000d1 <__TEXT_REGION_LENGTH__+0x7e00d1>
    22e0:	86 e0       	ldi	r24, 0x06	; 6
    22e2:	80 93 d2 00 	sts	0x00D2, r24	; 0x8000d2 <__TEXT_REGION_LENGTH__+0x7e00d2>
    22e6:	60 e0       	ldi	r22, 0x00	; 0
    22e8:	70 e0       	ldi	r23, 0x00	; 0
    22ea:	82 e9       	ldi	r24, 0x92	; 146
    22ec:	91 e1       	ldi	r25, 0x11	; 17
    22ee:	fc d2       	rcall	.+1528   	; 0x28e8 <fdevopen>
    22f0:	90 93 b8 09 	sts	0x09B8, r25	; 0x8009b8 <__iob+0x3>
    22f4:	80 93 b7 09 	sts	0x09B7, r24	; 0x8009b7 <__iob+0x2>
    22f8:	08 95       	ret

000022fa <_Z15uart2_send_byteh>:
    22fa:	20 91 4f 09 	lds	r18, 0x094F	; 0x80094f <_ZL13transmit_head>
    22fe:	2f 5f       	subi	r18, 0xFF	; 255
    2300:	2f 71       	andi	r18, 0x1F	; 31
    2302:	90 91 4e 09 	lds	r25, 0x094E	; 0x80094e <_ZL13transmit_tail>
    2306:	29 17       	cp	r18, r25
    2308:	e1 f3       	breq	.-8      	; 0x2302 <_Z15uart2_send_byteh+0x8>
    230a:	e2 2f       	mov	r30, r18
    230c:	f0 e0       	ldi	r31, 0x00	; 0
    230e:	e0 5b       	subi	r30, 0xB0	; 176
    2310:	f6 4f       	sbci	r31, 0xF6	; 246
    2312:	80 83       	st	Z, r24
    2314:	20 93 4f 09 	sts	0x094F, r18	; 0x80094f <_ZL13transmit_head>
    2318:	e1 ed       	ldi	r30, 0xD1	; 209
    231a:	f0 e0       	ldi	r31, 0x00	; 0
    231c:	80 81       	ld	r24, Z
    231e:	80 62       	ori	r24, 0x20	; 32
    2320:	80 83       	st	Z, r24
    2322:	08 95       	ret

00002324 <uart_putchar>:
    2324:	8a 30       	cpi	r24, 0x0A	; 10
    2326:	11 f0       	breq	.+4      	; 0x232c <uart_putchar+0x8>
    2328:	e8 df       	rcall	.-48     	; 0x22fa <_Z15uart2_send_byteh>
    232a:	02 c0       	rjmp	.+4      	; 0x2330 <uart_putchar+0xc>
    232c:	8d e0       	ldi	r24, 0x0D	; 13
    232e:	e5 df       	rcall	.-54     	; 0x22fa <_Z15uart2_send_byteh>
    2330:	80 e0       	ldi	r24, 0x00	; 0
    2332:	90 e0       	ldi	r25, 0x00	; 0
    2334:	08 95       	ret

00002336 <__vector_54>:
    2336:	1f 92       	push	r1
    2338:	0f 92       	push	r0
    233a:	0f b6       	in	r0, 0x3f	; 63
    233c:	0f 92       	push	r0
    233e:	11 24       	eor	r1, r1
    2340:	0b b6       	in	r0, 0x3b	; 59
    2342:	0f 92       	push	r0
    2344:	2f 93       	push	r18
    2346:	8f 93       	push	r24
    2348:	9f 93       	push	r25
    234a:	ef 93       	push	r30
    234c:	ff 93       	push	r31
    234e:	80 91 30 01 	lds	r24, 0x0130	; 0x800130 <__DATA_REGION_ORIGIN__+0x30>
    2352:	20 91 36 01 	lds	r18, 0x0136	; 0x800136 <__DATA_REGION_ORIGIN__+0x36>
    2356:	8c 71       	andi	r24, 0x1C	; 28
    2358:	e0 91 72 09 	lds	r30, 0x0972	; 0x800972 <_ZL12receive_head>
    235c:	ef 5f       	subi	r30, 0xFF	; 255
    235e:	ef 71       	andi	r30, 0x1F	; 31
    2360:	90 91 71 09 	lds	r25, 0x0971	; 0x800971 <_ZL12receive_tail>
    2364:	e9 17       	cp	r30, r25
    2366:	39 f0       	breq	.+14     	; 0x2376 <__vector_54+0x40>
    2368:	e0 93 72 09 	sts	0x0972, r30	; 0x800972 <_ZL12receive_head>
    236c:	f0 e0       	ldi	r31, 0x00	; 0
    236e:	ed 58       	subi	r30, 0x8D	; 141
    2370:	f6 4f       	sbci	r31, 0xF6	; 246
    2372:	20 83       	st	Z, r18
    2374:	01 c0       	rjmp	.+2      	; 0x2378 <__vector_54+0x42>
    2376:	82 e0       	ldi	r24, 0x02	; 2
    2378:	90 91 70 09 	lds	r25, 0x0970	; 0x800970 <_ZL18last_receive_error>
    237c:	89 2b       	or	r24, r25
    237e:	80 93 70 09 	sts	0x0970, r24	; 0x800970 <_ZL18last_receive_error>
    2382:	ff 91       	pop	r31
    2384:	ef 91       	pop	r30
    2386:	9f 91       	pop	r25
    2388:	8f 91       	pop	r24
    238a:	2f 91       	pop	r18
    238c:	0f 90       	pop	r0
    238e:	0b be       	out	0x3b, r0	; 59
    2390:	0f 90       	pop	r0
    2392:	0f be       	out	0x3f, r0	; 63
    2394:	0f 90       	pop	r0
    2396:	1f 90       	pop	r1
    2398:	18 95       	reti

0000239a <__vector_55>:
    239a:	1f 92       	push	r1
    239c:	0f 92       	push	r0
    239e:	0f b6       	in	r0, 0x3f	; 63
    23a0:	0f 92       	push	r0
    23a2:	11 24       	eor	r1, r1
    23a4:	0b b6       	in	r0, 0x3b	; 59
    23a6:	0f 92       	push	r0
    23a8:	8f 93       	push	r24
    23aa:	9f 93       	push	r25
    23ac:	ef 93       	push	r30
    23ae:	ff 93       	push	r31
    23b0:	90 91 94 09 	lds	r25, 0x0994	; 0x800994 <_ZL13transmit_head>
    23b4:	80 91 93 09 	lds	r24, 0x0993	; 0x800993 <_ZL13transmit_tail>
    23b8:	98 17       	cp	r25, r24
    23ba:	69 f0       	breq	.+26     	; 0x23d6 <__vector_55+0x3c>
    23bc:	e0 91 93 09 	lds	r30, 0x0993	; 0x800993 <_ZL13transmit_tail>
    23c0:	ef 5f       	subi	r30, 0xFF	; 255
    23c2:	ef 71       	andi	r30, 0x1F	; 31
    23c4:	e0 93 93 09 	sts	0x0993, r30	; 0x800993 <_ZL13transmit_tail>
    23c8:	f0 e0       	ldi	r31, 0x00	; 0
    23ca:	eb 56       	subi	r30, 0x6B	; 107
    23cc:	f6 4f       	sbci	r31, 0xF6	; 246
    23ce:	80 81       	ld	r24, Z
    23d0:	80 93 36 01 	sts	0x0136, r24	; 0x800136 <__DATA_REGION_ORIGIN__+0x36>
    23d4:	05 c0       	rjmp	.+10     	; 0x23e0 <__vector_55+0x46>
    23d6:	e1 e3       	ldi	r30, 0x31	; 49
    23d8:	f1 e0       	ldi	r31, 0x01	; 1
    23da:	80 81       	ld	r24, Z
    23dc:	8f 7d       	andi	r24, 0xDF	; 223
    23de:	80 83       	st	Z, r24
    23e0:	ff 91       	pop	r31
    23e2:	ef 91       	pop	r30
    23e4:	9f 91       	pop	r25
    23e6:	8f 91       	pop	r24
    23e8:	0f 90       	pop	r0
    23ea:	0b be       	out	0x3b, r0	; 59
    23ec:	0f 90       	pop	r0
    23ee:	0f be       	out	0x3f, r0	; 63
    23f0:	0f 90       	pop	r0
    23f2:	1f 90       	pop	r1
    23f4:	18 95       	reti

000023f6 <_Z16uart3_initializej>:
    23f6:	10 92 94 09 	sts	0x0994, r1	; 0x800994 <_ZL13transmit_head>
    23fa:	10 92 93 09 	sts	0x0993, r1	; 0x800993 <_ZL13transmit_tail>
    23fe:	10 92 72 09 	sts	0x0972, r1	; 0x800972 <_ZL12receive_head>
    2402:	10 92 71 09 	sts	0x0971, r1	; 0x800971 <_ZL12receive_tail>
    2406:	90 78       	andi	r25, 0x80	; 128
    2408:	90 93 35 01 	sts	0x0135, r25	; 0x800135 <__DATA_REGION_ORIGIN__+0x35>
    240c:	80 93 34 01 	sts	0x0134, r24	; 0x800134 <__DATA_REGION_ORIGIN__+0x34>
    2410:	88 e9       	ldi	r24, 0x98	; 152
    2412:	80 93 31 01 	sts	0x0131, r24	; 0x800131 <__DATA_REGION_ORIGIN__+0x31>
    2416:	86 e0       	ldi	r24, 0x06	; 6
    2418:	80 93 32 01 	sts	0x0132, r24	; 0x800132 <__DATA_REGION_ORIGIN__+0x32>
    241c:	08 95       	ret

0000241e <__subsf3>:
    241e:	50 58       	subi	r21, 0x80	; 128

00002420 <__addsf3>:
    2420:	bb 27       	eor	r27, r27
    2422:	aa 27       	eor	r26, r26
    2424:	0e d0       	rcall	.+28     	; 0x2442 <__addsf3x>
    2426:	70 c1       	rjmp	.+736    	; 0x2708 <__fp_round>
    2428:	61 d1       	rcall	.+706    	; 0x26ec <__fp_pscA>
    242a:	30 f0       	brcs	.+12     	; 0x2438 <__addsf3+0x18>
    242c:	66 d1       	rcall	.+716    	; 0x26fa <__fp_pscB>
    242e:	20 f0       	brcs	.+8      	; 0x2438 <__addsf3+0x18>
    2430:	31 f4       	brne	.+12     	; 0x243e <__addsf3+0x1e>
    2432:	9f 3f       	cpi	r25, 0xFF	; 255
    2434:	11 f4       	brne	.+4      	; 0x243a <__addsf3+0x1a>
    2436:	1e f4       	brtc	.+6      	; 0x243e <__addsf3+0x1e>
    2438:	56 c1       	rjmp	.+684    	; 0x26e6 <__fp_nan>
    243a:	0e f4       	brtc	.+2      	; 0x243e <__addsf3+0x1e>
    243c:	e0 95       	com	r30
    243e:	e7 fb       	bst	r30, 7
    2440:	4c c1       	rjmp	.+664    	; 0x26da <__fp_inf>

00002442 <__addsf3x>:
    2442:	e9 2f       	mov	r30, r25
    2444:	72 d1       	rcall	.+740    	; 0x272a <__fp_split3>
    2446:	80 f3       	brcs	.-32     	; 0x2428 <__addsf3+0x8>
    2448:	ba 17       	cp	r27, r26
    244a:	62 07       	cpc	r22, r18
    244c:	73 07       	cpc	r23, r19
    244e:	84 07       	cpc	r24, r20
    2450:	95 07       	cpc	r25, r21
    2452:	18 f0       	brcs	.+6      	; 0x245a <__addsf3x+0x18>
    2454:	71 f4       	brne	.+28     	; 0x2472 <__addsf3x+0x30>
    2456:	9e f5       	brtc	.+102    	; 0x24be <__addsf3x+0x7c>
    2458:	8a c1       	rjmp	.+788    	; 0x276e <__fp_zero>
    245a:	0e f4       	brtc	.+2      	; 0x245e <__addsf3x+0x1c>
    245c:	e0 95       	com	r30
    245e:	0b 2e       	mov	r0, r27
    2460:	ba 2f       	mov	r27, r26
    2462:	a0 2d       	mov	r26, r0
    2464:	0b 01       	movw	r0, r22
    2466:	b9 01       	movw	r22, r18
    2468:	90 01       	movw	r18, r0
    246a:	0c 01       	movw	r0, r24
    246c:	ca 01       	movw	r24, r20
    246e:	a0 01       	movw	r20, r0
    2470:	11 24       	eor	r1, r1
    2472:	ff 27       	eor	r31, r31
    2474:	59 1b       	sub	r21, r25
    2476:	99 f0       	breq	.+38     	; 0x249e <__addsf3x+0x5c>
    2478:	59 3f       	cpi	r21, 0xF9	; 249
    247a:	50 f4       	brcc	.+20     	; 0x2490 <__addsf3x+0x4e>
    247c:	50 3e       	cpi	r21, 0xE0	; 224
    247e:	68 f1       	brcs	.+90     	; 0x24da <__addsf3x+0x98>
    2480:	1a 16       	cp	r1, r26
    2482:	f0 40       	sbci	r31, 0x00	; 0
    2484:	a2 2f       	mov	r26, r18
    2486:	23 2f       	mov	r18, r19
    2488:	34 2f       	mov	r19, r20
    248a:	44 27       	eor	r20, r20
    248c:	58 5f       	subi	r21, 0xF8	; 248
    248e:	f3 cf       	rjmp	.-26     	; 0x2476 <__addsf3x+0x34>
    2490:	46 95       	lsr	r20
    2492:	37 95       	ror	r19
    2494:	27 95       	ror	r18
    2496:	a7 95       	ror	r26
    2498:	f0 40       	sbci	r31, 0x00	; 0
    249a:	53 95       	inc	r21
    249c:	c9 f7       	brne	.-14     	; 0x2490 <__addsf3x+0x4e>
    249e:	7e f4       	brtc	.+30     	; 0x24be <__addsf3x+0x7c>
    24a0:	1f 16       	cp	r1, r31
    24a2:	ba 0b       	sbc	r27, r26
    24a4:	62 0b       	sbc	r22, r18
    24a6:	73 0b       	sbc	r23, r19
    24a8:	84 0b       	sbc	r24, r20
    24aa:	ba f0       	brmi	.+46     	; 0x24da <__addsf3x+0x98>
    24ac:	91 50       	subi	r25, 0x01	; 1
    24ae:	a1 f0       	breq	.+40     	; 0x24d8 <__addsf3x+0x96>
    24b0:	ff 0f       	add	r31, r31
    24b2:	bb 1f       	adc	r27, r27
    24b4:	66 1f       	adc	r22, r22
    24b6:	77 1f       	adc	r23, r23
    24b8:	88 1f       	adc	r24, r24
    24ba:	c2 f7       	brpl	.-16     	; 0x24ac <__addsf3x+0x6a>
    24bc:	0e c0       	rjmp	.+28     	; 0x24da <__addsf3x+0x98>
    24be:	ba 0f       	add	r27, r26
    24c0:	62 1f       	adc	r22, r18
    24c2:	73 1f       	adc	r23, r19
    24c4:	84 1f       	adc	r24, r20
    24c6:	48 f4       	brcc	.+18     	; 0x24da <__addsf3x+0x98>
    24c8:	87 95       	ror	r24
    24ca:	77 95       	ror	r23
    24cc:	67 95       	ror	r22
    24ce:	b7 95       	ror	r27
    24d0:	f7 95       	ror	r31
    24d2:	9e 3f       	cpi	r25, 0xFE	; 254
    24d4:	08 f0       	brcs	.+2      	; 0x24d8 <__addsf3x+0x96>
    24d6:	b3 cf       	rjmp	.-154    	; 0x243e <__addsf3+0x1e>
    24d8:	93 95       	inc	r25
    24da:	88 0f       	add	r24, r24
    24dc:	08 f0       	brcs	.+2      	; 0x24e0 <__addsf3x+0x9e>
    24de:	99 27       	eor	r25, r25
    24e0:	ee 0f       	add	r30, r30
    24e2:	97 95       	ror	r25
    24e4:	87 95       	ror	r24
    24e6:	08 95       	ret

000024e8 <__cmpsf2>:
    24e8:	d4 d0       	rcall	.+424    	; 0x2692 <__fp_cmp>
    24ea:	08 f4       	brcc	.+2      	; 0x24ee <__cmpsf2+0x6>
    24ec:	81 e0       	ldi	r24, 0x01	; 1
    24ee:	08 95       	ret

000024f0 <__divsf3>:
    24f0:	0c d0       	rcall	.+24     	; 0x250a <__divsf3x>
    24f2:	0a c1       	rjmp	.+532    	; 0x2708 <__fp_round>
    24f4:	02 d1       	rcall	.+516    	; 0x26fa <__fp_pscB>
    24f6:	40 f0       	brcs	.+16     	; 0x2508 <__divsf3+0x18>
    24f8:	f9 d0       	rcall	.+498    	; 0x26ec <__fp_pscA>
    24fa:	30 f0       	brcs	.+12     	; 0x2508 <__divsf3+0x18>
    24fc:	21 f4       	brne	.+8      	; 0x2506 <__divsf3+0x16>
    24fe:	5f 3f       	cpi	r21, 0xFF	; 255
    2500:	19 f0       	breq	.+6      	; 0x2508 <__divsf3+0x18>
    2502:	eb c0       	rjmp	.+470    	; 0x26da <__fp_inf>
    2504:	51 11       	cpse	r21, r1
    2506:	34 c1       	rjmp	.+616    	; 0x2770 <__fp_szero>
    2508:	ee c0       	rjmp	.+476    	; 0x26e6 <__fp_nan>

0000250a <__divsf3x>:
    250a:	0f d1       	rcall	.+542    	; 0x272a <__fp_split3>
    250c:	98 f3       	brcs	.-26     	; 0x24f4 <__divsf3+0x4>

0000250e <__divsf3_pse>:
    250e:	99 23       	and	r25, r25
    2510:	c9 f3       	breq	.-14     	; 0x2504 <__divsf3+0x14>
    2512:	55 23       	and	r21, r21
    2514:	b1 f3       	breq	.-20     	; 0x2502 <__divsf3+0x12>
    2516:	95 1b       	sub	r25, r21
    2518:	55 0b       	sbc	r21, r21
    251a:	bb 27       	eor	r27, r27
    251c:	aa 27       	eor	r26, r26
    251e:	62 17       	cp	r22, r18
    2520:	73 07       	cpc	r23, r19
    2522:	84 07       	cpc	r24, r20
    2524:	38 f0       	brcs	.+14     	; 0x2534 <__divsf3_pse+0x26>
    2526:	9f 5f       	subi	r25, 0xFF	; 255
    2528:	5f 4f       	sbci	r21, 0xFF	; 255
    252a:	22 0f       	add	r18, r18
    252c:	33 1f       	adc	r19, r19
    252e:	44 1f       	adc	r20, r20
    2530:	aa 1f       	adc	r26, r26
    2532:	a9 f3       	breq	.-22     	; 0x251e <__divsf3_pse+0x10>
    2534:	33 d0       	rcall	.+102    	; 0x259c <__divsf3_pse+0x8e>
    2536:	0e 2e       	mov	r0, r30
    2538:	3a f0       	brmi	.+14     	; 0x2548 <__divsf3_pse+0x3a>
    253a:	e0 e8       	ldi	r30, 0x80	; 128
    253c:	30 d0       	rcall	.+96     	; 0x259e <__divsf3_pse+0x90>
    253e:	91 50       	subi	r25, 0x01	; 1
    2540:	50 40       	sbci	r21, 0x00	; 0
    2542:	e6 95       	lsr	r30
    2544:	00 1c       	adc	r0, r0
    2546:	ca f7       	brpl	.-14     	; 0x253a <__divsf3_pse+0x2c>
    2548:	29 d0       	rcall	.+82     	; 0x259c <__divsf3_pse+0x8e>
    254a:	fe 2f       	mov	r31, r30
    254c:	27 d0       	rcall	.+78     	; 0x259c <__divsf3_pse+0x8e>
    254e:	66 0f       	add	r22, r22
    2550:	77 1f       	adc	r23, r23
    2552:	88 1f       	adc	r24, r24
    2554:	bb 1f       	adc	r27, r27
    2556:	26 17       	cp	r18, r22
    2558:	37 07       	cpc	r19, r23
    255a:	48 07       	cpc	r20, r24
    255c:	ab 07       	cpc	r26, r27
    255e:	b0 e8       	ldi	r27, 0x80	; 128
    2560:	09 f0       	breq	.+2      	; 0x2564 <__divsf3_pse+0x56>
    2562:	bb 0b       	sbc	r27, r27
    2564:	80 2d       	mov	r24, r0
    2566:	bf 01       	movw	r22, r30
    2568:	ff 27       	eor	r31, r31
    256a:	93 58       	subi	r25, 0x83	; 131
    256c:	5f 4f       	sbci	r21, 0xFF	; 255
    256e:	2a f0       	brmi	.+10     	; 0x257a <__divsf3_pse+0x6c>
    2570:	9e 3f       	cpi	r25, 0xFE	; 254
    2572:	51 05       	cpc	r21, r1
    2574:	68 f0       	brcs	.+26     	; 0x2590 <__divsf3_pse+0x82>
    2576:	b1 c0       	rjmp	.+354    	; 0x26da <__fp_inf>
    2578:	fb c0       	rjmp	.+502    	; 0x2770 <__fp_szero>
    257a:	5f 3f       	cpi	r21, 0xFF	; 255
    257c:	ec f3       	brlt	.-6      	; 0x2578 <__divsf3_pse+0x6a>
    257e:	98 3e       	cpi	r25, 0xE8	; 232
    2580:	dc f3       	brlt	.-10     	; 0x2578 <__divsf3_pse+0x6a>
    2582:	86 95       	lsr	r24
    2584:	77 95       	ror	r23
    2586:	67 95       	ror	r22
    2588:	b7 95       	ror	r27
    258a:	f7 95       	ror	r31
    258c:	9f 5f       	subi	r25, 0xFF	; 255
    258e:	c9 f7       	brne	.-14     	; 0x2582 <__divsf3_pse+0x74>
    2590:	88 0f       	add	r24, r24
    2592:	91 1d       	adc	r25, r1
    2594:	96 95       	lsr	r25
    2596:	87 95       	ror	r24
    2598:	97 f9       	bld	r25, 7
    259a:	08 95       	ret
    259c:	e1 e0       	ldi	r30, 0x01	; 1
    259e:	66 0f       	add	r22, r22
    25a0:	77 1f       	adc	r23, r23
    25a2:	88 1f       	adc	r24, r24
    25a4:	bb 1f       	adc	r27, r27
    25a6:	62 17       	cp	r22, r18
    25a8:	73 07       	cpc	r23, r19
    25aa:	84 07       	cpc	r24, r20
    25ac:	ba 07       	cpc	r27, r26
    25ae:	20 f0       	brcs	.+8      	; 0x25b8 <__divsf3_pse+0xaa>
    25b0:	62 1b       	sub	r22, r18
    25b2:	73 0b       	sbc	r23, r19
    25b4:	84 0b       	sbc	r24, r20
    25b6:	ba 0b       	sbc	r27, r26
    25b8:	ee 1f       	adc	r30, r30
    25ba:	88 f7       	brcc	.-30     	; 0x259e <__divsf3_pse+0x90>
    25bc:	e0 95       	com	r30
    25be:	08 95       	ret

000025c0 <__fixunssfsi>:
    25c0:	bc d0       	rcall	.+376    	; 0x273a <__fp_splitA>
    25c2:	88 f0       	brcs	.+34     	; 0x25e6 <__fixunssfsi+0x26>
    25c4:	9f 57       	subi	r25, 0x7F	; 127
    25c6:	90 f0       	brcs	.+36     	; 0x25ec <__fixunssfsi+0x2c>
    25c8:	b9 2f       	mov	r27, r25
    25ca:	99 27       	eor	r25, r25
    25cc:	b7 51       	subi	r27, 0x17	; 23
    25ce:	a0 f0       	brcs	.+40     	; 0x25f8 <__fixunssfsi+0x38>
    25d0:	d1 f0       	breq	.+52     	; 0x2606 <__fixunssfsi+0x46>
    25d2:	66 0f       	add	r22, r22
    25d4:	77 1f       	adc	r23, r23
    25d6:	88 1f       	adc	r24, r24
    25d8:	99 1f       	adc	r25, r25
    25da:	1a f0       	brmi	.+6      	; 0x25e2 <__fixunssfsi+0x22>
    25dc:	ba 95       	dec	r27
    25de:	c9 f7       	brne	.-14     	; 0x25d2 <__fixunssfsi+0x12>
    25e0:	12 c0       	rjmp	.+36     	; 0x2606 <__fixunssfsi+0x46>
    25e2:	b1 30       	cpi	r27, 0x01	; 1
    25e4:	81 f0       	breq	.+32     	; 0x2606 <__fixunssfsi+0x46>
    25e6:	c3 d0       	rcall	.+390    	; 0x276e <__fp_zero>
    25e8:	b1 e0       	ldi	r27, 0x01	; 1
    25ea:	08 95       	ret
    25ec:	c0 c0       	rjmp	.+384    	; 0x276e <__fp_zero>
    25ee:	67 2f       	mov	r22, r23
    25f0:	78 2f       	mov	r23, r24
    25f2:	88 27       	eor	r24, r24
    25f4:	b8 5f       	subi	r27, 0xF8	; 248
    25f6:	39 f0       	breq	.+14     	; 0x2606 <__fixunssfsi+0x46>
    25f8:	b9 3f       	cpi	r27, 0xF9	; 249
    25fa:	cc f3       	brlt	.-14     	; 0x25ee <__fixunssfsi+0x2e>
    25fc:	86 95       	lsr	r24
    25fe:	77 95       	ror	r23
    2600:	67 95       	ror	r22
    2602:	b3 95       	inc	r27
    2604:	d9 f7       	brne	.-10     	; 0x25fc <__fixunssfsi+0x3c>
    2606:	3e f4       	brtc	.+14     	; 0x2616 <__fixunssfsi+0x56>
    2608:	90 95       	com	r25
    260a:	80 95       	com	r24
    260c:	70 95       	com	r23
    260e:	61 95       	neg	r22
    2610:	7f 4f       	sbci	r23, 0xFF	; 255
    2612:	8f 4f       	sbci	r24, 0xFF	; 255
    2614:	9f 4f       	sbci	r25, 0xFF	; 255
    2616:	08 95       	ret

00002618 <__floatunsisf>:
    2618:	e8 94       	clt
    261a:	09 c0       	rjmp	.+18     	; 0x262e <__floatsisf+0x12>

0000261c <__floatsisf>:
    261c:	97 fb       	bst	r25, 7
    261e:	3e f4       	brtc	.+14     	; 0x262e <__floatsisf+0x12>
    2620:	90 95       	com	r25
    2622:	80 95       	com	r24
    2624:	70 95       	com	r23
    2626:	61 95       	neg	r22
    2628:	7f 4f       	sbci	r23, 0xFF	; 255
    262a:	8f 4f       	sbci	r24, 0xFF	; 255
    262c:	9f 4f       	sbci	r25, 0xFF	; 255
    262e:	99 23       	and	r25, r25
    2630:	a9 f0       	breq	.+42     	; 0x265c <__floatsisf+0x40>
    2632:	f9 2f       	mov	r31, r25
    2634:	96 e9       	ldi	r25, 0x96	; 150
    2636:	bb 27       	eor	r27, r27
    2638:	93 95       	inc	r25
    263a:	f6 95       	lsr	r31
    263c:	87 95       	ror	r24
    263e:	77 95       	ror	r23
    2640:	67 95       	ror	r22
    2642:	b7 95       	ror	r27
    2644:	f1 11       	cpse	r31, r1
    2646:	f8 cf       	rjmp	.-16     	; 0x2638 <__floatsisf+0x1c>
    2648:	fa f4       	brpl	.+62     	; 0x2688 <__floatsisf+0x6c>
    264a:	bb 0f       	add	r27, r27
    264c:	11 f4       	brne	.+4      	; 0x2652 <__floatsisf+0x36>
    264e:	60 ff       	sbrs	r22, 0
    2650:	1b c0       	rjmp	.+54     	; 0x2688 <__floatsisf+0x6c>
    2652:	6f 5f       	subi	r22, 0xFF	; 255
    2654:	7f 4f       	sbci	r23, 0xFF	; 255
    2656:	8f 4f       	sbci	r24, 0xFF	; 255
    2658:	9f 4f       	sbci	r25, 0xFF	; 255
    265a:	16 c0       	rjmp	.+44     	; 0x2688 <__floatsisf+0x6c>
    265c:	88 23       	and	r24, r24
    265e:	11 f0       	breq	.+4      	; 0x2664 <__floatsisf+0x48>
    2660:	96 e9       	ldi	r25, 0x96	; 150
    2662:	11 c0       	rjmp	.+34     	; 0x2686 <__floatsisf+0x6a>
    2664:	77 23       	and	r23, r23
    2666:	21 f0       	breq	.+8      	; 0x2670 <__floatsisf+0x54>
    2668:	9e e8       	ldi	r25, 0x8E	; 142
    266a:	87 2f       	mov	r24, r23
    266c:	76 2f       	mov	r23, r22
    266e:	05 c0       	rjmp	.+10     	; 0x267a <__floatsisf+0x5e>
    2670:	66 23       	and	r22, r22
    2672:	71 f0       	breq	.+28     	; 0x2690 <__floatsisf+0x74>
    2674:	96 e8       	ldi	r25, 0x86	; 134
    2676:	86 2f       	mov	r24, r22
    2678:	70 e0       	ldi	r23, 0x00	; 0
    267a:	60 e0       	ldi	r22, 0x00	; 0
    267c:	2a f0       	brmi	.+10     	; 0x2688 <__floatsisf+0x6c>
    267e:	9a 95       	dec	r25
    2680:	66 0f       	add	r22, r22
    2682:	77 1f       	adc	r23, r23
    2684:	88 1f       	adc	r24, r24
    2686:	da f7       	brpl	.-10     	; 0x267e <__floatsisf+0x62>
    2688:	88 0f       	add	r24, r24
    268a:	96 95       	lsr	r25
    268c:	87 95       	ror	r24
    268e:	97 f9       	bld	r25, 7
    2690:	08 95       	ret

00002692 <__fp_cmp>:
    2692:	99 0f       	add	r25, r25
    2694:	00 08       	sbc	r0, r0
    2696:	55 0f       	add	r21, r21
    2698:	aa 0b       	sbc	r26, r26
    269a:	e0 e8       	ldi	r30, 0x80	; 128
    269c:	fe ef       	ldi	r31, 0xFE	; 254
    269e:	16 16       	cp	r1, r22
    26a0:	17 06       	cpc	r1, r23
    26a2:	e8 07       	cpc	r30, r24
    26a4:	f9 07       	cpc	r31, r25
    26a6:	c0 f0       	brcs	.+48     	; 0x26d8 <__fp_cmp+0x46>
    26a8:	12 16       	cp	r1, r18
    26aa:	13 06       	cpc	r1, r19
    26ac:	e4 07       	cpc	r30, r20
    26ae:	f5 07       	cpc	r31, r21
    26b0:	98 f0       	brcs	.+38     	; 0x26d8 <__fp_cmp+0x46>
    26b2:	62 1b       	sub	r22, r18
    26b4:	73 0b       	sbc	r23, r19
    26b6:	84 0b       	sbc	r24, r20
    26b8:	95 0b       	sbc	r25, r21
    26ba:	39 f4       	brne	.+14     	; 0x26ca <__fp_cmp+0x38>
    26bc:	0a 26       	eor	r0, r26
    26be:	61 f0       	breq	.+24     	; 0x26d8 <__fp_cmp+0x46>
    26c0:	23 2b       	or	r18, r19
    26c2:	24 2b       	or	r18, r20
    26c4:	25 2b       	or	r18, r21
    26c6:	21 f4       	brne	.+8      	; 0x26d0 <__fp_cmp+0x3e>
    26c8:	08 95       	ret
    26ca:	0a 26       	eor	r0, r26
    26cc:	09 f4       	brne	.+2      	; 0x26d0 <__fp_cmp+0x3e>
    26ce:	a1 40       	sbci	r26, 0x01	; 1
    26d0:	a6 95       	lsr	r26
    26d2:	8f ef       	ldi	r24, 0xFF	; 255
    26d4:	81 1d       	adc	r24, r1
    26d6:	81 1d       	adc	r24, r1
    26d8:	08 95       	ret

000026da <__fp_inf>:
    26da:	97 f9       	bld	r25, 7
    26dc:	9f 67       	ori	r25, 0x7F	; 127
    26de:	80 e8       	ldi	r24, 0x80	; 128
    26e0:	70 e0       	ldi	r23, 0x00	; 0
    26e2:	60 e0       	ldi	r22, 0x00	; 0
    26e4:	08 95       	ret

000026e6 <__fp_nan>:
    26e6:	9f ef       	ldi	r25, 0xFF	; 255
    26e8:	80 ec       	ldi	r24, 0xC0	; 192
    26ea:	08 95       	ret

000026ec <__fp_pscA>:
    26ec:	00 24       	eor	r0, r0
    26ee:	0a 94       	dec	r0
    26f0:	16 16       	cp	r1, r22
    26f2:	17 06       	cpc	r1, r23
    26f4:	18 06       	cpc	r1, r24
    26f6:	09 06       	cpc	r0, r25
    26f8:	08 95       	ret

000026fa <__fp_pscB>:
    26fa:	00 24       	eor	r0, r0
    26fc:	0a 94       	dec	r0
    26fe:	12 16       	cp	r1, r18
    2700:	13 06       	cpc	r1, r19
    2702:	14 06       	cpc	r1, r20
    2704:	05 06       	cpc	r0, r21
    2706:	08 95       	ret

00002708 <__fp_round>:
    2708:	09 2e       	mov	r0, r25
    270a:	03 94       	inc	r0
    270c:	00 0c       	add	r0, r0
    270e:	11 f4       	brne	.+4      	; 0x2714 <__fp_round+0xc>
    2710:	88 23       	and	r24, r24
    2712:	52 f0       	brmi	.+20     	; 0x2728 <__fp_round+0x20>
    2714:	bb 0f       	add	r27, r27
    2716:	40 f4       	brcc	.+16     	; 0x2728 <__fp_round+0x20>
    2718:	bf 2b       	or	r27, r31
    271a:	11 f4       	brne	.+4      	; 0x2720 <__fp_round+0x18>
    271c:	60 ff       	sbrs	r22, 0
    271e:	04 c0       	rjmp	.+8      	; 0x2728 <__fp_round+0x20>
    2720:	6f 5f       	subi	r22, 0xFF	; 255
    2722:	7f 4f       	sbci	r23, 0xFF	; 255
    2724:	8f 4f       	sbci	r24, 0xFF	; 255
    2726:	9f 4f       	sbci	r25, 0xFF	; 255
    2728:	08 95       	ret

0000272a <__fp_split3>:
    272a:	57 fd       	sbrc	r21, 7
    272c:	90 58       	subi	r25, 0x80	; 128
    272e:	44 0f       	add	r20, r20
    2730:	55 1f       	adc	r21, r21
    2732:	59 f0       	breq	.+22     	; 0x274a <__fp_splitA+0x10>
    2734:	5f 3f       	cpi	r21, 0xFF	; 255
    2736:	71 f0       	breq	.+28     	; 0x2754 <__fp_splitA+0x1a>
    2738:	47 95       	ror	r20

0000273a <__fp_splitA>:
    273a:	88 0f       	add	r24, r24
    273c:	97 fb       	bst	r25, 7
    273e:	99 1f       	adc	r25, r25
    2740:	61 f0       	breq	.+24     	; 0x275a <__fp_splitA+0x20>
    2742:	9f 3f       	cpi	r25, 0xFF	; 255
    2744:	79 f0       	breq	.+30     	; 0x2764 <__fp_splitA+0x2a>
    2746:	87 95       	ror	r24
    2748:	08 95       	ret
    274a:	12 16       	cp	r1, r18
    274c:	13 06       	cpc	r1, r19
    274e:	14 06       	cpc	r1, r20
    2750:	55 1f       	adc	r21, r21
    2752:	f2 cf       	rjmp	.-28     	; 0x2738 <__fp_split3+0xe>
    2754:	46 95       	lsr	r20
    2756:	f1 df       	rcall	.-30     	; 0x273a <__fp_splitA>
    2758:	08 c0       	rjmp	.+16     	; 0x276a <__fp_splitA+0x30>
    275a:	16 16       	cp	r1, r22
    275c:	17 06       	cpc	r1, r23
    275e:	18 06       	cpc	r1, r24
    2760:	99 1f       	adc	r25, r25
    2762:	f1 cf       	rjmp	.-30     	; 0x2746 <__fp_splitA+0xc>
    2764:	86 95       	lsr	r24
    2766:	71 05       	cpc	r23, r1
    2768:	61 05       	cpc	r22, r1
    276a:	08 94       	sec
    276c:	08 95       	ret

0000276e <__fp_zero>:
    276e:	e8 94       	clt

00002770 <__fp_szero>:
    2770:	bb 27       	eor	r27, r27
    2772:	66 27       	eor	r22, r22
    2774:	77 27       	eor	r23, r23
    2776:	cb 01       	movw	r24, r22
    2778:	97 f9       	bld	r25, 7
    277a:	08 95       	ret

0000277c <__mulsf3>:
    277c:	0b d0       	rcall	.+22     	; 0x2794 <__mulsf3x>
    277e:	c4 cf       	rjmp	.-120    	; 0x2708 <__fp_round>
    2780:	b5 df       	rcall	.-150    	; 0x26ec <__fp_pscA>
    2782:	28 f0       	brcs	.+10     	; 0x278e <__mulsf3+0x12>
    2784:	ba df       	rcall	.-140    	; 0x26fa <__fp_pscB>
    2786:	18 f0       	brcs	.+6      	; 0x278e <__mulsf3+0x12>
    2788:	95 23       	and	r25, r21
    278a:	09 f0       	breq	.+2      	; 0x278e <__mulsf3+0x12>
    278c:	a6 cf       	rjmp	.-180    	; 0x26da <__fp_inf>
    278e:	ab cf       	rjmp	.-170    	; 0x26e6 <__fp_nan>
    2790:	11 24       	eor	r1, r1
    2792:	ee cf       	rjmp	.-36     	; 0x2770 <__fp_szero>

00002794 <__mulsf3x>:
    2794:	ca df       	rcall	.-108    	; 0x272a <__fp_split3>
    2796:	a0 f3       	brcs	.-24     	; 0x2780 <__mulsf3+0x4>

00002798 <__mulsf3_pse>:
    2798:	95 9f       	mul	r25, r21
    279a:	d1 f3       	breq	.-12     	; 0x2790 <__mulsf3+0x14>
    279c:	95 0f       	add	r25, r21
    279e:	50 e0       	ldi	r21, 0x00	; 0
    27a0:	55 1f       	adc	r21, r21
    27a2:	62 9f       	mul	r22, r18
    27a4:	f0 01       	movw	r30, r0
    27a6:	72 9f       	mul	r23, r18
    27a8:	bb 27       	eor	r27, r27
    27aa:	f0 0d       	add	r31, r0
    27ac:	b1 1d       	adc	r27, r1
    27ae:	63 9f       	mul	r22, r19
    27b0:	aa 27       	eor	r26, r26
    27b2:	f0 0d       	add	r31, r0
    27b4:	b1 1d       	adc	r27, r1
    27b6:	aa 1f       	adc	r26, r26
    27b8:	64 9f       	mul	r22, r20
    27ba:	66 27       	eor	r22, r22
    27bc:	b0 0d       	add	r27, r0
    27be:	a1 1d       	adc	r26, r1
    27c0:	66 1f       	adc	r22, r22
    27c2:	82 9f       	mul	r24, r18
    27c4:	22 27       	eor	r18, r18
    27c6:	b0 0d       	add	r27, r0
    27c8:	a1 1d       	adc	r26, r1
    27ca:	62 1f       	adc	r22, r18
    27cc:	73 9f       	mul	r23, r19
    27ce:	b0 0d       	add	r27, r0
    27d0:	a1 1d       	adc	r26, r1
    27d2:	62 1f       	adc	r22, r18
    27d4:	83 9f       	mul	r24, r19
    27d6:	a0 0d       	add	r26, r0
    27d8:	61 1d       	adc	r22, r1
    27da:	22 1f       	adc	r18, r18
    27dc:	74 9f       	mul	r23, r20
    27de:	33 27       	eor	r19, r19
    27e0:	a0 0d       	add	r26, r0
    27e2:	61 1d       	adc	r22, r1
    27e4:	23 1f       	adc	r18, r19
    27e6:	84 9f       	mul	r24, r20
    27e8:	60 0d       	add	r22, r0
    27ea:	21 1d       	adc	r18, r1
    27ec:	82 2f       	mov	r24, r18
    27ee:	76 2f       	mov	r23, r22
    27f0:	6a 2f       	mov	r22, r26
    27f2:	11 24       	eor	r1, r1
    27f4:	9f 57       	subi	r25, 0x7F	; 127
    27f6:	50 40       	sbci	r21, 0x00	; 0
    27f8:	8a f0       	brmi	.+34     	; 0x281c <__mulsf3_pse+0x84>
    27fa:	e1 f0       	breq	.+56     	; 0x2834 <__mulsf3_pse+0x9c>
    27fc:	88 23       	and	r24, r24
    27fe:	4a f0       	brmi	.+18     	; 0x2812 <__mulsf3_pse+0x7a>
    2800:	ee 0f       	add	r30, r30
    2802:	ff 1f       	adc	r31, r31
    2804:	bb 1f       	adc	r27, r27
    2806:	66 1f       	adc	r22, r22
    2808:	77 1f       	adc	r23, r23
    280a:	88 1f       	adc	r24, r24
    280c:	91 50       	subi	r25, 0x01	; 1
    280e:	50 40       	sbci	r21, 0x00	; 0
    2810:	a9 f7       	brne	.-22     	; 0x27fc <__mulsf3_pse+0x64>
    2812:	9e 3f       	cpi	r25, 0xFE	; 254
    2814:	51 05       	cpc	r21, r1
    2816:	70 f0       	brcs	.+28     	; 0x2834 <__mulsf3_pse+0x9c>
    2818:	60 cf       	rjmp	.-320    	; 0x26da <__fp_inf>
    281a:	aa cf       	rjmp	.-172    	; 0x2770 <__fp_szero>
    281c:	5f 3f       	cpi	r21, 0xFF	; 255
    281e:	ec f3       	brlt	.-6      	; 0x281a <__mulsf3_pse+0x82>
    2820:	98 3e       	cpi	r25, 0xE8	; 232
    2822:	dc f3       	brlt	.-10     	; 0x281a <__mulsf3_pse+0x82>
    2824:	86 95       	lsr	r24
    2826:	77 95       	ror	r23
    2828:	67 95       	ror	r22
    282a:	b7 95       	ror	r27
    282c:	f7 95       	ror	r31
    282e:	e7 95       	ror	r30
    2830:	9f 5f       	subi	r25, 0xFF	; 255
    2832:	c1 f7       	brne	.-16     	; 0x2824 <__mulsf3_pse+0x8c>
    2834:	fe 2b       	or	r31, r30
    2836:	88 0f       	add	r24, r24
    2838:	91 1d       	adc	r25, r1
    283a:	96 95       	lsr	r25
    283c:	87 95       	ror	r24
    283e:	97 f9       	bld	r25, 7
    2840:	08 95       	ret

00002842 <__mulsi3>:
    2842:	db 01       	movw	r26, r22
    2844:	8f 93       	push	r24
    2846:	9f 93       	push	r25
    2848:	36 d0       	rcall	.+108    	; 0x28b6 <__muluhisi3>
    284a:	bf 91       	pop	r27
    284c:	af 91       	pop	r26
    284e:	a2 9f       	mul	r26, r18
    2850:	80 0d       	add	r24, r0
    2852:	91 1d       	adc	r25, r1
    2854:	a3 9f       	mul	r26, r19
    2856:	90 0d       	add	r25, r0
    2858:	b2 9f       	mul	r27, r18
    285a:	90 0d       	add	r25, r0
    285c:	11 24       	eor	r1, r1
    285e:	08 95       	ret

00002860 <__udivmodsi4>:
    2860:	a1 e2       	ldi	r26, 0x21	; 33
    2862:	1a 2e       	mov	r1, r26
    2864:	aa 1b       	sub	r26, r26
    2866:	bb 1b       	sub	r27, r27
    2868:	fd 01       	movw	r30, r26
    286a:	0d c0       	rjmp	.+26     	; 0x2886 <__udivmodsi4_ep>

0000286c <__udivmodsi4_loop>:
    286c:	aa 1f       	adc	r26, r26
    286e:	bb 1f       	adc	r27, r27
    2870:	ee 1f       	adc	r30, r30
    2872:	ff 1f       	adc	r31, r31
    2874:	a2 17       	cp	r26, r18
    2876:	b3 07       	cpc	r27, r19
    2878:	e4 07       	cpc	r30, r20
    287a:	f5 07       	cpc	r31, r21
    287c:	20 f0       	brcs	.+8      	; 0x2886 <__udivmodsi4_ep>
    287e:	a2 1b       	sub	r26, r18
    2880:	b3 0b       	sbc	r27, r19
    2882:	e4 0b       	sbc	r30, r20
    2884:	f5 0b       	sbc	r31, r21

00002886 <__udivmodsi4_ep>:
    2886:	66 1f       	adc	r22, r22
    2888:	77 1f       	adc	r23, r23
    288a:	88 1f       	adc	r24, r24
    288c:	99 1f       	adc	r25, r25
    288e:	1a 94       	dec	r1
    2890:	69 f7       	brne	.-38     	; 0x286c <__udivmodsi4_loop>
    2892:	60 95       	com	r22
    2894:	70 95       	com	r23
    2896:	80 95       	com	r24
    2898:	90 95       	com	r25
    289a:	9b 01       	movw	r18, r22
    289c:	ac 01       	movw	r20, r24
    289e:	bd 01       	movw	r22, r26
    28a0:	cf 01       	movw	r24, r30
    28a2:	08 95       	ret

000028a4 <__tablejump2__>:
    28a4:	ee 0f       	add	r30, r30
    28a6:	ff 1f       	adc	r31, r31
    28a8:	00 24       	eor	r0, r0
    28aa:	00 1c       	adc	r0, r0
    28ac:	0b be       	out	0x3b, r0	; 59
    28ae:	07 90       	elpm	r0, Z+
    28b0:	f6 91       	elpm	r31, Z
    28b2:	e0 2d       	mov	r30, r0
    28b4:	09 94       	ijmp

000028b6 <__muluhisi3>:
    28b6:	09 d0       	rcall	.+18     	; 0x28ca <__umulhisi3>
    28b8:	a5 9f       	mul	r26, r21
    28ba:	90 0d       	add	r25, r0
    28bc:	b4 9f       	mul	r27, r20
    28be:	90 0d       	add	r25, r0
    28c0:	a4 9f       	mul	r26, r20
    28c2:	80 0d       	add	r24, r0
    28c4:	91 1d       	adc	r25, r1
    28c6:	11 24       	eor	r1, r1
    28c8:	08 95       	ret

000028ca <__umulhisi3>:
    28ca:	a2 9f       	mul	r26, r18
    28cc:	b0 01       	movw	r22, r0
    28ce:	b3 9f       	mul	r27, r19
    28d0:	c0 01       	movw	r24, r0
    28d2:	a3 9f       	mul	r26, r19
    28d4:	70 0d       	add	r23, r0
    28d6:	81 1d       	adc	r24, r1
    28d8:	11 24       	eor	r1, r1
    28da:	91 1d       	adc	r25, r1
    28dc:	b2 9f       	mul	r27, r18
    28de:	70 0d       	add	r23, r0
    28e0:	81 1d       	adc	r24, r1
    28e2:	11 24       	eor	r1, r1
    28e4:	91 1d       	adc	r25, r1
    28e6:	08 95       	ret

000028e8 <fdevopen>:
    28e8:	0f 93       	push	r16
    28ea:	1f 93       	push	r17
    28ec:	cf 93       	push	r28
    28ee:	df 93       	push	r29
    28f0:	00 97       	sbiw	r24, 0x00	; 0
    28f2:	31 f4       	brne	.+12     	; 0x2900 <fdevopen+0x18>
    28f4:	61 15       	cp	r22, r1
    28f6:	71 05       	cpc	r23, r1
    28f8:	19 f4       	brne	.+6      	; 0x2900 <fdevopen+0x18>
    28fa:	80 e0       	ldi	r24, 0x00	; 0
    28fc:	90 e0       	ldi	r25, 0x00	; 0
    28fe:	39 c0       	rjmp	.+114    	; 0x2972 <fdevopen+0x8a>
    2900:	8b 01       	movw	r16, r22
    2902:	ec 01       	movw	r28, r24
    2904:	6e e0       	ldi	r22, 0x0E	; 14
    2906:	70 e0       	ldi	r23, 0x00	; 0
    2908:	81 e0       	ldi	r24, 0x01	; 1
    290a:	90 e0       	ldi	r25, 0x00	; 0
    290c:	75 d2       	rcall	.+1258   	; 0x2df8 <calloc>
    290e:	fc 01       	movw	r30, r24
    2910:	89 2b       	or	r24, r25
    2912:	99 f3       	breq	.-26     	; 0x28fa <fdevopen+0x12>
    2914:	80 e8       	ldi	r24, 0x80	; 128
    2916:	83 83       	std	Z+3, r24	; 0x03
    2918:	01 15       	cp	r16, r1
    291a:	11 05       	cpc	r17, r1
    291c:	71 f0       	breq	.+28     	; 0x293a <fdevopen+0x52>
    291e:	13 87       	std	Z+11, r17	; 0x0b
    2920:	02 87       	std	Z+10, r16	; 0x0a
    2922:	81 e8       	ldi	r24, 0x81	; 129
    2924:	83 83       	std	Z+3, r24	; 0x03
    2926:	80 91 b5 09 	lds	r24, 0x09B5	; 0x8009b5 <__iob>
    292a:	90 91 b6 09 	lds	r25, 0x09B6	; 0x8009b6 <__iob+0x1>
    292e:	89 2b       	or	r24, r25
    2930:	21 f4       	brne	.+8      	; 0x293a <fdevopen+0x52>
    2932:	f0 93 b6 09 	sts	0x09B6, r31	; 0x8009b6 <__iob+0x1>
    2936:	e0 93 b5 09 	sts	0x09B5, r30	; 0x8009b5 <__iob>
    293a:	20 97       	sbiw	r28, 0x00	; 0
    293c:	c9 f0       	breq	.+50     	; 0x2970 <fdevopen+0x88>
    293e:	d1 87       	std	Z+9, r29	; 0x09
    2940:	c0 87       	std	Z+8, r28	; 0x08
    2942:	83 81       	ldd	r24, Z+3	; 0x03
    2944:	82 60       	ori	r24, 0x02	; 2
    2946:	83 83       	std	Z+3, r24	; 0x03
    2948:	80 91 b7 09 	lds	r24, 0x09B7	; 0x8009b7 <__iob+0x2>
    294c:	90 91 b8 09 	lds	r25, 0x09B8	; 0x8009b8 <__iob+0x3>
    2950:	89 2b       	or	r24, r25
    2952:	71 f4       	brne	.+28     	; 0x2970 <fdevopen+0x88>
    2954:	f0 93 b8 09 	sts	0x09B8, r31	; 0x8009b8 <__iob+0x3>
    2958:	e0 93 b7 09 	sts	0x09B7, r30	; 0x8009b7 <__iob+0x2>
    295c:	80 91 b9 09 	lds	r24, 0x09B9	; 0x8009b9 <__iob+0x4>
    2960:	90 91 ba 09 	lds	r25, 0x09BA	; 0x8009ba <__iob+0x5>
    2964:	89 2b       	or	r24, r25
    2966:	21 f4       	brne	.+8      	; 0x2970 <fdevopen+0x88>
    2968:	f0 93 ba 09 	sts	0x09BA, r31	; 0x8009ba <__iob+0x5>
    296c:	e0 93 b9 09 	sts	0x09B9, r30	; 0x8009b9 <__iob+0x4>
    2970:	cf 01       	movw	r24, r30
    2972:	df 91       	pop	r29
    2974:	cf 91       	pop	r28
    2976:	1f 91       	pop	r17
    2978:	0f 91       	pop	r16
    297a:	08 95       	ret

0000297c <printf>:
    297c:	cf 93       	push	r28
    297e:	df 93       	push	r29
    2980:	cd b7       	in	r28, 0x3d	; 61
    2982:	de b7       	in	r29, 0x3e	; 62
    2984:	ae 01       	movw	r20, r28
    2986:	4b 5f       	subi	r20, 0xFB	; 251
    2988:	5f 4f       	sbci	r21, 0xFF	; 255
    298a:	fa 01       	movw	r30, r20
    298c:	61 91       	ld	r22, Z+
    298e:	71 91       	ld	r23, Z+
    2990:	af 01       	movw	r20, r30
    2992:	80 91 b7 09 	lds	r24, 0x09B7	; 0x8009b7 <__iob+0x2>
    2996:	90 91 b8 09 	lds	r25, 0x09B8	; 0x8009b8 <__iob+0x3>
    299a:	31 d0       	rcall	.+98     	; 0x29fe <vfprintf>
    299c:	df 91       	pop	r29
    299e:	cf 91       	pop	r28
    29a0:	08 95       	ret

000029a2 <sprintf>:
    29a2:	0f 93       	push	r16
    29a4:	1f 93       	push	r17
    29a6:	cf 93       	push	r28
    29a8:	df 93       	push	r29
    29aa:	cd b7       	in	r28, 0x3d	; 61
    29ac:	de b7       	in	r29, 0x3e	; 62
    29ae:	2e 97       	sbiw	r28, 0x0e	; 14
    29b0:	0f b6       	in	r0, 0x3f	; 63
    29b2:	f8 94       	cli
    29b4:	de bf       	out	0x3e, r29	; 62
    29b6:	0f be       	out	0x3f, r0	; 63
    29b8:	cd bf       	out	0x3d, r28	; 61
    29ba:	0d 89       	ldd	r16, Y+21	; 0x15
    29bc:	1e 89       	ldd	r17, Y+22	; 0x16
    29be:	86 e0       	ldi	r24, 0x06	; 6
    29c0:	8c 83       	std	Y+4, r24	; 0x04
    29c2:	1a 83       	std	Y+2, r17	; 0x02
    29c4:	09 83       	std	Y+1, r16	; 0x01
    29c6:	8f ef       	ldi	r24, 0xFF	; 255
    29c8:	9f e7       	ldi	r25, 0x7F	; 127
    29ca:	9e 83       	std	Y+6, r25	; 0x06
    29cc:	8d 83       	std	Y+5, r24	; 0x05
    29ce:	ae 01       	movw	r20, r28
    29d0:	47 5e       	subi	r20, 0xE7	; 231
    29d2:	5f 4f       	sbci	r21, 0xFF	; 255
    29d4:	6f 89       	ldd	r22, Y+23	; 0x17
    29d6:	78 8d       	ldd	r23, Y+24	; 0x18
    29d8:	ce 01       	movw	r24, r28
    29da:	01 96       	adiw	r24, 0x01	; 1
    29dc:	10 d0       	rcall	.+32     	; 0x29fe <vfprintf>
    29de:	ef 81       	ldd	r30, Y+7	; 0x07
    29e0:	f8 85       	ldd	r31, Y+8	; 0x08
    29e2:	e0 0f       	add	r30, r16
    29e4:	f1 1f       	adc	r31, r17
    29e6:	10 82       	st	Z, r1
    29e8:	2e 96       	adiw	r28, 0x0e	; 14
    29ea:	0f b6       	in	r0, 0x3f	; 63
    29ec:	f8 94       	cli
    29ee:	de bf       	out	0x3e, r29	; 62
    29f0:	0f be       	out	0x3f, r0	; 63
    29f2:	cd bf       	out	0x3d, r28	; 61
    29f4:	df 91       	pop	r29
    29f6:	cf 91       	pop	r28
    29f8:	1f 91       	pop	r17
    29fa:	0f 91       	pop	r16
    29fc:	08 95       	ret

000029fe <vfprintf>:
    29fe:	2f 92       	push	r2
    2a00:	3f 92       	push	r3
    2a02:	4f 92       	push	r4
    2a04:	5f 92       	push	r5
    2a06:	6f 92       	push	r6
    2a08:	7f 92       	push	r7
    2a0a:	8f 92       	push	r8
    2a0c:	9f 92       	push	r9
    2a0e:	af 92       	push	r10
    2a10:	bf 92       	push	r11
    2a12:	cf 92       	push	r12
    2a14:	df 92       	push	r13
    2a16:	ef 92       	push	r14
    2a18:	ff 92       	push	r15
    2a1a:	0f 93       	push	r16
    2a1c:	1f 93       	push	r17
    2a1e:	cf 93       	push	r28
    2a20:	df 93       	push	r29
    2a22:	cd b7       	in	r28, 0x3d	; 61
    2a24:	de b7       	in	r29, 0x3e	; 62
    2a26:	2b 97       	sbiw	r28, 0x0b	; 11
    2a28:	0f b6       	in	r0, 0x3f	; 63
    2a2a:	f8 94       	cli
    2a2c:	de bf       	out	0x3e, r29	; 62
    2a2e:	0f be       	out	0x3f, r0	; 63
    2a30:	cd bf       	out	0x3d, r28	; 61
    2a32:	6c 01       	movw	r12, r24
    2a34:	7b 01       	movw	r14, r22
    2a36:	8a 01       	movw	r16, r20
    2a38:	fc 01       	movw	r30, r24
    2a3a:	17 82       	std	Z+7, r1	; 0x07
    2a3c:	16 82       	std	Z+6, r1	; 0x06
    2a3e:	83 81       	ldd	r24, Z+3	; 0x03
    2a40:	81 ff       	sbrs	r24, 1
    2a42:	bf c1       	rjmp	.+894    	; 0x2dc2 <vfprintf+0x3c4>
    2a44:	ce 01       	movw	r24, r28
    2a46:	01 96       	adiw	r24, 0x01	; 1
    2a48:	3c 01       	movw	r6, r24
    2a4a:	f6 01       	movw	r30, r12
    2a4c:	93 81       	ldd	r25, Z+3	; 0x03
    2a4e:	f7 01       	movw	r30, r14
    2a50:	93 fd       	sbrc	r25, 3
    2a52:	85 91       	lpm	r24, Z+
    2a54:	93 ff       	sbrs	r25, 3
    2a56:	81 91       	ld	r24, Z+
    2a58:	7f 01       	movw	r14, r30
    2a5a:	88 23       	and	r24, r24
    2a5c:	09 f4       	brne	.+2      	; 0x2a60 <vfprintf+0x62>
    2a5e:	ad c1       	rjmp	.+858    	; 0x2dba <vfprintf+0x3bc>
    2a60:	85 32       	cpi	r24, 0x25	; 37
    2a62:	39 f4       	brne	.+14     	; 0x2a72 <vfprintf+0x74>
    2a64:	93 fd       	sbrc	r25, 3
    2a66:	85 91       	lpm	r24, Z+
    2a68:	93 ff       	sbrs	r25, 3
    2a6a:	81 91       	ld	r24, Z+
    2a6c:	7f 01       	movw	r14, r30
    2a6e:	85 32       	cpi	r24, 0x25	; 37
    2a70:	21 f4       	brne	.+8      	; 0x2a7a <vfprintf+0x7c>
    2a72:	b6 01       	movw	r22, r12
    2a74:	90 e0       	ldi	r25, 0x00	; 0
    2a76:	18 d3       	rcall	.+1584   	; 0x30a8 <fputc>
    2a78:	e8 cf       	rjmp	.-48     	; 0x2a4a <vfprintf+0x4c>
    2a7a:	91 2c       	mov	r9, r1
    2a7c:	21 2c       	mov	r2, r1
    2a7e:	31 2c       	mov	r3, r1
    2a80:	ff e1       	ldi	r31, 0x1F	; 31
    2a82:	f3 15       	cp	r31, r3
    2a84:	d8 f0       	brcs	.+54     	; 0x2abc <vfprintf+0xbe>
    2a86:	8b 32       	cpi	r24, 0x2B	; 43
    2a88:	79 f0       	breq	.+30     	; 0x2aa8 <vfprintf+0xaa>
    2a8a:	38 f4       	brcc	.+14     	; 0x2a9a <vfprintf+0x9c>
    2a8c:	80 32       	cpi	r24, 0x20	; 32
    2a8e:	79 f0       	breq	.+30     	; 0x2aae <vfprintf+0xb0>
    2a90:	83 32       	cpi	r24, 0x23	; 35
    2a92:	a1 f4       	brne	.+40     	; 0x2abc <vfprintf+0xbe>
    2a94:	23 2d       	mov	r18, r3
    2a96:	20 61       	ori	r18, 0x10	; 16
    2a98:	1d c0       	rjmp	.+58     	; 0x2ad4 <vfprintf+0xd6>
    2a9a:	8d 32       	cpi	r24, 0x2D	; 45
    2a9c:	61 f0       	breq	.+24     	; 0x2ab6 <vfprintf+0xb8>
    2a9e:	80 33       	cpi	r24, 0x30	; 48
    2aa0:	69 f4       	brne	.+26     	; 0x2abc <vfprintf+0xbe>
    2aa2:	23 2d       	mov	r18, r3
    2aa4:	21 60       	ori	r18, 0x01	; 1
    2aa6:	16 c0       	rjmp	.+44     	; 0x2ad4 <vfprintf+0xd6>
    2aa8:	83 2d       	mov	r24, r3
    2aaa:	82 60       	ori	r24, 0x02	; 2
    2aac:	38 2e       	mov	r3, r24
    2aae:	e3 2d       	mov	r30, r3
    2ab0:	e4 60       	ori	r30, 0x04	; 4
    2ab2:	3e 2e       	mov	r3, r30
    2ab4:	2a c0       	rjmp	.+84     	; 0x2b0a <vfprintf+0x10c>
    2ab6:	f3 2d       	mov	r31, r3
    2ab8:	f8 60       	ori	r31, 0x08	; 8
    2aba:	1d c0       	rjmp	.+58     	; 0x2af6 <vfprintf+0xf8>
    2abc:	37 fc       	sbrc	r3, 7
    2abe:	2d c0       	rjmp	.+90     	; 0x2b1a <vfprintf+0x11c>
    2ac0:	20 ed       	ldi	r18, 0xD0	; 208
    2ac2:	28 0f       	add	r18, r24
    2ac4:	2a 30       	cpi	r18, 0x0A	; 10
    2ac6:	40 f0       	brcs	.+16     	; 0x2ad8 <vfprintf+0xda>
    2ac8:	8e 32       	cpi	r24, 0x2E	; 46
    2aca:	b9 f4       	brne	.+46     	; 0x2afa <vfprintf+0xfc>
    2acc:	36 fc       	sbrc	r3, 6
    2ace:	75 c1       	rjmp	.+746    	; 0x2dba <vfprintf+0x3bc>
    2ad0:	23 2d       	mov	r18, r3
    2ad2:	20 64       	ori	r18, 0x40	; 64
    2ad4:	32 2e       	mov	r3, r18
    2ad6:	19 c0       	rjmp	.+50     	; 0x2b0a <vfprintf+0x10c>
    2ad8:	36 fe       	sbrs	r3, 6
    2ada:	06 c0       	rjmp	.+12     	; 0x2ae8 <vfprintf+0xea>
    2adc:	8a e0       	ldi	r24, 0x0A	; 10
    2ade:	98 9e       	mul	r9, r24
    2ae0:	20 0d       	add	r18, r0
    2ae2:	11 24       	eor	r1, r1
    2ae4:	92 2e       	mov	r9, r18
    2ae6:	11 c0       	rjmp	.+34     	; 0x2b0a <vfprintf+0x10c>
    2ae8:	ea e0       	ldi	r30, 0x0A	; 10
    2aea:	2e 9e       	mul	r2, r30
    2aec:	20 0d       	add	r18, r0
    2aee:	11 24       	eor	r1, r1
    2af0:	22 2e       	mov	r2, r18
    2af2:	f3 2d       	mov	r31, r3
    2af4:	f0 62       	ori	r31, 0x20	; 32
    2af6:	3f 2e       	mov	r3, r31
    2af8:	08 c0       	rjmp	.+16     	; 0x2b0a <vfprintf+0x10c>
    2afa:	8c 36       	cpi	r24, 0x6C	; 108
    2afc:	21 f4       	brne	.+8      	; 0x2b06 <vfprintf+0x108>
    2afe:	83 2d       	mov	r24, r3
    2b00:	80 68       	ori	r24, 0x80	; 128
    2b02:	38 2e       	mov	r3, r24
    2b04:	02 c0       	rjmp	.+4      	; 0x2b0a <vfprintf+0x10c>
    2b06:	88 36       	cpi	r24, 0x68	; 104
    2b08:	41 f4       	brne	.+16     	; 0x2b1a <vfprintf+0x11c>
    2b0a:	f7 01       	movw	r30, r14
    2b0c:	93 fd       	sbrc	r25, 3
    2b0e:	85 91       	lpm	r24, Z+
    2b10:	93 ff       	sbrs	r25, 3
    2b12:	81 91       	ld	r24, Z+
    2b14:	7f 01       	movw	r14, r30
    2b16:	81 11       	cpse	r24, r1
    2b18:	b3 cf       	rjmp	.-154    	; 0x2a80 <vfprintf+0x82>
    2b1a:	98 2f       	mov	r25, r24
    2b1c:	9f 7d       	andi	r25, 0xDF	; 223
    2b1e:	95 54       	subi	r25, 0x45	; 69
    2b20:	93 30       	cpi	r25, 0x03	; 3
    2b22:	28 f4       	brcc	.+10     	; 0x2b2e <vfprintf+0x130>
    2b24:	0c 5f       	subi	r16, 0xFC	; 252
    2b26:	1f 4f       	sbci	r17, 0xFF	; 255
    2b28:	9f e3       	ldi	r25, 0x3F	; 63
    2b2a:	99 83       	std	Y+1, r25	; 0x01
    2b2c:	0d c0       	rjmp	.+26     	; 0x2b48 <vfprintf+0x14a>
    2b2e:	83 36       	cpi	r24, 0x63	; 99
    2b30:	31 f0       	breq	.+12     	; 0x2b3e <vfprintf+0x140>
    2b32:	83 37       	cpi	r24, 0x73	; 115
    2b34:	71 f0       	breq	.+28     	; 0x2b52 <vfprintf+0x154>
    2b36:	83 35       	cpi	r24, 0x53	; 83
    2b38:	09 f0       	breq	.+2      	; 0x2b3c <vfprintf+0x13e>
    2b3a:	55 c0       	rjmp	.+170    	; 0x2be6 <vfprintf+0x1e8>
    2b3c:	20 c0       	rjmp	.+64     	; 0x2b7e <vfprintf+0x180>
    2b3e:	f8 01       	movw	r30, r16
    2b40:	80 81       	ld	r24, Z
    2b42:	89 83       	std	Y+1, r24	; 0x01
    2b44:	0e 5f       	subi	r16, 0xFE	; 254
    2b46:	1f 4f       	sbci	r17, 0xFF	; 255
    2b48:	88 24       	eor	r8, r8
    2b4a:	83 94       	inc	r8
    2b4c:	91 2c       	mov	r9, r1
    2b4e:	53 01       	movw	r10, r6
    2b50:	12 c0       	rjmp	.+36     	; 0x2b76 <vfprintf+0x178>
    2b52:	28 01       	movw	r4, r16
    2b54:	f2 e0       	ldi	r31, 0x02	; 2
    2b56:	4f 0e       	add	r4, r31
    2b58:	51 1c       	adc	r5, r1
    2b5a:	f8 01       	movw	r30, r16
    2b5c:	a0 80       	ld	r10, Z
    2b5e:	b1 80       	ldd	r11, Z+1	; 0x01
    2b60:	36 fe       	sbrs	r3, 6
    2b62:	03 c0       	rjmp	.+6      	; 0x2b6a <vfprintf+0x16c>
    2b64:	69 2d       	mov	r22, r9
    2b66:	70 e0       	ldi	r23, 0x00	; 0
    2b68:	02 c0       	rjmp	.+4      	; 0x2b6e <vfprintf+0x170>
    2b6a:	6f ef       	ldi	r22, 0xFF	; 255
    2b6c:	7f ef       	ldi	r23, 0xFF	; 255
    2b6e:	c5 01       	movw	r24, r10
    2b70:	90 d2       	rcall	.+1312   	; 0x3092 <strnlen>
    2b72:	4c 01       	movw	r8, r24
    2b74:	82 01       	movw	r16, r4
    2b76:	f3 2d       	mov	r31, r3
    2b78:	ff 77       	andi	r31, 0x7F	; 127
    2b7a:	3f 2e       	mov	r3, r31
    2b7c:	15 c0       	rjmp	.+42     	; 0x2ba8 <vfprintf+0x1aa>
    2b7e:	28 01       	movw	r4, r16
    2b80:	22 e0       	ldi	r18, 0x02	; 2
    2b82:	42 0e       	add	r4, r18
    2b84:	51 1c       	adc	r5, r1
    2b86:	f8 01       	movw	r30, r16
    2b88:	a0 80       	ld	r10, Z
    2b8a:	b1 80       	ldd	r11, Z+1	; 0x01
    2b8c:	36 fe       	sbrs	r3, 6
    2b8e:	03 c0       	rjmp	.+6      	; 0x2b96 <vfprintf+0x198>
    2b90:	69 2d       	mov	r22, r9
    2b92:	70 e0       	ldi	r23, 0x00	; 0
    2b94:	02 c0       	rjmp	.+4      	; 0x2b9a <vfprintf+0x19c>
    2b96:	6f ef       	ldi	r22, 0xFF	; 255
    2b98:	7f ef       	ldi	r23, 0xFF	; 255
    2b9a:	c5 01       	movw	r24, r10
    2b9c:	68 d2       	rcall	.+1232   	; 0x306e <strnlen_P>
    2b9e:	4c 01       	movw	r8, r24
    2ba0:	f3 2d       	mov	r31, r3
    2ba2:	f0 68       	ori	r31, 0x80	; 128
    2ba4:	3f 2e       	mov	r3, r31
    2ba6:	82 01       	movw	r16, r4
    2ba8:	33 fc       	sbrc	r3, 3
    2baa:	19 c0       	rjmp	.+50     	; 0x2bde <vfprintf+0x1e0>
    2bac:	82 2d       	mov	r24, r2
    2bae:	90 e0       	ldi	r25, 0x00	; 0
    2bb0:	88 16       	cp	r8, r24
    2bb2:	99 06       	cpc	r9, r25
    2bb4:	a0 f4       	brcc	.+40     	; 0x2bde <vfprintf+0x1e0>
    2bb6:	b6 01       	movw	r22, r12
    2bb8:	80 e2       	ldi	r24, 0x20	; 32
    2bba:	90 e0       	ldi	r25, 0x00	; 0
    2bbc:	75 d2       	rcall	.+1258   	; 0x30a8 <fputc>
    2bbe:	2a 94       	dec	r2
    2bc0:	f5 cf       	rjmp	.-22     	; 0x2bac <vfprintf+0x1ae>
    2bc2:	f5 01       	movw	r30, r10
    2bc4:	37 fc       	sbrc	r3, 7
    2bc6:	85 91       	lpm	r24, Z+
    2bc8:	37 fe       	sbrs	r3, 7
    2bca:	81 91       	ld	r24, Z+
    2bcc:	5f 01       	movw	r10, r30
    2bce:	b6 01       	movw	r22, r12
    2bd0:	90 e0       	ldi	r25, 0x00	; 0
    2bd2:	6a d2       	rcall	.+1236   	; 0x30a8 <fputc>
    2bd4:	21 10       	cpse	r2, r1
    2bd6:	2a 94       	dec	r2
    2bd8:	21 e0       	ldi	r18, 0x01	; 1
    2bda:	82 1a       	sub	r8, r18
    2bdc:	91 08       	sbc	r9, r1
    2bde:	81 14       	cp	r8, r1
    2be0:	91 04       	cpc	r9, r1
    2be2:	79 f7       	brne	.-34     	; 0x2bc2 <vfprintf+0x1c4>
    2be4:	e1 c0       	rjmp	.+450    	; 0x2da8 <vfprintf+0x3aa>
    2be6:	84 36       	cpi	r24, 0x64	; 100
    2be8:	11 f0       	breq	.+4      	; 0x2bee <vfprintf+0x1f0>
    2bea:	89 36       	cpi	r24, 0x69	; 105
    2bec:	39 f5       	brne	.+78     	; 0x2c3c <vfprintf+0x23e>
    2bee:	f8 01       	movw	r30, r16
    2bf0:	37 fe       	sbrs	r3, 7
    2bf2:	07 c0       	rjmp	.+14     	; 0x2c02 <vfprintf+0x204>
    2bf4:	60 81       	ld	r22, Z
    2bf6:	71 81       	ldd	r23, Z+1	; 0x01
    2bf8:	82 81       	ldd	r24, Z+2	; 0x02
    2bfa:	93 81       	ldd	r25, Z+3	; 0x03
    2bfc:	0c 5f       	subi	r16, 0xFC	; 252
    2bfe:	1f 4f       	sbci	r17, 0xFF	; 255
    2c00:	08 c0       	rjmp	.+16     	; 0x2c12 <vfprintf+0x214>
    2c02:	60 81       	ld	r22, Z
    2c04:	71 81       	ldd	r23, Z+1	; 0x01
    2c06:	07 2e       	mov	r0, r23
    2c08:	00 0c       	add	r0, r0
    2c0a:	88 0b       	sbc	r24, r24
    2c0c:	99 0b       	sbc	r25, r25
    2c0e:	0e 5f       	subi	r16, 0xFE	; 254
    2c10:	1f 4f       	sbci	r17, 0xFF	; 255
    2c12:	f3 2d       	mov	r31, r3
    2c14:	ff 76       	andi	r31, 0x6F	; 111
    2c16:	3f 2e       	mov	r3, r31
    2c18:	97 ff       	sbrs	r25, 7
    2c1a:	09 c0       	rjmp	.+18     	; 0x2c2e <vfprintf+0x230>
    2c1c:	90 95       	com	r25
    2c1e:	80 95       	com	r24
    2c20:	70 95       	com	r23
    2c22:	61 95       	neg	r22
    2c24:	7f 4f       	sbci	r23, 0xFF	; 255
    2c26:	8f 4f       	sbci	r24, 0xFF	; 255
    2c28:	9f 4f       	sbci	r25, 0xFF	; 255
    2c2a:	f0 68       	ori	r31, 0x80	; 128
    2c2c:	3f 2e       	mov	r3, r31
    2c2e:	2a e0       	ldi	r18, 0x0A	; 10
    2c30:	30 e0       	ldi	r19, 0x00	; 0
    2c32:	a3 01       	movw	r20, r6
    2c34:	75 d2       	rcall	.+1258   	; 0x3120 <__ultoa_invert>
    2c36:	88 2e       	mov	r8, r24
    2c38:	86 18       	sub	r8, r6
    2c3a:	44 c0       	rjmp	.+136    	; 0x2cc4 <vfprintf+0x2c6>
    2c3c:	85 37       	cpi	r24, 0x75	; 117
    2c3e:	31 f4       	brne	.+12     	; 0x2c4c <vfprintf+0x24e>
    2c40:	23 2d       	mov	r18, r3
    2c42:	2f 7e       	andi	r18, 0xEF	; 239
    2c44:	b2 2e       	mov	r11, r18
    2c46:	2a e0       	ldi	r18, 0x0A	; 10
    2c48:	30 e0       	ldi	r19, 0x00	; 0
    2c4a:	25 c0       	rjmp	.+74     	; 0x2c96 <vfprintf+0x298>
    2c4c:	93 2d       	mov	r25, r3
    2c4e:	99 7f       	andi	r25, 0xF9	; 249
    2c50:	b9 2e       	mov	r11, r25
    2c52:	8f 36       	cpi	r24, 0x6F	; 111
    2c54:	c1 f0       	breq	.+48     	; 0x2c86 <vfprintf+0x288>
    2c56:	18 f4       	brcc	.+6      	; 0x2c5e <vfprintf+0x260>
    2c58:	88 35       	cpi	r24, 0x58	; 88
    2c5a:	79 f0       	breq	.+30     	; 0x2c7a <vfprintf+0x27c>
    2c5c:	ae c0       	rjmp	.+348    	; 0x2dba <vfprintf+0x3bc>
    2c5e:	80 37       	cpi	r24, 0x70	; 112
    2c60:	19 f0       	breq	.+6      	; 0x2c68 <vfprintf+0x26a>
    2c62:	88 37       	cpi	r24, 0x78	; 120
    2c64:	21 f0       	breq	.+8      	; 0x2c6e <vfprintf+0x270>
    2c66:	a9 c0       	rjmp	.+338    	; 0x2dba <vfprintf+0x3bc>
    2c68:	e9 2f       	mov	r30, r25
    2c6a:	e0 61       	ori	r30, 0x10	; 16
    2c6c:	be 2e       	mov	r11, r30
    2c6e:	b4 fe       	sbrs	r11, 4
    2c70:	0d c0       	rjmp	.+26     	; 0x2c8c <vfprintf+0x28e>
    2c72:	fb 2d       	mov	r31, r11
    2c74:	f4 60       	ori	r31, 0x04	; 4
    2c76:	bf 2e       	mov	r11, r31
    2c78:	09 c0       	rjmp	.+18     	; 0x2c8c <vfprintf+0x28e>
    2c7a:	34 fe       	sbrs	r3, 4
    2c7c:	0a c0       	rjmp	.+20     	; 0x2c92 <vfprintf+0x294>
    2c7e:	29 2f       	mov	r18, r25
    2c80:	26 60       	ori	r18, 0x06	; 6
    2c82:	b2 2e       	mov	r11, r18
    2c84:	06 c0       	rjmp	.+12     	; 0x2c92 <vfprintf+0x294>
    2c86:	28 e0       	ldi	r18, 0x08	; 8
    2c88:	30 e0       	ldi	r19, 0x00	; 0
    2c8a:	05 c0       	rjmp	.+10     	; 0x2c96 <vfprintf+0x298>
    2c8c:	20 e1       	ldi	r18, 0x10	; 16
    2c8e:	30 e0       	ldi	r19, 0x00	; 0
    2c90:	02 c0       	rjmp	.+4      	; 0x2c96 <vfprintf+0x298>
    2c92:	20 e1       	ldi	r18, 0x10	; 16
    2c94:	32 e0       	ldi	r19, 0x02	; 2
    2c96:	f8 01       	movw	r30, r16
    2c98:	b7 fe       	sbrs	r11, 7
    2c9a:	07 c0       	rjmp	.+14     	; 0x2caa <vfprintf+0x2ac>
    2c9c:	60 81       	ld	r22, Z
    2c9e:	71 81       	ldd	r23, Z+1	; 0x01
    2ca0:	82 81       	ldd	r24, Z+2	; 0x02
    2ca2:	93 81       	ldd	r25, Z+3	; 0x03
    2ca4:	0c 5f       	subi	r16, 0xFC	; 252
    2ca6:	1f 4f       	sbci	r17, 0xFF	; 255
    2ca8:	06 c0       	rjmp	.+12     	; 0x2cb6 <vfprintf+0x2b8>
    2caa:	60 81       	ld	r22, Z
    2cac:	71 81       	ldd	r23, Z+1	; 0x01
    2cae:	80 e0       	ldi	r24, 0x00	; 0
    2cb0:	90 e0       	ldi	r25, 0x00	; 0
    2cb2:	0e 5f       	subi	r16, 0xFE	; 254
    2cb4:	1f 4f       	sbci	r17, 0xFF	; 255
    2cb6:	a3 01       	movw	r20, r6
    2cb8:	33 d2       	rcall	.+1126   	; 0x3120 <__ultoa_invert>
    2cba:	88 2e       	mov	r8, r24
    2cbc:	86 18       	sub	r8, r6
    2cbe:	fb 2d       	mov	r31, r11
    2cc0:	ff 77       	andi	r31, 0x7F	; 127
    2cc2:	3f 2e       	mov	r3, r31
    2cc4:	36 fe       	sbrs	r3, 6
    2cc6:	0d c0       	rjmp	.+26     	; 0x2ce2 <vfprintf+0x2e4>
    2cc8:	23 2d       	mov	r18, r3
    2cca:	2e 7f       	andi	r18, 0xFE	; 254
    2ccc:	a2 2e       	mov	r10, r18
    2cce:	89 14       	cp	r8, r9
    2cd0:	58 f4       	brcc	.+22     	; 0x2ce8 <vfprintf+0x2ea>
    2cd2:	34 fe       	sbrs	r3, 4
    2cd4:	0b c0       	rjmp	.+22     	; 0x2cec <vfprintf+0x2ee>
    2cd6:	32 fc       	sbrc	r3, 2
    2cd8:	09 c0       	rjmp	.+18     	; 0x2cec <vfprintf+0x2ee>
    2cda:	83 2d       	mov	r24, r3
    2cdc:	8e 7e       	andi	r24, 0xEE	; 238
    2cde:	a8 2e       	mov	r10, r24
    2ce0:	05 c0       	rjmp	.+10     	; 0x2cec <vfprintf+0x2ee>
    2ce2:	b8 2c       	mov	r11, r8
    2ce4:	a3 2c       	mov	r10, r3
    2ce6:	03 c0       	rjmp	.+6      	; 0x2cee <vfprintf+0x2f0>
    2ce8:	b8 2c       	mov	r11, r8
    2cea:	01 c0       	rjmp	.+2      	; 0x2cee <vfprintf+0x2f0>
    2cec:	b9 2c       	mov	r11, r9
    2cee:	a4 fe       	sbrs	r10, 4
    2cf0:	0f c0       	rjmp	.+30     	; 0x2d10 <vfprintf+0x312>
    2cf2:	fe 01       	movw	r30, r28
    2cf4:	e8 0d       	add	r30, r8
    2cf6:	f1 1d       	adc	r31, r1
    2cf8:	80 81       	ld	r24, Z
    2cfa:	80 33       	cpi	r24, 0x30	; 48
    2cfc:	21 f4       	brne	.+8      	; 0x2d06 <vfprintf+0x308>
    2cfe:	9a 2d       	mov	r25, r10
    2d00:	99 7e       	andi	r25, 0xE9	; 233
    2d02:	a9 2e       	mov	r10, r25
    2d04:	09 c0       	rjmp	.+18     	; 0x2d18 <vfprintf+0x31a>
    2d06:	a2 fe       	sbrs	r10, 2
    2d08:	06 c0       	rjmp	.+12     	; 0x2d16 <vfprintf+0x318>
    2d0a:	b3 94       	inc	r11
    2d0c:	b3 94       	inc	r11
    2d0e:	04 c0       	rjmp	.+8      	; 0x2d18 <vfprintf+0x31a>
    2d10:	8a 2d       	mov	r24, r10
    2d12:	86 78       	andi	r24, 0x86	; 134
    2d14:	09 f0       	breq	.+2      	; 0x2d18 <vfprintf+0x31a>
    2d16:	b3 94       	inc	r11
    2d18:	a3 fc       	sbrc	r10, 3
    2d1a:	10 c0       	rjmp	.+32     	; 0x2d3c <vfprintf+0x33e>
    2d1c:	a0 fe       	sbrs	r10, 0
    2d1e:	06 c0       	rjmp	.+12     	; 0x2d2c <vfprintf+0x32e>
    2d20:	b2 14       	cp	r11, r2
    2d22:	80 f4       	brcc	.+32     	; 0x2d44 <vfprintf+0x346>
    2d24:	28 0c       	add	r2, r8
    2d26:	92 2c       	mov	r9, r2
    2d28:	9b 18       	sub	r9, r11
    2d2a:	0d c0       	rjmp	.+26     	; 0x2d46 <vfprintf+0x348>
    2d2c:	b2 14       	cp	r11, r2
    2d2e:	58 f4       	brcc	.+22     	; 0x2d46 <vfprintf+0x348>
    2d30:	b6 01       	movw	r22, r12
    2d32:	80 e2       	ldi	r24, 0x20	; 32
    2d34:	90 e0       	ldi	r25, 0x00	; 0
    2d36:	b8 d1       	rcall	.+880    	; 0x30a8 <fputc>
    2d38:	b3 94       	inc	r11
    2d3a:	f8 cf       	rjmp	.-16     	; 0x2d2c <vfprintf+0x32e>
    2d3c:	b2 14       	cp	r11, r2
    2d3e:	18 f4       	brcc	.+6      	; 0x2d46 <vfprintf+0x348>
    2d40:	2b 18       	sub	r2, r11
    2d42:	02 c0       	rjmp	.+4      	; 0x2d48 <vfprintf+0x34a>
    2d44:	98 2c       	mov	r9, r8
    2d46:	21 2c       	mov	r2, r1
    2d48:	a4 fe       	sbrs	r10, 4
    2d4a:	0f c0       	rjmp	.+30     	; 0x2d6a <vfprintf+0x36c>
    2d4c:	b6 01       	movw	r22, r12
    2d4e:	80 e3       	ldi	r24, 0x30	; 48
    2d50:	90 e0       	ldi	r25, 0x00	; 0
    2d52:	aa d1       	rcall	.+852    	; 0x30a8 <fputc>
    2d54:	a2 fe       	sbrs	r10, 2
    2d56:	16 c0       	rjmp	.+44     	; 0x2d84 <vfprintf+0x386>
    2d58:	a1 fc       	sbrc	r10, 1
    2d5a:	03 c0       	rjmp	.+6      	; 0x2d62 <vfprintf+0x364>
    2d5c:	88 e7       	ldi	r24, 0x78	; 120
    2d5e:	90 e0       	ldi	r25, 0x00	; 0
    2d60:	02 c0       	rjmp	.+4      	; 0x2d66 <vfprintf+0x368>
    2d62:	88 e5       	ldi	r24, 0x58	; 88
    2d64:	90 e0       	ldi	r25, 0x00	; 0
    2d66:	b6 01       	movw	r22, r12
    2d68:	0c c0       	rjmp	.+24     	; 0x2d82 <vfprintf+0x384>
    2d6a:	8a 2d       	mov	r24, r10
    2d6c:	86 78       	andi	r24, 0x86	; 134
    2d6e:	51 f0       	breq	.+20     	; 0x2d84 <vfprintf+0x386>
    2d70:	a1 fe       	sbrs	r10, 1
    2d72:	02 c0       	rjmp	.+4      	; 0x2d78 <vfprintf+0x37a>
    2d74:	8b e2       	ldi	r24, 0x2B	; 43
    2d76:	01 c0       	rjmp	.+2      	; 0x2d7a <vfprintf+0x37c>
    2d78:	80 e2       	ldi	r24, 0x20	; 32
    2d7a:	a7 fc       	sbrc	r10, 7
    2d7c:	8d e2       	ldi	r24, 0x2D	; 45
    2d7e:	b6 01       	movw	r22, r12
    2d80:	90 e0       	ldi	r25, 0x00	; 0
    2d82:	92 d1       	rcall	.+804    	; 0x30a8 <fputc>
    2d84:	89 14       	cp	r8, r9
    2d86:	30 f4       	brcc	.+12     	; 0x2d94 <vfprintf+0x396>
    2d88:	b6 01       	movw	r22, r12
    2d8a:	80 e3       	ldi	r24, 0x30	; 48
    2d8c:	90 e0       	ldi	r25, 0x00	; 0
    2d8e:	8c d1       	rcall	.+792    	; 0x30a8 <fputc>
    2d90:	9a 94       	dec	r9
    2d92:	f8 cf       	rjmp	.-16     	; 0x2d84 <vfprintf+0x386>
    2d94:	8a 94       	dec	r8
    2d96:	f3 01       	movw	r30, r6
    2d98:	e8 0d       	add	r30, r8
    2d9a:	f1 1d       	adc	r31, r1
    2d9c:	80 81       	ld	r24, Z
    2d9e:	b6 01       	movw	r22, r12
    2da0:	90 e0       	ldi	r25, 0x00	; 0
    2da2:	82 d1       	rcall	.+772    	; 0x30a8 <fputc>
    2da4:	81 10       	cpse	r8, r1
    2da6:	f6 cf       	rjmp	.-20     	; 0x2d94 <vfprintf+0x396>
    2da8:	22 20       	and	r2, r2
    2daa:	09 f4       	brne	.+2      	; 0x2dae <vfprintf+0x3b0>
    2dac:	4e ce       	rjmp	.-868    	; 0x2a4a <vfprintf+0x4c>
    2dae:	b6 01       	movw	r22, r12
    2db0:	80 e2       	ldi	r24, 0x20	; 32
    2db2:	90 e0       	ldi	r25, 0x00	; 0
    2db4:	79 d1       	rcall	.+754    	; 0x30a8 <fputc>
    2db6:	2a 94       	dec	r2
    2db8:	f7 cf       	rjmp	.-18     	; 0x2da8 <vfprintf+0x3aa>
    2dba:	f6 01       	movw	r30, r12
    2dbc:	86 81       	ldd	r24, Z+6	; 0x06
    2dbe:	97 81       	ldd	r25, Z+7	; 0x07
    2dc0:	02 c0       	rjmp	.+4      	; 0x2dc6 <vfprintf+0x3c8>
    2dc2:	8f ef       	ldi	r24, 0xFF	; 255
    2dc4:	9f ef       	ldi	r25, 0xFF	; 255
    2dc6:	2b 96       	adiw	r28, 0x0b	; 11
    2dc8:	0f b6       	in	r0, 0x3f	; 63
    2dca:	f8 94       	cli
    2dcc:	de bf       	out	0x3e, r29	; 62
    2dce:	0f be       	out	0x3f, r0	; 63
    2dd0:	cd bf       	out	0x3d, r28	; 61
    2dd2:	df 91       	pop	r29
    2dd4:	cf 91       	pop	r28
    2dd6:	1f 91       	pop	r17
    2dd8:	0f 91       	pop	r16
    2dda:	ff 90       	pop	r15
    2ddc:	ef 90       	pop	r14
    2dde:	df 90       	pop	r13
    2de0:	cf 90       	pop	r12
    2de2:	bf 90       	pop	r11
    2de4:	af 90       	pop	r10
    2de6:	9f 90       	pop	r9
    2de8:	8f 90       	pop	r8
    2dea:	7f 90       	pop	r7
    2dec:	6f 90       	pop	r6
    2dee:	5f 90       	pop	r5
    2df0:	4f 90       	pop	r4
    2df2:	3f 90       	pop	r3
    2df4:	2f 90       	pop	r2
    2df6:	08 95       	ret

00002df8 <calloc>:
    2df8:	0f 93       	push	r16
    2dfa:	1f 93       	push	r17
    2dfc:	cf 93       	push	r28
    2dfe:	df 93       	push	r29
    2e00:	86 9f       	mul	r24, r22
    2e02:	80 01       	movw	r16, r0
    2e04:	87 9f       	mul	r24, r23
    2e06:	10 0d       	add	r17, r0
    2e08:	96 9f       	mul	r25, r22
    2e0a:	10 0d       	add	r17, r0
    2e0c:	11 24       	eor	r1, r1
    2e0e:	c8 01       	movw	r24, r16
    2e10:	0d d0       	rcall	.+26     	; 0x2e2c <malloc>
    2e12:	ec 01       	movw	r28, r24
    2e14:	00 97       	sbiw	r24, 0x00	; 0
    2e16:	21 f0       	breq	.+8      	; 0x2e20 <calloc+0x28>
    2e18:	a8 01       	movw	r20, r16
    2e1a:	60 e0       	ldi	r22, 0x00	; 0
    2e1c:	70 e0       	ldi	r23, 0x00	; 0
    2e1e:	32 d1       	rcall	.+612    	; 0x3084 <memset>
    2e20:	ce 01       	movw	r24, r28
    2e22:	df 91       	pop	r29
    2e24:	cf 91       	pop	r28
    2e26:	1f 91       	pop	r17
    2e28:	0f 91       	pop	r16
    2e2a:	08 95       	ret

00002e2c <malloc>:
    2e2c:	0f 93       	push	r16
    2e2e:	1f 93       	push	r17
    2e30:	cf 93       	push	r28
    2e32:	df 93       	push	r29
    2e34:	82 30       	cpi	r24, 0x02	; 2
    2e36:	91 05       	cpc	r25, r1
    2e38:	10 f4       	brcc	.+4      	; 0x2e3e <malloc+0x12>
    2e3a:	82 e0       	ldi	r24, 0x02	; 2
    2e3c:	90 e0       	ldi	r25, 0x00	; 0
    2e3e:	e0 91 bd 09 	lds	r30, 0x09BD	; 0x8009bd <__flp>
    2e42:	f0 91 be 09 	lds	r31, 0x09BE	; 0x8009be <__flp+0x1>
    2e46:	20 e0       	ldi	r18, 0x00	; 0
    2e48:	30 e0       	ldi	r19, 0x00	; 0
    2e4a:	a0 e0       	ldi	r26, 0x00	; 0
    2e4c:	b0 e0       	ldi	r27, 0x00	; 0
    2e4e:	30 97       	sbiw	r30, 0x00	; 0
    2e50:	19 f1       	breq	.+70     	; 0x2e98 <malloc+0x6c>
    2e52:	40 81       	ld	r20, Z
    2e54:	51 81       	ldd	r21, Z+1	; 0x01
    2e56:	02 81       	ldd	r16, Z+2	; 0x02
    2e58:	13 81       	ldd	r17, Z+3	; 0x03
    2e5a:	48 17       	cp	r20, r24
    2e5c:	59 07       	cpc	r21, r25
    2e5e:	c8 f0       	brcs	.+50     	; 0x2e92 <malloc+0x66>
    2e60:	84 17       	cp	r24, r20
    2e62:	95 07       	cpc	r25, r21
    2e64:	69 f4       	brne	.+26     	; 0x2e80 <malloc+0x54>
    2e66:	10 97       	sbiw	r26, 0x00	; 0
    2e68:	31 f0       	breq	.+12     	; 0x2e76 <malloc+0x4a>
    2e6a:	12 96       	adiw	r26, 0x02	; 2
    2e6c:	0c 93       	st	X, r16
    2e6e:	12 97       	sbiw	r26, 0x02	; 2
    2e70:	13 96       	adiw	r26, 0x03	; 3
    2e72:	1c 93       	st	X, r17
    2e74:	27 c0       	rjmp	.+78     	; 0x2ec4 <malloc+0x98>
    2e76:	00 93 bd 09 	sts	0x09BD, r16	; 0x8009bd <__flp>
    2e7a:	10 93 be 09 	sts	0x09BE, r17	; 0x8009be <__flp+0x1>
    2e7e:	22 c0       	rjmp	.+68     	; 0x2ec4 <malloc+0x98>
    2e80:	21 15       	cp	r18, r1
    2e82:	31 05       	cpc	r19, r1
    2e84:	19 f0       	breq	.+6      	; 0x2e8c <malloc+0x60>
    2e86:	42 17       	cp	r20, r18
    2e88:	53 07       	cpc	r21, r19
    2e8a:	18 f4       	brcc	.+6      	; 0x2e92 <malloc+0x66>
    2e8c:	9a 01       	movw	r18, r20
    2e8e:	bd 01       	movw	r22, r26
    2e90:	ef 01       	movw	r28, r30
    2e92:	df 01       	movw	r26, r30
    2e94:	f8 01       	movw	r30, r16
    2e96:	db cf       	rjmp	.-74     	; 0x2e4e <malloc+0x22>
    2e98:	21 15       	cp	r18, r1
    2e9a:	31 05       	cpc	r19, r1
    2e9c:	f9 f0       	breq	.+62     	; 0x2edc <malloc+0xb0>
    2e9e:	28 1b       	sub	r18, r24
    2ea0:	39 0b       	sbc	r19, r25
    2ea2:	24 30       	cpi	r18, 0x04	; 4
    2ea4:	31 05       	cpc	r19, r1
    2ea6:	80 f4       	brcc	.+32     	; 0x2ec8 <malloc+0x9c>
    2ea8:	8a 81       	ldd	r24, Y+2	; 0x02
    2eaa:	9b 81       	ldd	r25, Y+3	; 0x03
    2eac:	61 15       	cp	r22, r1
    2eae:	71 05       	cpc	r23, r1
    2eb0:	21 f0       	breq	.+8      	; 0x2eba <malloc+0x8e>
    2eb2:	fb 01       	movw	r30, r22
    2eb4:	93 83       	std	Z+3, r25	; 0x03
    2eb6:	82 83       	std	Z+2, r24	; 0x02
    2eb8:	04 c0       	rjmp	.+8      	; 0x2ec2 <malloc+0x96>
    2eba:	90 93 be 09 	sts	0x09BE, r25	; 0x8009be <__flp+0x1>
    2ebe:	80 93 bd 09 	sts	0x09BD, r24	; 0x8009bd <__flp>
    2ec2:	fe 01       	movw	r30, r28
    2ec4:	32 96       	adiw	r30, 0x02	; 2
    2ec6:	44 c0       	rjmp	.+136    	; 0x2f50 <malloc+0x124>
    2ec8:	fe 01       	movw	r30, r28
    2eca:	e2 0f       	add	r30, r18
    2ecc:	f3 1f       	adc	r31, r19
    2ece:	81 93       	st	Z+, r24
    2ed0:	91 93       	st	Z+, r25
    2ed2:	22 50       	subi	r18, 0x02	; 2
    2ed4:	31 09       	sbc	r19, r1
    2ed6:	39 83       	std	Y+1, r19	; 0x01
    2ed8:	28 83       	st	Y, r18
    2eda:	3a c0       	rjmp	.+116    	; 0x2f50 <malloc+0x124>
    2edc:	20 91 bb 09 	lds	r18, 0x09BB	; 0x8009bb <__brkval>
    2ee0:	30 91 bc 09 	lds	r19, 0x09BC	; 0x8009bc <__brkval+0x1>
    2ee4:	23 2b       	or	r18, r19
    2ee6:	41 f4       	brne	.+16     	; 0x2ef8 <malloc+0xcc>
    2ee8:	20 91 02 02 	lds	r18, 0x0202	; 0x800202 <__malloc_heap_start>
    2eec:	30 91 03 02 	lds	r19, 0x0203	; 0x800203 <__malloc_heap_start+0x1>
    2ef0:	30 93 bc 09 	sts	0x09BC, r19	; 0x8009bc <__brkval+0x1>
    2ef4:	20 93 bb 09 	sts	0x09BB, r18	; 0x8009bb <__brkval>
    2ef8:	20 91 00 02 	lds	r18, 0x0200	; 0x800200 <__data_start>
    2efc:	30 91 01 02 	lds	r19, 0x0201	; 0x800201 <__data_start+0x1>
    2f00:	21 15       	cp	r18, r1
    2f02:	31 05       	cpc	r19, r1
    2f04:	41 f4       	brne	.+16     	; 0x2f16 <malloc+0xea>
    2f06:	2d b7       	in	r18, 0x3d	; 61
    2f08:	3e b7       	in	r19, 0x3e	; 62
    2f0a:	40 91 04 02 	lds	r20, 0x0204	; 0x800204 <__malloc_margin>
    2f0e:	50 91 05 02 	lds	r21, 0x0205	; 0x800205 <__malloc_margin+0x1>
    2f12:	24 1b       	sub	r18, r20
    2f14:	35 0b       	sbc	r19, r21
    2f16:	e0 91 bb 09 	lds	r30, 0x09BB	; 0x8009bb <__brkval>
    2f1a:	f0 91 bc 09 	lds	r31, 0x09BC	; 0x8009bc <__brkval+0x1>
    2f1e:	e2 17       	cp	r30, r18
    2f20:	f3 07       	cpc	r31, r19
    2f22:	a0 f4       	brcc	.+40     	; 0x2f4c <malloc+0x120>
    2f24:	2e 1b       	sub	r18, r30
    2f26:	3f 0b       	sbc	r19, r31
    2f28:	28 17       	cp	r18, r24
    2f2a:	39 07       	cpc	r19, r25
    2f2c:	78 f0       	brcs	.+30     	; 0x2f4c <malloc+0x120>
    2f2e:	ac 01       	movw	r20, r24
    2f30:	4e 5f       	subi	r20, 0xFE	; 254
    2f32:	5f 4f       	sbci	r21, 0xFF	; 255
    2f34:	24 17       	cp	r18, r20
    2f36:	35 07       	cpc	r19, r21
    2f38:	48 f0       	brcs	.+18     	; 0x2f4c <malloc+0x120>
    2f3a:	4e 0f       	add	r20, r30
    2f3c:	5f 1f       	adc	r21, r31
    2f3e:	50 93 bc 09 	sts	0x09BC, r21	; 0x8009bc <__brkval+0x1>
    2f42:	40 93 bb 09 	sts	0x09BB, r20	; 0x8009bb <__brkval>
    2f46:	81 93       	st	Z+, r24
    2f48:	91 93       	st	Z+, r25
    2f4a:	02 c0       	rjmp	.+4      	; 0x2f50 <malloc+0x124>
    2f4c:	e0 e0       	ldi	r30, 0x00	; 0
    2f4e:	f0 e0       	ldi	r31, 0x00	; 0
    2f50:	cf 01       	movw	r24, r30
    2f52:	df 91       	pop	r29
    2f54:	cf 91       	pop	r28
    2f56:	1f 91       	pop	r17
    2f58:	0f 91       	pop	r16
    2f5a:	08 95       	ret

00002f5c <free>:
    2f5c:	cf 93       	push	r28
    2f5e:	df 93       	push	r29
    2f60:	00 97       	sbiw	r24, 0x00	; 0
    2f62:	09 f4       	brne	.+2      	; 0x2f66 <free+0xa>
    2f64:	81 c0       	rjmp	.+258    	; 0x3068 <free+0x10c>
    2f66:	fc 01       	movw	r30, r24
    2f68:	32 97       	sbiw	r30, 0x02	; 2
    2f6a:	13 82       	std	Z+3, r1	; 0x03
    2f6c:	12 82       	std	Z+2, r1	; 0x02
    2f6e:	a0 91 bd 09 	lds	r26, 0x09BD	; 0x8009bd <__flp>
    2f72:	b0 91 be 09 	lds	r27, 0x09BE	; 0x8009be <__flp+0x1>
    2f76:	10 97       	sbiw	r26, 0x00	; 0
    2f78:	81 f4       	brne	.+32     	; 0x2f9a <free+0x3e>
    2f7a:	20 81       	ld	r18, Z
    2f7c:	31 81       	ldd	r19, Z+1	; 0x01
    2f7e:	82 0f       	add	r24, r18
    2f80:	93 1f       	adc	r25, r19
    2f82:	20 91 bb 09 	lds	r18, 0x09BB	; 0x8009bb <__brkval>
    2f86:	30 91 bc 09 	lds	r19, 0x09BC	; 0x8009bc <__brkval+0x1>
    2f8a:	28 17       	cp	r18, r24
    2f8c:	39 07       	cpc	r19, r25
    2f8e:	51 f5       	brne	.+84     	; 0x2fe4 <free+0x88>
    2f90:	f0 93 bc 09 	sts	0x09BC, r31	; 0x8009bc <__brkval+0x1>
    2f94:	e0 93 bb 09 	sts	0x09BB, r30	; 0x8009bb <__brkval>
    2f98:	67 c0       	rjmp	.+206    	; 0x3068 <free+0x10c>
    2f9a:	ed 01       	movw	r28, r26
    2f9c:	20 e0       	ldi	r18, 0x00	; 0
    2f9e:	30 e0       	ldi	r19, 0x00	; 0
    2fa0:	ce 17       	cp	r28, r30
    2fa2:	df 07       	cpc	r29, r31
    2fa4:	40 f4       	brcc	.+16     	; 0x2fb6 <free+0x5a>
    2fa6:	4a 81       	ldd	r20, Y+2	; 0x02
    2fa8:	5b 81       	ldd	r21, Y+3	; 0x03
    2faa:	9e 01       	movw	r18, r28
    2fac:	41 15       	cp	r20, r1
    2fae:	51 05       	cpc	r21, r1
    2fb0:	f1 f0       	breq	.+60     	; 0x2fee <free+0x92>
    2fb2:	ea 01       	movw	r28, r20
    2fb4:	f5 cf       	rjmp	.-22     	; 0x2fa0 <free+0x44>
    2fb6:	d3 83       	std	Z+3, r29	; 0x03
    2fb8:	c2 83       	std	Z+2, r28	; 0x02
    2fba:	40 81       	ld	r20, Z
    2fbc:	51 81       	ldd	r21, Z+1	; 0x01
    2fbe:	84 0f       	add	r24, r20
    2fc0:	95 1f       	adc	r25, r21
    2fc2:	c8 17       	cp	r28, r24
    2fc4:	d9 07       	cpc	r29, r25
    2fc6:	59 f4       	brne	.+22     	; 0x2fde <free+0x82>
    2fc8:	88 81       	ld	r24, Y
    2fca:	99 81       	ldd	r25, Y+1	; 0x01
    2fcc:	84 0f       	add	r24, r20
    2fce:	95 1f       	adc	r25, r21
    2fd0:	02 96       	adiw	r24, 0x02	; 2
    2fd2:	91 83       	std	Z+1, r25	; 0x01
    2fd4:	80 83       	st	Z, r24
    2fd6:	8a 81       	ldd	r24, Y+2	; 0x02
    2fd8:	9b 81       	ldd	r25, Y+3	; 0x03
    2fda:	93 83       	std	Z+3, r25	; 0x03
    2fdc:	82 83       	std	Z+2, r24	; 0x02
    2fde:	21 15       	cp	r18, r1
    2fe0:	31 05       	cpc	r19, r1
    2fe2:	29 f4       	brne	.+10     	; 0x2fee <free+0x92>
    2fe4:	f0 93 be 09 	sts	0x09BE, r31	; 0x8009be <__flp+0x1>
    2fe8:	e0 93 bd 09 	sts	0x09BD, r30	; 0x8009bd <__flp>
    2fec:	3d c0       	rjmp	.+122    	; 0x3068 <free+0x10c>
    2fee:	e9 01       	movw	r28, r18
    2ff0:	fb 83       	std	Y+3, r31	; 0x03
    2ff2:	ea 83       	std	Y+2, r30	; 0x02
    2ff4:	49 91       	ld	r20, Y+
    2ff6:	59 91       	ld	r21, Y+
    2ff8:	c4 0f       	add	r28, r20
    2ffa:	d5 1f       	adc	r29, r21
    2ffc:	ec 17       	cp	r30, r28
    2ffe:	fd 07       	cpc	r31, r29
    3000:	61 f4       	brne	.+24     	; 0x301a <free+0xbe>
    3002:	80 81       	ld	r24, Z
    3004:	91 81       	ldd	r25, Z+1	; 0x01
    3006:	84 0f       	add	r24, r20
    3008:	95 1f       	adc	r25, r21
    300a:	02 96       	adiw	r24, 0x02	; 2
    300c:	e9 01       	movw	r28, r18
    300e:	99 83       	std	Y+1, r25	; 0x01
    3010:	88 83       	st	Y, r24
    3012:	82 81       	ldd	r24, Z+2	; 0x02
    3014:	93 81       	ldd	r25, Z+3	; 0x03
    3016:	9b 83       	std	Y+3, r25	; 0x03
    3018:	8a 83       	std	Y+2, r24	; 0x02
    301a:	e0 e0       	ldi	r30, 0x00	; 0
    301c:	f0 e0       	ldi	r31, 0x00	; 0
    301e:	12 96       	adiw	r26, 0x02	; 2
    3020:	8d 91       	ld	r24, X+
    3022:	9c 91       	ld	r25, X
    3024:	13 97       	sbiw	r26, 0x03	; 3
    3026:	00 97       	sbiw	r24, 0x00	; 0
    3028:	19 f0       	breq	.+6      	; 0x3030 <free+0xd4>
    302a:	fd 01       	movw	r30, r26
    302c:	dc 01       	movw	r26, r24
    302e:	f7 cf       	rjmp	.-18     	; 0x301e <free+0xc2>
    3030:	8d 91       	ld	r24, X+
    3032:	9c 91       	ld	r25, X
    3034:	11 97       	sbiw	r26, 0x01	; 1
    3036:	9d 01       	movw	r18, r26
    3038:	2e 5f       	subi	r18, 0xFE	; 254
    303a:	3f 4f       	sbci	r19, 0xFF	; 255
    303c:	82 0f       	add	r24, r18
    303e:	93 1f       	adc	r25, r19
    3040:	20 91 bb 09 	lds	r18, 0x09BB	; 0x8009bb <__brkval>
    3044:	30 91 bc 09 	lds	r19, 0x09BC	; 0x8009bc <__brkval+0x1>
    3048:	28 17       	cp	r18, r24
    304a:	39 07       	cpc	r19, r25
    304c:	69 f4       	brne	.+26     	; 0x3068 <free+0x10c>
    304e:	30 97       	sbiw	r30, 0x00	; 0
    3050:	29 f4       	brne	.+10     	; 0x305c <free+0x100>
    3052:	10 92 be 09 	sts	0x09BE, r1	; 0x8009be <__flp+0x1>
    3056:	10 92 bd 09 	sts	0x09BD, r1	; 0x8009bd <__flp>
    305a:	02 c0       	rjmp	.+4      	; 0x3060 <free+0x104>
    305c:	13 82       	std	Z+3, r1	; 0x03
    305e:	12 82       	std	Z+2, r1	; 0x02
    3060:	b0 93 bc 09 	sts	0x09BC, r27	; 0x8009bc <__brkval+0x1>
    3064:	a0 93 bb 09 	sts	0x09BB, r26	; 0x8009bb <__brkval>
    3068:	df 91       	pop	r29
    306a:	cf 91       	pop	r28
    306c:	08 95       	ret

0000306e <strnlen_P>:
    306e:	fc 01       	movw	r30, r24
    3070:	05 90       	lpm	r0, Z+
    3072:	61 50       	subi	r22, 0x01	; 1
    3074:	70 40       	sbci	r23, 0x00	; 0
    3076:	01 10       	cpse	r0, r1
    3078:	d8 f7       	brcc	.-10     	; 0x3070 <strnlen_P+0x2>
    307a:	80 95       	com	r24
    307c:	90 95       	com	r25
    307e:	8e 0f       	add	r24, r30
    3080:	9f 1f       	adc	r25, r31
    3082:	08 95       	ret

00003084 <memset>:
    3084:	dc 01       	movw	r26, r24
    3086:	01 c0       	rjmp	.+2      	; 0x308a <memset+0x6>
    3088:	6d 93       	st	X+, r22
    308a:	41 50       	subi	r20, 0x01	; 1
    308c:	50 40       	sbci	r21, 0x00	; 0
    308e:	e0 f7       	brcc	.-8      	; 0x3088 <memset+0x4>
    3090:	08 95       	ret

00003092 <strnlen>:
    3092:	fc 01       	movw	r30, r24
    3094:	61 50       	subi	r22, 0x01	; 1
    3096:	70 40       	sbci	r23, 0x00	; 0
    3098:	01 90       	ld	r0, Z+
    309a:	01 10       	cpse	r0, r1
    309c:	d8 f7       	brcc	.-10     	; 0x3094 <strnlen+0x2>
    309e:	80 95       	com	r24
    30a0:	90 95       	com	r25
    30a2:	8e 0f       	add	r24, r30
    30a4:	9f 1f       	adc	r25, r31
    30a6:	08 95       	ret

000030a8 <fputc>:
    30a8:	0f 93       	push	r16
    30aa:	1f 93       	push	r17
    30ac:	cf 93       	push	r28
    30ae:	df 93       	push	r29
    30b0:	fb 01       	movw	r30, r22
    30b2:	23 81       	ldd	r18, Z+3	; 0x03
    30b4:	21 fd       	sbrc	r18, 1
    30b6:	03 c0       	rjmp	.+6      	; 0x30be <fputc+0x16>
    30b8:	8f ef       	ldi	r24, 0xFF	; 255
    30ba:	9f ef       	ldi	r25, 0xFF	; 255
    30bc:	2c c0       	rjmp	.+88     	; 0x3116 <fputc+0x6e>
    30be:	22 ff       	sbrs	r18, 2
    30c0:	16 c0       	rjmp	.+44     	; 0x30ee <fputc+0x46>
    30c2:	46 81       	ldd	r20, Z+6	; 0x06
    30c4:	57 81       	ldd	r21, Z+7	; 0x07
    30c6:	24 81       	ldd	r18, Z+4	; 0x04
    30c8:	35 81       	ldd	r19, Z+5	; 0x05
    30ca:	42 17       	cp	r20, r18
    30cc:	53 07       	cpc	r21, r19
    30ce:	44 f4       	brge	.+16     	; 0x30e0 <fputc+0x38>
    30d0:	a0 81       	ld	r26, Z
    30d2:	b1 81       	ldd	r27, Z+1	; 0x01
    30d4:	9d 01       	movw	r18, r26
    30d6:	2f 5f       	subi	r18, 0xFF	; 255
    30d8:	3f 4f       	sbci	r19, 0xFF	; 255
    30da:	31 83       	std	Z+1, r19	; 0x01
    30dc:	20 83       	st	Z, r18
    30de:	8c 93       	st	X, r24
    30e0:	26 81       	ldd	r18, Z+6	; 0x06
    30e2:	37 81       	ldd	r19, Z+7	; 0x07
    30e4:	2f 5f       	subi	r18, 0xFF	; 255
    30e6:	3f 4f       	sbci	r19, 0xFF	; 255
    30e8:	37 83       	std	Z+7, r19	; 0x07
    30ea:	26 83       	std	Z+6, r18	; 0x06
    30ec:	14 c0       	rjmp	.+40     	; 0x3116 <fputc+0x6e>
    30ee:	8b 01       	movw	r16, r22
    30f0:	ec 01       	movw	r28, r24
    30f2:	fb 01       	movw	r30, r22
    30f4:	00 84       	ldd	r0, Z+8	; 0x08
    30f6:	f1 85       	ldd	r31, Z+9	; 0x09
    30f8:	e0 2d       	mov	r30, r0
    30fa:	09 95       	icall
    30fc:	89 2b       	or	r24, r25
    30fe:	e1 f6       	brne	.-72     	; 0x30b8 <fputc+0x10>
    3100:	d8 01       	movw	r26, r16
    3102:	16 96       	adiw	r26, 0x06	; 6
    3104:	8d 91       	ld	r24, X+
    3106:	9c 91       	ld	r25, X
    3108:	17 97       	sbiw	r26, 0x07	; 7
    310a:	01 96       	adiw	r24, 0x01	; 1
    310c:	17 96       	adiw	r26, 0x07	; 7
    310e:	9c 93       	st	X, r25
    3110:	8e 93       	st	-X, r24
    3112:	16 97       	sbiw	r26, 0x06	; 6
    3114:	ce 01       	movw	r24, r28
    3116:	df 91       	pop	r29
    3118:	cf 91       	pop	r28
    311a:	1f 91       	pop	r17
    311c:	0f 91       	pop	r16
    311e:	08 95       	ret

00003120 <__ultoa_invert>:
    3120:	fa 01       	movw	r30, r20
    3122:	aa 27       	eor	r26, r26
    3124:	28 30       	cpi	r18, 0x08	; 8
    3126:	51 f1       	breq	.+84     	; 0x317c <__ultoa_invert+0x5c>
    3128:	20 31       	cpi	r18, 0x10	; 16
    312a:	81 f1       	breq	.+96     	; 0x318c <__ultoa_invert+0x6c>
    312c:	e8 94       	clt
    312e:	6f 93       	push	r22
    3130:	6e 7f       	andi	r22, 0xFE	; 254
    3132:	6e 5f       	subi	r22, 0xFE	; 254
    3134:	7f 4f       	sbci	r23, 0xFF	; 255
    3136:	8f 4f       	sbci	r24, 0xFF	; 255
    3138:	9f 4f       	sbci	r25, 0xFF	; 255
    313a:	af 4f       	sbci	r26, 0xFF	; 255
    313c:	b1 e0       	ldi	r27, 0x01	; 1
    313e:	3e d0       	rcall	.+124    	; 0x31bc <__ultoa_invert+0x9c>
    3140:	b4 e0       	ldi	r27, 0x04	; 4
    3142:	3c d0       	rcall	.+120    	; 0x31bc <__ultoa_invert+0x9c>
    3144:	67 0f       	add	r22, r23
    3146:	78 1f       	adc	r23, r24
    3148:	89 1f       	adc	r24, r25
    314a:	9a 1f       	adc	r25, r26
    314c:	a1 1d       	adc	r26, r1
    314e:	68 0f       	add	r22, r24
    3150:	79 1f       	adc	r23, r25
    3152:	8a 1f       	adc	r24, r26
    3154:	91 1d       	adc	r25, r1
    3156:	a1 1d       	adc	r26, r1
    3158:	6a 0f       	add	r22, r26
    315a:	71 1d       	adc	r23, r1
    315c:	81 1d       	adc	r24, r1
    315e:	91 1d       	adc	r25, r1
    3160:	a1 1d       	adc	r26, r1
    3162:	20 d0       	rcall	.+64     	; 0x31a4 <__ultoa_invert+0x84>
    3164:	09 f4       	brne	.+2      	; 0x3168 <__ultoa_invert+0x48>
    3166:	68 94       	set
    3168:	3f 91       	pop	r19
    316a:	2a e0       	ldi	r18, 0x0A	; 10
    316c:	26 9f       	mul	r18, r22
    316e:	11 24       	eor	r1, r1
    3170:	30 19       	sub	r19, r0
    3172:	30 5d       	subi	r19, 0xD0	; 208
    3174:	31 93       	st	Z+, r19
    3176:	de f6       	brtc	.-74     	; 0x312e <__ultoa_invert+0xe>
    3178:	cf 01       	movw	r24, r30
    317a:	08 95       	ret
    317c:	46 2f       	mov	r20, r22
    317e:	47 70       	andi	r20, 0x07	; 7
    3180:	40 5d       	subi	r20, 0xD0	; 208
    3182:	41 93       	st	Z+, r20
    3184:	b3 e0       	ldi	r27, 0x03	; 3
    3186:	0f d0       	rcall	.+30     	; 0x31a6 <__ultoa_invert+0x86>
    3188:	c9 f7       	brne	.-14     	; 0x317c <__ultoa_invert+0x5c>
    318a:	f6 cf       	rjmp	.-20     	; 0x3178 <__ultoa_invert+0x58>
    318c:	46 2f       	mov	r20, r22
    318e:	4f 70       	andi	r20, 0x0F	; 15
    3190:	40 5d       	subi	r20, 0xD0	; 208
    3192:	4a 33       	cpi	r20, 0x3A	; 58
    3194:	18 f0       	brcs	.+6      	; 0x319c <__ultoa_invert+0x7c>
    3196:	49 5d       	subi	r20, 0xD9	; 217
    3198:	31 fd       	sbrc	r19, 1
    319a:	40 52       	subi	r20, 0x20	; 32
    319c:	41 93       	st	Z+, r20
    319e:	02 d0       	rcall	.+4      	; 0x31a4 <__ultoa_invert+0x84>
    31a0:	a9 f7       	brne	.-22     	; 0x318c <__ultoa_invert+0x6c>
    31a2:	ea cf       	rjmp	.-44     	; 0x3178 <__ultoa_invert+0x58>
    31a4:	b4 e0       	ldi	r27, 0x04	; 4
    31a6:	a6 95       	lsr	r26
    31a8:	97 95       	ror	r25
    31aa:	87 95       	ror	r24
    31ac:	77 95       	ror	r23
    31ae:	67 95       	ror	r22
    31b0:	ba 95       	dec	r27
    31b2:	c9 f7       	brne	.-14     	; 0x31a6 <__ultoa_invert+0x86>
    31b4:	00 97       	sbiw	r24, 0x00	; 0
    31b6:	61 05       	cpc	r22, r1
    31b8:	71 05       	cpc	r23, r1
    31ba:	08 95       	ret
    31bc:	9b 01       	movw	r18, r22
    31be:	ac 01       	movw	r20, r24
    31c0:	0a 2e       	mov	r0, r26
    31c2:	06 94       	lsr	r0
    31c4:	57 95       	ror	r21
    31c6:	47 95       	ror	r20
    31c8:	37 95       	ror	r19
    31ca:	27 95       	ror	r18
    31cc:	ba 95       	dec	r27
    31ce:	c9 f7       	brne	.-14     	; 0x31c2 <__ultoa_invert+0xa2>
    31d0:	62 0f       	add	r22, r18
    31d2:	73 1f       	adc	r23, r19
    31d4:	84 1f       	adc	r24, r20
    31d6:	95 1f       	adc	r25, r21
    31d8:	a0 1d       	adc	r26, r0
    31da:	08 95       	ret

000031dc <_exit>:
    31dc:	f8 94       	cli

000031de <__stop_program>:
    31de:	ff cf       	rjmp	.-2      	; 0x31de <__stop_program>
