
ControlBoxDriver.elf:     file format elf32-avr

Sections:
Idx Name          Size      VMA       LMA       File off  Algn
  0 .data         00000000  00800200  00800200  00002542  2**0
                  CONTENTS, ALLOC, LOAD, DATA
  1 .text         000024ce  00000000  00000000  00000074  2**1
                  CONTENTS, ALLOC, LOAD, READONLY, CODE
  2 .bss          00000641  00800200  00800200  00002542  2**0
                  ALLOC
  3 .comment      00000030  00000000  00000000  00002542  2**0
                  CONTENTS, READONLY
  4 .note.gnu.avr.deviceinfo 00000040  00000000  00000000  00002574  2**2
                  CONTENTS, READONLY
  5 .debug_aranges 00000788  00000000  00000000  000025b4  2**0
                  CONTENTS, READONLY, DEBUGGING
  6 .debug_info   0000ca23  00000000  00000000  00002d3c  2**0
                  CONTENTS, READONLY, DEBUGGING
  7 .debug_abbrev 00003874  00000000  00000000  0000f75f  2**0
                  CONTENTS, READONLY, DEBUGGING
  8 .debug_line   00003c6c  00000000  00000000  00012fd3  2**0
                  CONTENTS, READONLY, DEBUGGING
  9 .debug_frame  00001438  00000000  00000000  00016c40  2**2
                  CONTENTS, READONLY, DEBUGGING
 10 .debug_str    0000303c  00000000  00000000  00018078  2**0
                  CONTENTS, READONLY, DEBUGGING
 11 .debug_loc    000056da  00000000  00000000  0001b0b4  2**0
                  CONTENTS, READONLY, DEBUGGING
 12 .debug_ranges 00000738  00000000  00000000  0002078e  2**0
                  CONTENTS, READONLY, DEBUGGING

Disassembly of section .text:

00000000 <__vectors>:
       0:	ad c0       	rjmp	.+346    	; 0x15c <__ctors_end>
       2:	00 00       	nop
       4:	d5 c0       	rjmp	.+426    	; 0x1b0 <__bad_interrupt>
       6:	00 00       	nop
       8:	d3 c0       	rjmp	.+422    	; 0x1b0 <__bad_interrupt>
       a:	00 00       	nop
       c:	d1 c0       	rjmp	.+418    	; 0x1b0 <__bad_interrupt>
       e:	00 00       	nop
      10:	cf c0       	rjmp	.+414    	; 0x1b0 <__bad_interrupt>
      12:	00 00       	nop
      14:	cd c0       	rjmp	.+410    	; 0x1b0 <__bad_interrupt>
      16:	00 00       	nop
      18:	cb c0       	rjmp	.+406    	; 0x1b0 <__bad_interrupt>
      1a:	00 00       	nop
      1c:	c9 c0       	rjmp	.+402    	; 0x1b0 <__bad_interrupt>
      1e:	00 00       	nop
      20:	c7 c0       	rjmp	.+398    	; 0x1b0 <__bad_interrupt>
      22:	00 00       	nop
      24:	c5 c0       	rjmp	.+394    	; 0x1b0 <__bad_interrupt>
      26:	00 00       	nop
      28:	c3 c0       	rjmp	.+390    	; 0x1b0 <__bad_interrupt>
      2a:	00 00       	nop
      2c:	c1 c0       	rjmp	.+386    	; 0x1b0 <__bad_interrupt>
      2e:	00 00       	nop
      30:	bf c0       	rjmp	.+382    	; 0x1b0 <__bad_interrupt>
      32:	00 00       	nop
      34:	bd c0       	rjmp	.+378    	; 0x1b0 <__bad_interrupt>
      36:	00 00       	nop
      38:	bb c0       	rjmp	.+374    	; 0x1b0 <__bad_interrupt>
      3a:	00 00       	nop
      3c:	b9 c0       	rjmp	.+370    	; 0x1b0 <__bad_interrupt>
      3e:	00 00       	nop
      40:	b7 c0       	rjmp	.+366    	; 0x1b0 <__bad_interrupt>
      42:	00 00       	nop
      44:	b5 c0       	rjmp	.+362    	; 0x1b0 <__bad_interrupt>
      46:	00 00       	nop
      48:	b3 c0       	rjmp	.+358    	; 0x1b0 <__bad_interrupt>
      4a:	00 00       	nop
      4c:	b1 c0       	rjmp	.+354    	; 0x1b0 <__bad_interrupt>
      4e:	00 00       	nop
      50:	0c 94 eb 0d 	jmp	0x1bd6	; 0x1bd6 <__vector_20>
      54:	ad c0       	rjmp	.+346    	; 0x1b0 <__bad_interrupt>
      56:	00 00       	nop
      58:	ab c0       	rjmp	.+342    	; 0x1b0 <__bad_interrupt>
      5a:	00 00       	nop
      5c:	0c 94 9c 0d 	jmp	0x1b38	; 0x1b38 <__vector_23>
      60:	a7 c0       	rjmp	.+334    	; 0x1b0 <__bad_interrupt>
      62:	00 00       	nop
      64:	0c 94 a6 0e 	jmp	0x1d4c	; 0x1d4c <__vector_25>
      68:	0c 94 d8 0e 	jmp	0x1db0	; 0x1db0 <__vector_26>
      6c:	a1 c0       	rjmp	.+322    	; 0x1b0 <__bad_interrupt>
      6e:	00 00       	nop
      70:	9f c0       	rjmp	.+318    	; 0x1b0 <__bad_interrupt>
      72:	00 00       	nop
      74:	9e c0       	rjmp	.+316    	; 0x1b2 <__vector_29>
      76:	00 00       	nop
      78:	9b c0       	rjmp	.+310    	; 0x1b0 <__bad_interrupt>
      7a:	00 00       	nop
      7c:	99 c0       	rjmp	.+306    	; 0x1b0 <__bad_interrupt>
      7e:	00 00       	nop
      80:	97 c0       	rjmp	.+302    	; 0x1b0 <__bad_interrupt>
      82:	00 00       	nop
      84:	95 c0       	rjmp	.+298    	; 0x1b0 <__bad_interrupt>
      86:	00 00       	nop
      88:	93 c0       	rjmp	.+294    	; 0x1b0 <__bad_interrupt>
      8a:	00 00       	nop
      8c:	91 c0       	rjmp	.+290    	; 0x1b0 <__bad_interrupt>
      8e:	00 00       	nop
      90:	0c 94 06 0f 	jmp	0x1e0c	; 0x1e0c <__vector_36>
      94:	0c 94 37 0f 	jmp	0x1e6e	; 0x1e6e <__vector_37>
      98:	8b c0       	rjmp	.+278    	; 0x1b0 <__bad_interrupt>
      9a:	00 00       	nop
      9c:	89 c0       	rjmp	.+274    	; 0x1b0 <__bad_interrupt>
      9e:	00 00       	nop
      a0:	87 c0       	rjmp	.+270    	; 0x1b0 <__bad_interrupt>
      a2:	00 00       	nop
      a4:	85 c0       	rjmp	.+266    	; 0x1b0 <__bad_interrupt>
      a6:	00 00       	nop
      a8:	83 c0       	rjmp	.+262    	; 0x1b0 <__bad_interrupt>
      aa:	00 00       	nop
      ac:	81 c0       	rjmp	.+258    	; 0x1b0 <__bad_interrupt>
      ae:	00 00       	nop
      b0:	7f c0       	rjmp	.+254    	; 0x1b0 <__bad_interrupt>
      b2:	00 00       	nop
      b4:	7d c0       	rjmp	.+250    	; 0x1b0 <__bad_interrupt>
      b6:	00 00       	nop
      b8:	7b c0       	rjmp	.+246    	; 0x1b0 <__bad_interrupt>
      ba:	00 00       	nop
      bc:	79 c0       	rjmp	.+242    	; 0x1b0 <__bad_interrupt>
      be:	00 00       	nop
      c0:	77 c0       	rjmp	.+238    	; 0x1b0 <__bad_interrupt>
      c2:	00 00       	nop
      c4:	75 c0       	rjmp	.+234    	; 0x1b0 <__bad_interrupt>
      c6:	00 00       	nop
      c8:	73 c0       	rjmp	.+230    	; 0x1b0 <__bad_interrupt>
      ca:	00 00       	nop
      cc:	0c 94 a9 0f 	jmp	0x1f52	; 0x1f52 <__vector_51>
      d0:	0c 94 db 0f 	jmp	0x1fb6	; 0x1fb6 <__vector_52>
      d4:	6d c0       	rjmp	.+218    	; 0x1b0 <__bad_interrupt>
      d6:	00 00       	nop
      d8:	0c 94 09 10 	jmp	0x2012	; 0x2012 <__vector_54>
      dc:	0c 94 3b 10 	jmp	0x2076	; 0x2076 <__vector_55>
      e0:	67 c0       	rjmp	.+206    	; 0x1b0 <__bad_interrupt>
      e2:	00 00       	nop
      e4:	ac 07       	cpc	r26, r28
      e6:	8b 07       	cpc	r24, r27
      e8:	8e 07       	cpc	r24, r30
      ea:	91 07       	cpc	r25, r17
      ec:	94 07       	cpc	r25, r20
      ee:	97 07       	cpc	r25, r23
      f0:	9a 07       	cpc	r25, r26
      f2:	9d 07       	cpc	r25, r29
      f4:	a0 07       	cpc	r26, r16
      f6:	a3 07       	cpc	r26, r19
      f8:	a6 07       	cpc	r26, r22
      fa:	d9 07       	cpc	r29, r25
      fc:	b8 07       	cpc	r27, r24
      fe:	bb 07       	cpc	r27, r27
     100:	be 07       	cpc	r27, r30
     102:	c1 07       	cpc	r28, r17
     104:	c4 07       	cpc	r28, r20
     106:	c7 07       	cpc	r28, r23
     108:	ca 07       	cpc	r28, r26
     10a:	cd 07       	cpc	r28, r29
     10c:	d0 07       	cpc	r29, r16
     10e:	d3 07       	cpc	r29, r19
     110:	58 08       	sbc	r5, r8
     112:	37 08       	sbc	r3, r7
     114:	3a 08       	sbc	r3, r10
     116:	3d 08       	sbc	r3, r13
     118:	40 08       	sbc	r4, r0
     11a:	43 08       	sbc	r4, r3
     11c:	46 08       	sbc	r4, r6
     11e:	49 08       	sbc	r4, r9
     120:	4c 08       	sbc	r4, r12
     122:	4f 08       	sbc	r4, r15
     124:	52 08       	sbc	r5, r2
     126:	75 0b       	sbc	r23, r21
     128:	7a 0b       	sbc	r23, r26
     12a:	7d 0b       	sbc	r23, r29
     12c:	81 0b       	sbc	r24, r17
     12e:	84 0b       	sbc	r24, r20
     130:	98 0b       	sbc	r25, r24
     132:	8f 0b       	sbc	r24, r31
     134:	92 0b       	sbc	r25, r18
     136:	02 0c       	add	r0, r2
     138:	07 0c       	add	r0, r7
     13a:	0a 0c       	add	r0, r10
     13c:	0e 0c       	add	r0, r14
     13e:	1d 0c       	add	r1, r13
     140:	11 0c       	add	r1, r1
     142:	14 0c       	add	r1, r4
     144:	17 0c       	add	r1, r7
     146:	81 0e       	add	r8, r17
     148:	84 0e       	add	r8, r20
     14a:	88 0e       	add	r8, r24
     14c:	8c 0e       	add	r8, r28
     14e:	90 0e       	add	r9, r16
     150:	94 0e       	add	r9, r20
     152:	98 0e       	add	r9, r24
     154:	9c 0e       	add	r9, r28

00000156 <__ctors_start>:
     156:	6f 06       	cpc	r6, r31
     158:	97 0a       	sbc	r9, r23
     15a:	8c 0d       	add	r24, r12

0000015c <__ctors_end>:
     15c:	11 24       	eor	r1, r1
     15e:	1f be       	out	0x3f, r1	; 63
     160:	cf ef       	ldi	r28, 0xFF	; 255
     162:	d1 e2       	ldi	r29, 0x21	; 33
     164:	de bf       	out	0x3e, r29	; 62
     166:	cd bf       	out	0x3d, r28	; 61

00000168 <__do_copy_data>:
     168:	12 e0       	ldi	r17, 0x02	; 2
     16a:	a0 e0       	ldi	r26, 0x00	; 0
     16c:	b2 e0       	ldi	r27, 0x02	; 2
     16e:	ee ec       	ldi	r30, 0xCE	; 206
     170:	f4 e2       	ldi	r31, 0x24	; 36
     172:	00 e0       	ldi	r16, 0x00	; 0
     174:	0b bf       	out	0x3b, r16	; 59
     176:	02 c0       	rjmp	.+4      	; 0x17c <__do_copy_data+0x14>
     178:	07 90       	elpm	r0, Z+
     17a:	0d 92       	st	X+, r0
     17c:	a0 30       	cpi	r26, 0x00	; 0
     17e:	b1 07       	cpc	r27, r17
     180:	d9 f7       	brne	.-10     	; 0x178 <__do_copy_data+0x10>

00000182 <__do_clear_bss>:
     182:	28 e0       	ldi	r18, 0x08	; 8
     184:	a0 e0       	ldi	r26, 0x00	; 0
     186:	b2 e0       	ldi	r27, 0x02	; 2
     188:	01 c0       	rjmp	.+2      	; 0x18c <.do_clear_bss_start>

0000018a <.do_clear_bss_loop>:
     18a:	1d 92       	st	X+, r1

0000018c <.do_clear_bss_start>:
     18c:	a1 34       	cpi	r26, 0x41	; 65
     18e:	b2 07       	cpc	r27, r18
     190:	e1 f7       	brne	.-8      	; 0x18a <.do_clear_bss_loop>

00000192 <__do_global_ctors>:
     192:	10 e0       	ldi	r17, 0x00	; 0
     194:	ce ea       	ldi	r28, 0xAE	; 174
     196:	d0 e0       	ldi	r29, 0x00	; 0
     198:	04 c0       	rjmp	.+8      	; 0x1a2 <__do_global_ctors+0x10>
     19a:	21 97       	sbiw	r28, 0x01	; 1
     19c:	fe 01       	movw	r30, r28
     19e:	0e 94 3d 12 	call	0x247a	; 0x247a <__tablejump2__>
     1a2:	cb 3a       	cpi	r28, 0xAB	; 171
     1a4:	d1 07       	cpc	r29, r17
     1a6:	c9 f7       	brne	.-14     	; 0x19a <__do_global_ctors+0x8>
     1a8:	0e 94 33 0c 	call	0x1866	; 0x1866 <main>
     1ac:	0c 94 65 12 	jmp	0x24ca	; 0x24ca <_exit>

000001b0 <__bad_interrupt>:
     1b0:	27 cf       	rjmp	.-434    	; 0x0 <__vectors>

000001b2 <__vector_29>:
     1b2:	1f 92       	push	r1
     1b4:	0f 92       	push	r0
     1b6:	0f b6       	in	r0, 0x3f	; 63
     1b8:	0f 92       	push	r0
     1ba:	11 24       	eor	r1, r1
     1bc:	8f 93       	push	r24
     1be:	81 e0       	ldi	r24, 0x01	; 1
     1c0:	80 93 00 02 	sts	0x0200, r24	; 0x800200 <__data_end>
     1c4:	8f 91       	pop	r24
     1c6:	0f 90       	pop	r0
     1c8:	0f be       	out	0x3f, r0	; 63
     1ca:	0f 90       	pop	r0
     1cc:	1f 90       	pop	r1
     1ce:	18 95       	reti

000001d0 <_ZN11AnalogInput24select_voltage_referenceEv>:
     1d0:	ec e7       	ldi	r30, 0x7C	; 124
     1d2:	f0 e0       	ldi	r31, 0x00	; 0
     1d4:	80 81       	ld	r24, Z
     1d6:	80 64       	ori	r24, 0x40	; 64
     1d8:	80 83       	st	Z, r24
     1da:	08 95       	ret

000001dc <_ZN11AnalogInput22switch_to_this_channelEv>:
     1dc:	cf 93       	push	r28
     1de:	df 93       	push	r29
     1e0:	ec 01       	movw	r28, r24
     1e2:	ec e7       	ldi	r30, 0x7C	; 124
     1e4:	f0 e0       	ldi	r31, 0x00	; 0
     1e6:	90 81       	ld	r25, Z
     1e8:	90 7e       	andi	r25, 0xE0	; 224
     1ea:	90 83       	st	Z, r25
     1ec:	ab e7       	ldi	r26, 0x7B	; 123
     1ee:	b0 e0       	ldi	r27, 0x00	; 0
     1f0:	9c 91       	ld	r25, X
     1f2:	97 7f       	andi	r25, 0xF7	; 247
     1f4:	9c 93       	st	X, r25
     1f6:	90 81       	ld	r25, Z
     1f8:	88 81       	ld	r24, Y
     1fa:	89 2b       	or	r24, r25
     1fc:	80 83       	st	Z, r24
     1fe:	df 91       	pop	r29
     200:	cf 91       	pop	r28
     202:	08 95       	ret

00000204 <_ZN11AnalogInput12set_prescaleEv>:
     204:	ea e7       	ldi	r30, 0x7A	; 122
     206:	f0 e0       	ldi	r31, 0x00	; 0
     208:	80 81       	ld	r24, Z
     20a:	87 60       	ori	r24, 0x07	; 7
     20c:	80 83       	st	Z, r24
     20e:	08 95       	ret

00000210 <_ZN11AnalogInput10enable_adcEv>:
     210:	ea e7       	ldi	r30, 0x7A	; 122
     212:	f0 e0       	ldi	r31, 0x00	; 0
     214:	80 81       	ld	r24, Z
     216:	80 68       	ori	r24, 0x80	; 128
     218:	80 83       	st	Z, r24
     21a:	08 95       	ret

0000021c <_ZN11AnalogInput10initializeE14ANALOG_CHANNEL>:
     21c:	cf 93       	push	r28
     21e:	df 93       	push	r29
     220:	ec 01       	movw	r28, r24
     222:	78 94       	sei
     224:	68 83       	st	Y, r22
     226:	d4 df       	rcall	.-88     	; 0x1d0 <_ZN11AnalogInput24select_voltage_referenceEv>
     228:	ee e7       	ldi	r30, 0x7E	; 126
     22a:	f0 e0       	ldi	r31, 0x00	; 0
     22c:	80 81       	ld	r24, Z
     22e:	8f ef       	ldi	r24, 0xFF	; 255
     230:	80 83       	st	Z, r24
     232:	ce 01       	movw	r24, r28
     234:	e7 df       	rcall	.-50     	; 0x204 <_ZN11AnalogInput12set_prescaleEv>
     236:	ce 01       	movw	r24, r28
     238:	eb df       	rcall	.-42     	; 0x210 <_ZN11AnalogInput10enable_adcEv>
     23a:	df 91       	pop	r29
     23c:	cf 91       	pop	r28
     23e:	08 95       	ret

00000240 <_ZN11AnalogInput16start_conversionEv>:
     240:	10 92 00 02 	sts	0x0200, r1	; 0x800200 <__data_end>
     244:	ea e7       	ldi	r30, 0x7A	; 122
     246:	f0 e0       	ldi	r31, 0x00	; 0
     248:	80 81       	ld	r24, Z
     24a:	88 60       	ori	r24, 0x08	; 8
     24c:	80 83       	st	Z, r24
     24e:	80 81       	ld	r24, Z
     250:	80 64       	ori	r24, 0x40	; 64
     252:	80 83       	st	Z, r24
     254:	08 95       	ret

00000256 <_ZN11AnalogInput4readEv>:
     256:	cf 93       	push	r28
     258:	df 93       	push	r29
     25a:	ec 01       	movw	r28, r24
     25c:	bf df       	rcall	.-130    	; 0x1dc <_ZN11AnalogInput22switch_to_this_channelEv>
     25e:	ce 01       	movw	r24, r28
     260:	ef df       	rcall	.-34     	; 0x240 <_ZN11AnalogInput16start_conversionEv>
     262:	80 91 00 02 	lds	r24, 0x0200	; 0x800200 <__data_end>
     266:	88 23       	and	r24, r24
     268:	e1 f3       	breq	.-8      	; 0x262 <_ZN11AnalogInput4readEv+0xc>
     26a:	20 91 78 00 	lds	r18, 0x0078	; 0x800078 <__TEXT_REGION_LENGTH__+0x7e0078>
     26e:	80 91 79 00 	lds	r24, 0x0079	; 0x800079 <__TEXT_REGION_LENGTH__+0x7e0079>
     272:	90 e0       	ldi	r25, 0x00	; 0
     274:	98 2f       	mov	r25, r24
     276:	88 27       	eor	r24, r24
     278:	82 0f       	add	r24, r18
     27a:	91 1d       	adc	r25, r1
     27c:	df 91       	pop	r29
     27e:	cf 91       	pop	r28
     280:	08 95       	ret

00000282 <_ZN14Communications10initializeEjP6Memory>:
}

long Communications::mapVal(long x, long in_min, long in_max, long out_min, long out_max)
{
	return  (x - in_min) * (out_max - out_min ) / (in_max - in_min) + out_min;
     282:	fc 01       	movw	r30, r24
     284:	51 83       	std	Z+1, r21	; 0x01
     286:	40 83       	st	Z, r20
     288:	88 e0       	ldi	r24, 0x08	; 8
     28a:	90 e0       	ldi	r25, 0x00	; 0
     28c:	0e 94 64 0f 	call	0x1ec8	; 0x1ec8 <_Z16uart1_initializej>
     290:	44 e6       	ldi	r20, 0x64	; 100
     292:	50 e0       	ldi	r21, 0x00	; 0
     294:	60 e0       	ldi	r22, 0x00	; 0
     296:	70 e0       	ldi	r23, 0x00	; 0
     298:	82 e3       	ldi	r24, 0x32	; 50
     29a:	92 e0       	ldi	r25, 0x02	; 2
     29c:	0e 94 07 0d 	call	0x1a0e	; 0x1a0e <_ZN6Clocks11setIntervalEl>
     2a0:	4c e2       	ldi	r20, 0x2C	; 44
     2a2:	51 e0       	ldi	r21, 0x01	; 1
     2a4:	60 e0       	ldi	r22, 0x00	; 0
     2a6:	70 e0       	ldi	r23, 0x00	; 0
     2a8:	86 e2       	ldi	r24, 0x26	; 38
     2aa:	92 e0       	ldi	r25, 0x02	; 2
     2ac:	0e 94 07 0d 	call	0x1a0e	; 0x1a0e <_ZN6Clocks11setIntervalEl>
     2b0:	40 ed       	ldi	r20, 0xD0	; 208
     2b2:	57 e0       	ldi	r21, 0x07	; 7
     2b4:	60 e0       	ldi	r22, 0x00	; 0
     2b6:	70 e0       	ldi	r23, 0x00	; 0
     2b8:	8a e1       	ldi	r24, 0x1A	; 26
     2ba:	92 e0       	ldi	r25, 0x02	; 2
     2bc:	0e 94 07 0d 	call	0x1a0e	; 0x1a0e <_ZN6Clocks11setIntervalEl>
     2c0:	42 ef       	ldi	r20, 0xF2	; 242
     2c2:	53 e0       	ldi	r21, 0x03	; 3
     2c4:	60 e0       	ldi	r22, 0x00	; 0
     2c6:	70 e0       	ldi	r23, 0x00	; 0
     2c8:	8e e0       	ldi	r24, 0x0E	; 14
     2ca:	92 e0       	ldi	r25, 0x02	; 2
     2cc:	0c 94 07 0d 	jmp	0x1a0e	; 0x1a0e <_ZN6Clocks11setIntervalEl>
     2d0:	08 95       	ret

000002d2 <_ZN14Communications16check_connectionEv>:
     2d2:	80 e0       	ldi	r24, 0x00	; 0
     2d4:	0e 94 8d 0c 	call	0x191a	; 0x191a <_ZN6Memory4readEh>
     2d8:	bc 01       	movw	r22, r24
     2da:	84 e0       	ldi	r24, 0x04	; 4
     2dc:	0e 94 73 0c 	call	0x18e6	; 0x18e6 <_ZN6Memory5writeEhj>
     2e0:	60 e0       	ldi	r22, 0x00	; 0
     2e2:	70 e0       	ldi	r23, 0x00	; 0
     2e4:	80 e0       	ldi	r24, 0x00	; 0
     2e6:	0e 94 73 0c 	call	0x18e6	; 0x18e6 <_ZN6Memory5writeEhj>
     2ea:	84 e0       	ldi	r24, 0x04	; 4
     2ec:	0e 94 8d 0c 	call	0x191a	; 0x191a <_ZN6Memory4readEh>
     2f0:	89 2b       	or	r24, r25
     2f2:	99 f0       	breq	.+38     	; 0x31a <_ZN14Communications16check_connectionEv+0x48>
     2f4:	8e e0       	ldi	r24, 0x0E	; 14
     2f6:	92 e0       	ldi	r25, 0x02	; 2
     2f8:	0e 94 40 0d 	call	0x1a80	; 0x1a80 <_ZN6Clocks13isDoneSpecialEv>
     2fc:	88 23       	and	r24, r24
     2fe:	49 f0       	breq	.+18     	; 0x312 <_ZN14Communications16check_connectionEv+0x40>
     300:	8a e0       	ldi	r24, 0x0A	; 10
     302:	0e 94 8d 0c 	call	0x191a	; 0x191a <_ZN6Memory4readEh>
     306:	bc 01       	movw	r22, r24
     308:	6f 5f       	subi	r22, 0xFF	; 255
     30a:	7f 4f       	sbci	r23, 0xFF	; 255
     30c:	8a e0       	ldi	r24, 0x0A	; 10
     30e:	0e 94 73 0c 	call	0x18e6	; 0x18e6 <_ZN6Memory5writeEhj>
     312:	8a e1       	ldi	r24, 0x1A	; 26
     314:	92 e0       	ldi	r25, 0x02	; 2
     316:	0e 94 9f 0c 	call	0x193e	; 0x193e <_ZN6Clocks5resetEv>
     31a:	8a e1       	ldi	r24, 0x1A	; 26
     31c:	92 e0       	ldi	r25, 0x02	; 2
     31e:	0e 94 66 0d 	call	0x1acc	; 0x1acc <_ZN6Clocks14isDone_NoResetEv>
     322:	88 23       	and	r24, r24
     324:	49 f0       	breq	.+18     	; 0x338 <_ZN14Communications16check_connectionEv+0x66>
     326:	8e e0       	ldi	r24, 0x0E	; 14
     328:	92 e0       	ldi	r25, 0x02	; 2
     32a:	0e 94 9f 0c 	call	0x193e	; 0x193e <_ZN6Clocks5resetEv>
     32e:	60 e0       	ldi	r22, 0x00	; 0
     330:	70 e0       	ldi	r23, 0x00	; 0
     332:	8a e0       	ldi	r24, 0x0A	; 10
     334:	0c 94 73 0c 	jmp	0x18e6	; 0x18e6 <_ZN6Memory5writeEhj>
     338:	08 95       	ret

0000033a <_ZN14Communications25is_emergency_stop_pressedEv>:
     33a:	80 e3       	ldi	r24, 0x30	; 48
     33c:	0e 94 8d 0c 	call	0x191a	; 0x191a <_ZN6Memory4readEh>
     340:	21 e0       	ldi	r18, 0x01	; 1
     342:	89 2b       	or	r24, r25
     344:	09 f4       	brne	.+2      	; 0x348 <_ZN14Communications25is_emergency_stop_pressedEv+0xe>
     346:	20 e0       	ldi	r18, 0x00	; 0
     348:	82 2f       	mov	r24, r18
     34a:	08 95       	ret

0000034c <_ZN14Communications19get_requested_macroEv>:
     34c:	cf 93       	push	r28
     34e:	c0 e0       	ldi	r28, 0x00	; 0
     350:	80 e4       	ldi	r24, 0x40	; 64
     352:	8c 0f       	add	r24, r28
     354:	0e 94 8d 0c 	call	0x191a	; 0x191a <_ZN6Memory4readEh>
     358:	89 2b       	or	r24, r25
     35a:	19 f0       	breq	.+6      	; 0x362 <_ZN14Communications19get_requested_macroEv+0x16>
     35c:	81 e0       	ldi	r24, 0x01	; 1
     35e:	8c 0f       	add	r24, r28
     360:	04 c0       	rjmp	.+8      	; 0x36a <_ZN14Communications19get_requested_macroEv+0x1e>
     362:	cf 5f       	subi	r28, 0xFF	; 255
     364:	c0 31       	cpi	r28, 0x10	; 16
     366:	a1 f7       	brne	.-24     	; 0x350 <_ZN14Communications19get_requested_macroEv+0x4>
     368:	8f ef       	ldi	r24, 0xFF	; 255
     36a:	cf 91       	pop	r28
     36c:	08 95       	ret

0000036e <_ZN14Communications24get_bucket_motor_commandEP7MessageRh>:
     36e:	cf 92       	push	r12
     370:	df 92       	push	r13
     372:	ef 92       	push	r14
     374:	ff 92       	push	r15
     376:	0f 93       	push	r16
     378:	1f 93       	push	r17
     37a:	cf 93       	push	r28
     37c:	df 93       	push	r29
     37e:	eb 01       	movw	r28, r22
     380:	8a 01       	movw	r16, r20
     382:	85 e2       	ldi	r24, 0x25	; 37
     384:	0e 94 8d 0c 	call	0x191a	; 0x191a <_ZN6Memory4readEh>
     388:	25 e5       	ldi	r18, 0x55	; 85
     38a:	30 e0       	ldi	r19, 0x00	; 0
     38c:	dc 01       	movw	r26, r24
     38e:	0e 94 55 12 	call	0x24aa	; 0x24aa <__usmulhisi3>
     392:	6b 01       	movw	r12, r22
     394:	7c 01       	movw	r14, r24
     396:	99 23       	and	r25, r25
     398:	34 f4       	brge	.+12     	; 0x3a6 <_ZN14Communications24get_bucket_motor_commandEP7MessageRh+0x38>
     39a:	2f ef       	ldi	r18, 0xFF	; 255
     39c:	c2 0e       	add	r12, r18
     39e:	23 e0       	ldi	r18, 0x03	; 3
     3a0:	d2 1e       	adc	r13, r18
     3a2:	e1 1c       	adc	r14, r1
     3a4:	f1 1c       	adc	r15, r1
     3a6:	d7 01       	movw	r26, r14
     3a8:	c6 01       	movw	r24, r12
     3aa:	07 2e       	mov	r0, r23
     3ac:	7a e0       	ldi	r23, 0x0A	; 10
     3ae:	b5 95       	asr	r27
     3b0:	a7 95       	ror	r26
     3b2:	97 95       	ror	r25
     3b4:	87 95       	ror	r24
     3b6:	7a 95       	dec	r23
     3b8:	d1 f7       	brne	.-12     	; 0x3ae <_ZN14Communications24get_bucket_motor_commandEP7MessageRh+0x40>
     3ba:	70 2d       	mov	r23, r0
     3bc:	6c 01       	movw	r12, r24
     3be:	7d 01       	movw	r14, r26
     3c0:	2f e0       	ldi	r18, 0x0F	; 15
     3c2:	c2 0e       	add	r12, r18
     3c4:	d1 1c       	adc	r13, r1
     3c6:	e1 1c       	adc	r14, r1
     3c8:	f1 1c       	adc	r15, r1
     3ca:	85 e3       	ldi	r24, 0x35	; 53
     3cc:	0e 94 8d 0c 	call	0x191a	; 0x191a <_ZN6Memory4readEh>
     3d0:	89 2b       	or	r24, r25
     3d2:	31 f0       	breq	.+12     	; 0x3e0 <_ZN14Communications24get_bucket_motor_commandEP7MessageRh+0x72>
     3d4:	d1 94       	neg	r13
     3d6:	c1 94       	neg	r12
     3d8:	d1 08       	sbc	r13, r1
     3da:	3c 2d       	mov	r19, r12
     3dc:	2d 2d       	mov	r18, r13
     3de:	0a c0       	rjmp	.+20     	; 0x3f4 <_ZN14Communications24get_bucket_motor_commandEP7MessageRh+0x86>
     3e0:	84 e3       	ldi	r24, 0x34	; 52
     3e2:	0e 94 8d 0c 	call	0x191a	; 0x191a <_ZN6Memory4readEh>
     3e6:	89 2b       	or	r24, r25
     3e8:	19 f0       	breq	.+6      	; 0x3f0 <_ZN14Communications24get_bucket_motor_commandEP7MessageRh+0x82>
     3ea:	3c 2d       	mov	r19, r12
     3ec:	2d 2d       	mov	r18, r13
     3ee:	02 c0       	rjmp	.+4      	; 0x3f4 <_ZN14Communications24get_bucket_motor_commandEP7MessageRh+0x86>
     3f0:	20 e0       	ldi	r18, 0x00	; 0
     3f2:	30 e0       	ldi	r19, 0x00	; 0
     3f4:	d8 01       	movw	r26, r16
     3f6:	ec 91       	ld	r30, X
     3f8:	81 e0       	ldi	r24, 0x01	; 1
     3fa:	8e 0f       	add	r24, r30
     3fc:	8c 93       	st	X, r24
     3fe:	f0 e0       	ldi	r31, 0x00	; 0
     400:	cf 01       	movw	r24, r30
     402:	88 0f       	add	r24, r24
     404:	99 1f       	adc	r25, r25
     406:	e8 0f       	add	r30, r24
     408:	f9 1f       	adc	r31, r25
     40a:	ec 0f       	add	r30, r28
     40c:	fd 1f       	adc	r31, r29
     40e:	84 e0       	ldi	r24, 0x04	; 4
     410:	80 83       	st	Z, r24
     412:	31 83       	std	Z+1, r19	; 0x01
     414:	22 83       	std	Z+2, r18	; 0x02
     416:	df 91       	pop	r29
     418:	cf 91       	pop	r28
     41a:	1f 91       	pop	r17
     41c:	0f 91       	pop	r16
     41e:	ff 90       	pop	r15
     420:	ef 90       	pop	r14
     422:	df 90       	pop	r13
     424:	cf 90       	pop	r12
     426:	08 95       	ret

00000428 <_ZN14Communications22get_plow_motor_commandEP7MessageRh>:
     428:	0f 93       	push	r16
     42a:	1f 93       	push	r17
     42c:	cf 93       	push	r28
     42e:	df 93       	push	r29
     430:	8b 01       	movw	r16, r22
     432:	ea 01       	movw	r28, r20
     434:	81 e3       	ldi	r24, 0x31	; 49
     436:	0e 94 8d 0c 	call	0x191a	; 0x191a <_ZN6Memory4readEh>
     43a:	89 2b       	or	r24, r25
     43c:	91 f4       	brne	.+36     	; 0x462 <_ZN14Communications22get_plow_motor_commandEP7MessageRh+0x3a>
     43e:	87 e3       	ldi	r24, 0x37	; 55
     440:	0e 94 8d 0c 	call	0x191a	; 0x191a <_ZN6Memory4readEh>
     444:	89 2b       	or	r24, r25
     446:	81 f4       	brne	.+32     	; 0x468 <_ZN14Communications22get_plow_motor_commandEP7MessageRh+0x40>
     448:	82 e3       	ldi	r24, 0x32	; 50
     44a:	0e 94 8d 0c 	call	0x191a	; 0x191a <_ZN6Memory4readEh>
     44e:	89 2b       	or	r24, r25
     450:	71 f4       	brne	.+28     	; 0x46e <_ZN14Communications22get_plow_motor_commandEP7MessageRh+0x46>
     452:	88 e3       	ldi	r24, 0x38	; 56
     454:	0e 94 8d 0c 	call	0x191a	; 0x191a <_ZN6Memory4readEh>
     458:	89 2b       	or	r24, r25
     45a:	61 f0       	breq	.+24     	; 0x474 <_ZN14Communications22get_plow_motor_commandEP7MessageRh+0x4c>
     45c:	80 e0       	ldi	r24, 0x00	; 0
     45e:	94 e6       	ldi	r25, 0x64	; 100
     460:	0b c0       	rjmp	.+22     	; 0x478 <_ZN14Communications22get_plow_motor_commandEP7MessageRh+0x50>
     462:	8f ef       	ldi	r24, 0xFF	; 255
     464:	9c e9       	ldi	r25, 0x9C	; 156
     466:	08 c0       	rjmp	.+16     	; 0x478 <_ZN14Communications22get_plow_motor_commandEP7MessageRh+0x50>
     468:	8f ef       	ldi	r24, 0xFF	; 255
     46a:	9c e9       	ldi	r25, 0x9C	; 156
     46c:	05 c0       	rjmp	.+10     	; 0x478 <_ZN14Communications22get_plow_motor_commandEP7MessageRh+0x50>
     46e:	80 e0       	ldi	r24, 0x00	; 0
     470:	94 e6       	ldi	r25, 0x64	; 100
     472:	02 c0       	rjmp	.+4      	; 0x478 <_ZN14Communications22get_plow_motor_commandEP7MessageRh+0x50>
     474:	80 e0       	ldi	r24, 0x00	; 0
     476:	90 e0       	ldi	r25, 0x00	; 0
     478:	e8 81       	ld	r30, Y
     47a:	21 e0       	ldi	r18, 0x01	; 1
     47c:	2e 0f       	add	r18, r30
     47e:	28 83       	st	Y, r18
     480:	f0 e0       	ldi	r31, 0x00	; 0
     482:	9f 01       	movw	r18, r30
     484:	22 0f       	add	r18, r18
     486:	33 1f       	adc	r19, r19
     488:	e2 0f       	add	r30, r18
     48a:	f3 1f       	adc	r31, r19
     48c:	e0 0f       	add	r30, r16
     48e:	f1 1f       	adc	r31, r17
     490:	25 e0       	ldi	r18, 0x05	; 5
     492:	20 83       	st	Z, r18
     494:	91 83       	std	Z+1, r25	; 0x01
     496:	82 83       	std	Z+2, r24	; 0x02
     498:	df 91       	pop	r29
     49a:	cf 91       	pop	r28
     49c:	1f 91       	pop	r17
     49e:	0f 91       	pop	r16
     4a0:	08 95       	ret

000004a2 <_ZN14Communications13joystickR_msgEP7MessageRh>:
     4a2:	2f 92       	push	r2
     4a4:	3f 92       	push	r3
     4a6:	4f 92       	push	r4
     4a8:	5f 92       	push	r5
     4aa:	6f 92       	push	r6
     4ac:	7f 92       	push	r7
     4ae:	8f 92       	push	r8
     4b0:	9f 92       	push	r9
     4b2:	af 92       	push	r10
     4b4:	bf 92       	push	r11
     4b6:	cf 92       	push	r12
     4b8:	df 92       	push	r13
     4ba:	ef 92       	push	r14
     4bc:	ff 92       	push	r15
     4be:	0f 93       	push	r16
     4c0:	1f 93       	push	r17
     4c2:	cf 93       	push	r28
     4c4:	df 93       	push	r29
     4c6:	00 d0       	rcall	.+0      	; 0x4c8 <_ZN14Communications13joystickR_msgEP7MessageRh+0x26>
     4c8:	00 d0       	rcall	.+0      	; 0x4ca <_ZN14Communications13joystickR_msgEP7MessageRh+0x28>
     4ca:	00 d0       	rcall	.+0      	; 0x4cc <_ZN14Communications13joystickR_msgEP7MessageRh+0x2a>
     4cc:	cd b7       	in	r28, 0x3d	; 61
     4ce:	de b7       	in	r29, 0x3e	; 62
     4d0:	8b 01       	movw	r16, r22
     4d2:	5e 83       	std	Y+6, r21	; 0x06
     4d4:	4d 83       	std	Y+5, r20	; 0x05
     4d6:	80 e2       	ldi	r24, 0x20	; 32
     4d8:	0e 94 8d 0c 	call	0x191a	; 0x191a <_ZN6Memory4readEh>
     4dc:	6c 01       	movw	r12, r24
     4de:	81 e2       	ldi	r24, 0x21	; 33
     4e0:	0e 94 8d 0c 	call	0x191a	; 0x191a <_ZN6Memory4readEh>
     4e4:	7c 01       	movw	r14, r24
     4e6:	85 e2       	ldi	r24, 0x25	; 37
     4e8:	0e 94 8d 0c 	call	0x191a	; 0x191a <_ZN6Memory4readEh>
     4ec:	25 e5       	ldi	r18, 0x55	; 85
     4ee:	30 e0       	ldi	r19, 0x00	; 0
     4f0:	dc 01       	movw	r26, r24
     4f2:	0e 94 55 12 	call	0x24aa	; 0x24aa <__usmulhisi3>
     4f6:	28 ee       	ldi	r18, 0xE8	; 232
     4f8:	33 e0       	ldi	r19, 0x03	; 3
     4fa:	40 e0       	ldi	r20, 0x00	; 0
     4fc:	50 e0       	ldi	r21, 0x00	; 0
     4fe:	0e 94 21 12 	call	0x2442	; 0x2442 <__divmodsi4>
     502:	29 01       	movw	r4, r18
     504:	3a 01       	movw	r6, r20
     506:	8f e0       	ldi	r24, 0x0F	; 15
     508:	48 0e       	add	r4, r24
     50a:	51 1c       	adc	r5, r1
     50c:	61 1c       	adc	r6, r1
     50e:	71 1c       	adc	r7, r1
     510:	97 01       	movw	r18, r14
     512:	ad ec       	ldi	r26, 0xCD	; 205
     514:	bc ec       	ldi	r27, 0xCC	; 204
     516:	0e 94 46 12 	call	0x248c	; 0x248c <__umulhisi3>
     51a:	96 95       	lsr	r25
     51c:	87 95       	ror	r24
     51e:	96 95       	lsr	r25
     520:	87 95       	ror	r24
     522:	bc 01       	movw	r22, r24
     524:	64 56       	subi	r22, 0x64	; 100
     526:	71 09       	sbc	r23, r1
     528:	07 2e       	mov	r0, r23
     52a:	00 0c       	add	r0, r0
     52c:	88 0b       	sbc	r24, r24
     52e:	99 0b       	sbc	r25, r25
     530:	0e 94 01 11 	call	0x2202	; 0x2202 <__floatsisf>
     534:	4b 01       	movw	r8, r22
     536:	5c 01       	movw	r10, r24
     538:	96 01       	movw	r18, r12
     53a:	ad ec       	ldi	r26, 0xCD	; 205
     53c:	bc ec       	ldi	r27, 0xCC	; 204
     53e:	0e 94 46 12 	call	0x248c	; 0x248c <__umulhisi3>
     542:	96 95       	lsr	r25
     544:	87 95       	ror	r24
     546:	96 95       	lsr	r25
     548:	87 95       	ror	r24
     54a:	bc 01       	movw	r22, r24
     54c:	64 56       	subi	r22, 0x64	; 100
     54e:	71 09       	sbc	r23, r1
     550:	07 2e       	mov	r0, r23
     552:	00 0c       	add	r0, r0
     554:	88 0b       	sbc	r24, r24
     556:	99 0b       	sbc	r25, r25
     558:	0e 94 01 11 	call	0x2202	; 0x2202 <__floatsisf>
     55c:	20 e0       	ldi	r18, 0x00	; 0
     55e:	30 e0       	ldi	r19, 0x00	; 0
     560:	40 e0       	ldi	r20, 0x00	; 0
     562:	5f e3       	ldi	r21, 0x3F	; 63
     564:	0e 94 8d 11 	call	0x231a	; 0x231a <__mulsf3>
     568:	6b 01       	movw	r12, r22
     56a:	7c 01       	movw	r14, r24
     56c:	9b 01       	movw	r18, r22
     56e:	ac 01       	movw	r20, r24
     570:	c5 01       	movw	r24, r10
     572:	b4 01       	movw	r22, r8
     574:	0e 94 6a 10 	call	0x20d4	; 0x20d4 <__addsf3>
     578:	0e 94 ce 10 	call	0x219c	; 0x219c <__fixsfsi>
     57c:	69 83       	std	Y+1, r22	; 0x01
     57e:	7a 83       	std	Y+2, r23	; 0x02
     580:	8b 83       	std	Y+3, r24	; 0x03
     582:	9c 83       	std	Y+4, r25	; 0x04
     584:	a7 01       	movw	r20, r14
     586:	96 01       	movw	r18, r12
     588:	c5 01       	movw	r24, r10
     58a:	b4 01       	movw	r22, r8
     58c:	0e 94 69 10 	call	0x20d2	; 0x20d2 <__subsf3>
     590:	0e 94 ce 10 	call	0x219c	; 0x219c <__fixsfsi>
     594:	29 81       	ldd	r18, Y+1	; 0x01
     596:	3a 81       	ldd	r19, Y+2	; 0x02
     598:	2c 39       	cpi	r18, 0x9C	; 156
     59a:	ef ef       	ldi	r30, 0xFF	; 255
     59c:	3e 07       	cpc	r19, r30
     59e:	14 f4       	brge	.+4      	; 0x5a4 <_ZN14Communications13joystickR_msgEP7MessageRh+0x102>
     5a0:	2c e9       	ldi	r18, 0x9C	; 156
     5a2:	3f ef       	ldi	r19, 0xFF	; 255
     5a4:	1b 01       	movw	r2, r22
     5a6:	6c 39       	cpi	r22, 0x9C	; 156
     5a8:	7f 4f       	sbci	r23, 0xFF	; 255
     5aa:	34 f4       	brge	.+12     	; 0x5b8 <_ZN14Communications13joystickR_msgEP7MessageRh+0x116>
     5ac:	0f 2e       	mov	r0, r31
     5ae:	fc e9       	ldi	r31, 0x9C	; 156
     5b0:	2f 2e       	mov	r2, r31
     5b2:	33 24       	eor	r3, r3
     5b4:	3a 94       	dec	r3
     5b6:	f0 2d       	mov	r31, r0
     5b8:	88 24       	eor	r8, r8
     5ba:	99 24       	eor	r9, r9
     5bc:	84 18       	sub	r8, r4
     5be:	95 08       	sbc	r9, r5
     5c0:	09 2c       	mov	r0, r9
     5c2:	00 0c       	add	r0, r0
     5c4:	aa 08       	sbc	r10, r10
     5c6:	bb 08       	sbc	r11, r11
     5c8:	05 2c       	mov	r0, r5
     5ca:	00 0c       	add	r0, r0
     5cc:	66 08       	sbc	r6, r6
     5ce:	77 08       	sbc	r7, r7
     5d0:	48 18       	sub	r4, r8
     5d2:	59 08       	sbc	r5, r9
     5d4:	6a 08       	sbc	r6, r10
     5d6:	7b 08       	sbc	r7, r11
     5d8:	25 36       	cpi	r18, 0x65	; 101
     5da:	31 05       	cpc	r19, r1
     5dc:	14 f0       	brlt	.+4      	; 0x5e2 <_ZN14Communications13joystickR_msgEP7MessageRh+0x140>
     5de:	24 e6       	ldi	r18, 0x64	; 100
     5e0:	30 e0       	ldi	r19, 0x00	; 0
     5e2:	c9 01       	movw	r24, r18
     5e4:	33 0f       	add	r19, r19
     5e6:	aa 0b       	sbc	r26, r26
     5e8:	bb 0b       	sbc	r27, r27
     5ea:	9c 01       	movw	r18, r24
     5ec:	ad 01       	movw	r20, r26
     5ee:	2c 59       	subi	r18, 0x9C	; 156
     5f0:	3f 4f       	sbci	r19, 0xFF	; 255
     5f2:	4f 4f       	sbci	r20, 0xFF	; 255
     5f4:	5f 4f       	sbci	r21, 0xFF	; 255
     5f6:	c3 01       	movw	r24, r6
     5f8:	b2 01       	movw	r22, r4
     5fa:	0e 94 f0 11 	call	0x23e0	; 0x23e0 <__mulsi3>
     5fe:	28 ec       	ldi	r18, 0xC8	; 200
     600:	30 e0       	ldi	r19, 0x00	; 0
     602:	40 e0       	ldi	r20, 0x00	; 0
     604:	50 e0       	ldi	r21, 0x00	; 0
     606:	0e 94 21 12 	call	0x2442	; 0x2442 <__divmodsi4>
     60a:	69 01       	movw	r12, r18
     60c:	7a 01       	movw	r14, r20
     60e:	c8 0c       	add	r12, r8
     610:	d9 1c       	adc	r13, r9
     612:	ea 1c       	adc	r14, r10
     614:	fb 1c       	adc	r15, r11
     616:	da 82       	std	Y+2, r13	; 0x02
     618:	c9 82       	std	Y+1, r12	; 0x01
     61a:	91 01       	movw	r18, r2
     61c:	25 36       	cpi	r18, 0x65	; 101
     61e:	31 05       	cpc	r19, r1
     620:	14 f0       	brlt	.+4      	; 0x626 <_ZN14Communications13joystickR_msgEP7MessageRh+0x184>
     622:	24 e6       	ldi	r18, 0x64	; 100
     624:	30 e0       	ldi	r19, 0x00	; 0
     626:	c9 01       	movw	r24, r18
     628:	33 0f       	add	r19, r19
     62a:	aa 0b       	sbc	r26, r26
     62c:	bb 0b       	sbc	r27, r27
     62e:	9c 01       	movw	r18, r24
     630:	ad 01       	movw	r20, r26
     632:	2c 59       	subi	r18, 0x9C	; 156
     634:	3f 4f       	sbci	r19, 0xFF	; 255
     636:	4f 4f       	sbci	r20, 0xFF	; 255
     638:	5f 4f       	sbci	r21, 0xFF	; 255
     63a:	c3 01       	movw	r24, r6
     63c:	b2 01       	movw	r22, r4
     63e:	0e 94 f0 11 	call	0x23e0	; 0x23e0 <__mulsi3>
     642:	28 ec       	ldi	r18, 0xC8	; 200
     644:	30 e0       	ldi	r19, 0x00	; 0
     646:	40 e0       	ldi	r20, 0x00	; 0
     648:	50 e0       	ldi	r21, 0x00	; 0
     64a:	0e 94 21 12 	call	0x2442	; 0x2442 <__divmodsi4>
     64e:	82 0e       	add	r8, r18
     650:	93 1e       	adc	r9, r19
     652:	a4 1e       	adc	r10, r20
     654:	b5 1e       	adc	r11, r21
     656:	c4 01       	movw	r24, r8
     658:	29 81       	ldd	r18, Y+1	; 0x01
     65a:	3a 81       	ldd	r19, Y+2	; 0x02
     65c:	33 23       	and	r19, r19
     65e:	5c f4       	brge	.+22     	; 0x676 <_ZN14Communications13joystickR_msgEP7MessageRh+0x1d4>
     660:	96 01       	movw	r18, r12
     662:	dd 20       	and	r13, r13
     664:	24 f4       	brge	.+8      	; 0x66e <_ZN14Communications13joystickR_msgEP7MessageRh+0x1cc>
     666:	22 27       	eor	r18, r18
     668:	33 27       	eor	r19, r19
     66a:	2c 19       	sub	r18, r12
     66c:	3d 09       	sbc	r19, r13
     66e:	cc 24       	eor	r12, r12
     670:	dd 24       	eor	r13, r13
     672:	c2 1a       	sub	r12, r18
     674:	d3 0a       	sbc	r13, r19
     676:	99 23       	and	r25, r25
     678:	5c f4       	brge	.+22     	; 0x690 <_ZN14Communications13joystickR_msgEP7MessageRh+0x1ee>
     67a:	94 01       	movw	r18, r8
     67c:	99 20       	and	r9, r9
     67e:	24 f4       	brge	.+8      	; 0x688 <_ZN14Communications13joystickR_msgEP7MessageRh+0x1e6>
     680:	22 27       	eor	r18, r18
     682:	33 27       	eor	r19, r19
     684:	28 19       	sub	r18, r8
     686:	39 09       	sbc	r19, r9
     688:	88 24       	eor	r8, r8
     68a:	99 24       	eor	r9, r9
     68c:	82 1a       	sub	r8, r18
     68e:	93 0a       	sbc	r9, r19
     690:	ed 81       	ldd	r30, Y+5	; 0x05
     692:	fe 81       	ldd	r31, Y+6	; 0x06
     694:	80 81       	ld	r24, Z
     696:	90 e0       	ldi	r25, 0x00	; 0
     698:	fc 01       	movw	r30, r24
     69a:	ee 0f       	add	r30, r30
     69c:	ff 1f       	adc	r31, r31
     69e:	8e 0f       	add	r24, r30
     6a0:	9f 1f       	adc	r25, r31
     6a2:	f8 01       	movw	r30, r16
     6a4:	e8 0f       	add	r30, r24
     6a6:	f9 1f       	adc	r31, r25
     6a8:	81 e0       	ldi	r24, 0x01	; 1
     6aa:	80 83       	st	Z, r24
     6ac:	ed 81       	ldd	r30, Y+5	; 0x05
     6ae:	fe 81       	ldd	r31, Y+6	; 0x06
     6b0:	80 81       	ld	r24, Z
     6b2:	90 e0       	ldi	r25, 0x00	; 0
     6b4:	fc 01       	movw	r30, r24
     6b6:	ee 0f       	add	r30, r30
     6b8:	ff 1f       	adc	r31, r31
     6ba:	8e 0f       	add	r24, r30
     6bc:	9f 1f       	adc	r25, r31
     6be:	f8 01       	movw	r30, r16
     6c0:	e8 0f       	add	r30, r24
     6c2:	f9 1f       	adc	r31, r25
     6c4:	c1 82       	std	Z+1, r12	; 0x01
     6c6:	ed 81       	ldd	r30, Y+5	; 0x05
     6c8:	fe 81       	ldd	r31, Y+6	; 0x06
     6ca:	80 81       	ld	r24, Z
     6cc:	90 e0       	ldi	r25, 0x00	; 0
     6ce:	fc 01       	movw	r30, r24
     6d0:	ee 0f       	add	r30, r30
     6d2:	ff 1f       	adc	r31, r31
     6d4:	8e 0f       	add	r24, r30
     6d6:	9f 1f       	adc	r25, r31
     6d8:	f8 01       	movw	r30, r16
     6da:	e8 0f       	add	r30, r24
     6dc:	f9 1f       	adc	r31, r25
     6de:	d2 82       	std	Z+2, r13	; 0x02
     6e0:	ed 81       	ldd	r30, Y+5	; 0x05
     6e2:	fe 81       	ldd	r31, Y+6	; 0x06
     6e4:	80 81       	ld	r24, Z
     6e6:	8f 5f       	subi	r24, 0xFF	; 255
     6e8:	80 83       	st	Z, r24
     6ea:	90 e0       	ldi	r25, 0x00	; 0
     6ec:	fc 01       	movw	r30, r24
     6ee:	ee 0f       	add	r30, r30
     6f0:	ff 1f       	adc	r31, r31
     6f2:	8e 0f       	add	r24, r30
     6f4:	9f 1f       	adc	r25, r31
     6f6:	f8 01       	movw	r30, r16
     6f8:	e8 0f       	add	r30, r24
     6fa:	f9 1f       	adc	r31, r25
     6fc:	82 e0       	ldi	r24, 0x02	; 2
     6fe:	80 83       	st	Z, r24
     700:	ed 81       	ldd	r30, Y+5	; 0x05
     702:	fe 81       	ldd	r31, Y+6	; 0x06
     704:	80 81       	ld	r24, Z
     706:	90 e0       	ldi	r25, 0x00	; 0
     708:	fc 01       	movw	r30, r24
     70a:	ee 0f       	add	r30, r30
     70c:	ff 1f       	adc	r31, r31
     70e:	8e 0f       	add	r24, r30
     710:	9f 1f       	adc	r25, r31
     712:	f8 01       	movw	r30, r16
     714:	e8 0f       	add	r30, r24
     716:	f9 1f       	adc	r31, r25
     718:	81 82       	std	Z+1, r8	; 0x01
     71a:	ed 81       	ldd	r30, Y+5	; 0x05
     71c:	fe 81       	ldd	r31, Y+6	; 0x06
     71e:	80 81       	ld	r24, Z
     720:	90 e0       	ldi	r25, 0x00	; 0
     722:	9c 01       	movw	r18, r24
     724:	22 0f       	add	r18, r18
     726:	33 1f       	adc	r19, r19
     728:	82 0f       	add	r24, r18
     72a:	93 1f       	adc	r25, r19
     72c:	f8 01       	movw	r30, r16
     72e:	e8 0f       	add	r30, r24
     730:	f9 1f       	adc	r31, r25
     732:	92 82       	std	Z+2, r9	; 0x02
     734:	ed 81       	ldd	r30, Y+5	; 0x05
     736:	fe 81       	ldd	r31, Y+6	; 0x06
     738:	80 81       	ld	r24, Z
     73a:	8f 5f       	subi	r24, 0xFF	; 255
     73c:	80 83       	st	Z, r24
     73e:	26 96       	adiw	r28, 0x06	; 6
     740:	0f b6       	in	r0, 0x3f	; 63
     742:	f8 94       	cli
     744:	de bf       	out	0x3e, r29	; 62
     746:	0f be       	out	0x3f, r0	; 63
     748:	cd bf       	out	0x3d, r28	; 61
     74a:	df 91       	pop	r29
     74c:	cf 91       	pop	r28
     74e:	1f 91       	pop	r17
     750:	0f 91       	pop	r16
     752:	ff 90       	pop	r15
     754:	ef 90       	pop	r14
     756:	df 90       	pop	r13
     758:	cf 90       	pop	r12
     75a:	bf 90       	pop	r11
     75c:	af 90       	pop	r10
     75e:	9f 90       	pop	r9
     760:	8f 90       	pop	r8
     762:	7f 90       	pop	r7
     764:	6f 90       	pop	r6
     766:	5f 90       	pop	r5
     768:	4f 90       	pop	r4
     76a:	3f 90       	pop	r3
     76c:	2f 90       	pop	r2
     76e:	08 95       	ret

00000770 <_ZN14Communications13joystickL_msgEP7MessageRh>:
     770:	8f 92       	push	r8
     772:	9f 92       	push	r9
     774:	af 92       	push	r10
     776:	bf 92       	push	r11
     778:	cf 92       	push	r12
     77a:	df 92       	push	r13
     77c:	ef 92       	push	r14
     77e:	ff 92       	push	r15
     780:	0f 93       	push	r16
     782:	1f 93       	push	r17
     784:	cf 93       	push	r28
     786:	df 93       	push	r29
     788:	8b 01       	movw	r16, r22
     78a:	ea 01       	movw	r28, r20
     78c:	83 e2       	ldi	r24, 0x23	; 35
     78e:	0e 94 8d 0c 	call	0x191a	; 0x191a <_ZN6Memory4readEh>
     792:	9c 01       	movw	r18, r24
     794:	ad ec       	ldi	r26, 0xCD	; 205
     796:	bc ec       	ldi	r27, 0xCC	; 204
     798:	0e 94 46 12 	call	0x248c	; 0x248c <__umulhisi3>
     79c:	96 95       	lsr	r25
     79e:	87 95       	ror	r24
     7a0:	96 95       	lsr	r25
     7a2:	87 95       	ror	r24
     7a4:	7c 01       	movw	r14, r24
     7a6:	24 e6       	ldi	r18, 0x64	; 100
     7a8:	e2 1a       	sub	r14, r18
     7aa:	f1 08       	sbc	r15, r1
     7ac:	84 e2       	ldi	r24, 0x24	; 36
     7ae:	0e 94 8d 0c 	call	0x191a	; 0x191a <_ZN6Memory4readEh>
     7b2:	25 e5       	ldi	r18, 0x55	; 85
     7b4:	30 e0       	ldi	r19, 0x00	; 0
     7b6:	dc 01       	movw	r26, r24
     7b8:	0e 94 55 12 	call	0x24aa	; 0x24aa <__usmulhisi3>
     7bc:	28 ee       	ldi	r18, 0xE8	; 232
     7be:	33 e0       	ldi	r19, 0x03	; 3
     7c0:	40 e0       	ldi	r20, 0x00	; 0
     7c2:	50 e0       	ldi	r21, 0x00	; 0
     7c4:	0e 94 21 12 	call	0x2442	; 0x2442 <__divmodsi4>
     7c8:	49 01       	movw	r8, r18
     7ca:	5a 01       	movw	r10, r20
     7cc:	8f e0       	ldi	r24, 0x0F	; 15
     7ce:	88 0e       	add	r8, r24
     7d0:	91 1c       	adc	r9, r1
     7d2:	a1 1c       	adc	r10, r1
     7d4:	b1 1c       	adc	r11, r1
     7d6:	c7 01       	movw	r24, r14
     7d8:	2c e9       	ldi	r18, 0x9C	; 156
     7da:	e2 16       	cp	r14, r18
     7dc:	2f ef       	ldi	r18, 0xFF	; 255
     7de:	f2 06       	cpc	r15, r18
     7e0:	14 f4       	brge	.+4      	; 0x7e6 <_ZN14Communications13joystickL_msgEP7MessageRh+0x76>
     7e2:	8c e9       	ldi	r24, 0x9C	; 156
     7e4:	9f ef       	ldi	r25, 0xFF	; 255
     7e6:	cc 24       	eor	r12, r12
     7e8:	dd 24       	eor	r13, r13
     7ea:	c8 18       	sub	r12, r8
     7ec:	d9 08       	sbc	r13, r9
     7ee:	0d 2c       	mov	r0, r13
     7f0:	00 0c       	add	r0, r0
     7f2:	ee 08       	sbc	r14, r14
     7f4:	ff 08       	sbc	r15, r15
     7f6:	9c 01       	movw	r18, r24
     7f8:	85 36       	cpi	r24, 0x65	; 101
     7fa:	91 05       	cpc	r25, r1
     7fc:	14 f0       	brlt	.+4      	; 0x802 <_ZN14Communications13joystickL_msgEP7MessageRh+0x92>
     7fe:	24 e6       	ldi	r18, 0x64	; 100
     800:	30 e0       	ldi	r19, 0x00	; 0
     802:	c9 01       	movw	r24, r18
     804:	33 0f       	add	r19, r19
     806:	aa 0b       	sbc	r26, r26
     808:	bb 0b       	sbc	r27, r27
     80a:	9c 01       	movw	r18, r24
     80c:	ad 01       	movw	r20, r26
     80e:	2c 59       	subi	r18, 0x9C	; 156
     810:	3f 4f       	sbci	r19, 0xFF	; 255
     812:	4f 4f       	sbci	r20, 0xFF	; 255
     814:	5f 4f       	sbci	r21, 0xFF	; 255
     816:	c4 01       	movw	r24, r8
     818:	99 0c       	add	r9, r9
     81a:	aa 0b       	sbc	r26, r26
     81c:	bb 0b       	sbc	r27, r27
     81e:	bc 01       	movw	r22, r24
     820:	cd 01       	movw	r24, r26
     822:	6c 19       	sub	r22, r12
     824:	7d 09       	sbc	r23, r13
     826:	8e 09       	sbc	r24, r14
     828:	9f 09       	sbc	r25, r15
     82a:	0e 94 f0 11 	call	0x23e0	; 0x23e0 <__mulsi3>
     82e:	28 ec       	ldi	r18, 0xC8	; 200
     830:	30 e0       	ldi	r19, 0x00	; 0
     832:	40 e0       	ldi	r20, 0x00	; 0
     834:	50 e0       	ldi	r21, 0x00	; 0
     836:	0e 94 21 12 	call	0x2442	; 0x2442 <__divmodsi4>
     83a:	c2 0e       	add	r12, r18
     83c:	d3 1e       	adc	r13, r19
     83e:	e4 1e       	adc	r14, r20
     840:	f5 1e       	adc	r15, r21
     842:	88 81       	ld	r24, Y
     844:	90 e0       	ldi	r25, 0x00	; 0
     846:	fc 01       	movw	r30, r24
     848:	ee 0f       	add	r30, r30
     84a:	ff 1f       	adc	r31, r31
     84c:	8e 0f       	add	r24, r30
     84e:	9f 1f       	adc	r25, r31
     850:	f8 01       	movw	r30, r16
     852:	e8 0f       	add	r30, r24
     854:	f9 1f       	adc	r31, r25
     856:	83 e0       	ldi	r24, 0x03	; 3
     858:	80 83       	st	Z, r24
     85a:	88 81       	ld	r24, Y
     85c:	90 e0       	ldi	r25, 0x00	; 0
     85e:	fc 01       	movw	r30, r24
     860:	ee 0f       	add	r30, r30
     862:	ff 1f       	adc	r31, r31
     864:	8e 0f       	add	r24, r30
     866:	9f 1f       	adc	r25, r31
     868:	f8 01       	movw	r30, r16
     86a:	e8 0f       	add	r30, r24
     86c:	f9 1f       	adc	r31, r25
     86e:	c1 82       	std	Z+1, r12	; 0x01
     870:	88 81       	ld	r24, Y
     872:	90 e0       	ldi	r25, 0x00	; 0
     874:	9c 01       	movw	r18, r24
     876:	22 0f       	add	r18, r18
     878:	33 1f       	adc	r19, r19
     87a:	82 0f       	add	r24, r18
     87c:	93 1f       	adc	r25, r19
     87e:	f8 01       	movw	r30, r16
     880:	e8 0f       	add	r30, r24
     882:	f9 1f       	adc	r31, r25
     884:	d2 82       	std	Z+2, r13	; 0x02
     886:	88 81       	ld	r24, Y
     888:	8f 5f       	subi	r24, 0xFF	; 255
     88a:	88 83       	st	Y, r24
     88c:	df 91       	pop	r29
     88e:	cf 91       	pop	r28
     890:	1f 91       	pop	r17
     892:	0f 91       	pop	r16
     894:	ff 90       	pop	r15
     896:	ef 90       	pop	r14
     898:	df 90       	pop	r13
     89a:	cf 90       	pop	r12
     89c:	bf 90       	pop	r11
     89e:	af 90       	pop	r10
     8a0:	9f 90       	pop	r9
     8a2:	8f 90       	pop	r8
     8a4:	08 95       	ret

000008a6 <_ZN14Communications3crcEPK7Messageh>:
     8a6:	ff 92       	push	r15
     8a8:	0f 93       	push	r16
     8aa:	1f 93       	push	r17
     8ac:	cf 93       	push	r28
     8ae:	df 93       	push	r29
     8b0:	00 d0       	rcall	.+0      	; 0x8b2 <_ZN14Communications3crcEPK7Messageh+0xc>
     8b2:	1f 92       	push	r1
     8b4:	cd b7       	in	r28, 0x3d	; 61
     8b6:	de b7       	in	r29, 0x3e	; 62
     8b8:	44 23       	and	r20, r20
     8ba:	61 f1       	breq	.+88     	; 0x914 <_ZN14Communications3crcEPK7Messageh+0x6e>
     8bc:	a6 2f       	mov	r26, r22
     8be:	b7 2f       	mov	r27, r23
     8c0:	f1 2c       	mov	r15, r1
     8c2:	20 e0       	ldi	r18, 0x00	; 0
     8c4:	8e 01       	movw	r16, r28
     8c6:	0c 5f       	subi	r16, 0xFC	; 252
     8c8:	1f 4f       	sbci	r17, 0xFF	; 255
     8ca:	7c e8       	ldi	r23, 0x8C	; 140
     8cc:	8c 91       	ld	r24, X
     8ce:	89 83       	std	Y+1, r24	; 0x01
     8d0:	11 96       	adiw	r26, 0x01	; 1
     8d2:	8c 91       	ld	r24, X
     8d4:	11 97       	sbiw	r26, 0x01	; 1
     8d6:	8a 83       	std	Y+2, r24	; 0x02
     8d8:	12 96       	adiw	r26, 0x02	; 2
     8da:	8c 91       	ld	r24, X
     8dc:	12 97       	sbiw	r26, 0x02	; 2
     8de:	8b 83       	std	Y+3, r24	; 0x03
     8e0:	fe 01       	movw	r30, r28
     8e2:	31 96       	adiw	r30, 0x01	; 1
     8e4:	51 91       	ld	r21, Z+
     8e6:	38 e0       	ldi	r19, 0x08	; 8
     8e8:	62 2f       	mov	r22, r18
     8ea:	65 27       	eor	r22, r21
     8ec:	82 2f       	mov	r24, r18
     8ee:	90 e0       	ldi	r25, 0x00	; 0
     8f0:	95 95       	asr	r25
     8f2:	87 95       	ror	r24
     8f4:	28 2f       	mov	r18, r24
     8f6:	60 ff       	sbrs	r22, 0
     8f8:	02 c0       	rjmp	.+4      	; 0x8fe <_ZN14Communications3crcEPK7Messageh+0x58>
     8fa:	27 2f       	mov	r18, r23
     8fc:	28 27       	eor	r18, r24
     8fe:	56 95       	lsr	r21
     900:	31 50       	subi	r19, 0x01	; 1
     902:	91 f7       	brne	.-28     	; 0x8e8 <_ZN14Communications3crcEPK7Messageh+0x42>
     904:	e0 17       	cp	r30, r16
     906:	f1 07       	cpc	r31, r17
     908:	69 f7       	brne	.-38     	; 0x8e4 <_ZN14Communications3crcEPK7Messageh+0x3e>
     90a:	f3 94       	inc	r15
     90c:	13 96       	adiw	r26, 0x03	; 3
     90e:	4f 11       	cpse	r20, r15
     910:	dd cf       	rjmp	.-70     	; 0x8cc <_ZN14Communications3crcEPK7Messageh+0x26>
     912:	01 c0       	rjmp	.+2      	; 0x916 <_ZN14Communications3crcEPK7Messageh+0x70>
     914:	20 e0       	ldi	r18, 0x00	; 0
     916:	82 2f       	mov	r24, r18
     918:	0f 90       	pop	r0
     91a:	0f 90       	pop	r0
     91c:	0f 90       	pop	r0
     91e:	df 91       	pop	r29
     920:	cf 91       	pop	r28
     922:	1f 91       	pop	r17
     924:	0f 91       	pop	r16
     926:	ff 90       	pop	r15
     928:	08 95       	ret

0000092a <_ZN14Communications4sendEPK7Messageh>:
     92a:	df 92       	push	r13
     92c:	ef 92       	push	r14
     92e:	ff 92       	push	r15
     930:	0f 93       	push	r16
     932:	1f 93       	push	r17
     934:	cf 93       	push	r28
     936:	df 93       	push	r29
     938:	7b 01       	movw	r14, r22
     93a:	14 2f       	mov	r17, r20
     93c:	b4 df       	rcall	.-152    	; 0x8a6 <_ZN14Communications3crcEPK7Messageh>
     93e:	d8 2e       	mov	r13, r24
     940:	86 e0       	ldi	r24, 0x06	; 6
     942:	0e 94 95 0f 	call	0x1f2a	; 0x1f2a <_Z15uart1_send_byteh>
     946:	85 e8       	ldi	r24, 0x85	; 133
     948:	0e 94 95 0f 	call	0x1f2a	; 0x1f2a <_Z15uart1_send_byteh>
     94c:	84 e0       	ldi	r24, 0x04	; 4
     94e:	0e 94 95 0f 	call	0x1f2a	; 0x1f2a <_Z15uart1_send_byteh>
     952:	81 e0       	ldi	r24, 0x01	; 1
     954:	0e 94 95 0f 	call	0x1f2a	; 0x1f2a <_Z15uart1_send_byteh>
     958:	81 2f       	mov	r24, r17
     95a:	88 0f       	add	r24, r24
     95c:	81 0f       	add	r24, r17
     95e:	0e 94 95 0f 	call	0x1f2a	; 0x1f2a <_Z15uart1_send_byteh>
     962:	11 23       	and	r17, r17
     964:	c1 f0       	breq	.+48     	; 0x996 <_ZN14Communications4sendEPK7Messageh+0x6c>
     966:	e7 01       	movw	r28, r14
     968:	41 2f       	mov	r20, r17
     96a:	50 e0       	ldi	r21, 0x00	; 0
     96c:	8a 01       	movw	r16, r20
     96e:	00 0f       	add	r16, r16
     970:	11 1f       	adc	r17, r17
     972:	40 0f       	add	r20, r16
     974:	51 1f       	adc	r21, r17
     976:	87 01       	movw	r16, r14
     978:	04 0f       	add	r16, r20
     97a:	15 1f       	adc	r17, r21
     97c:	88 81       	ld	r24, Y
     97e:	0e 94 95 0f 	call	0x1f2a	; 0x1f2a <_Z15uart1_send_byteh>
     982:	89 81       	ldd	r24, Y+1	; 0x01
     984:	0e 94 95 0f 	call	0x1f2a	; 0x1f2a <_Z15uart1_send_byteh>
     988:	8a 81       	ldd	r24, Y+2	; 0x02
     98a:	0e 94 95 0f 	call	0x1f2a	; 0x1f2a <_Z15uart1_send_byteh>
     98e:	23 96       	adiw	r28, 0x03	; 3
     990:	c0 17       	cp	r28, r16
     992:	d1 07       	cpc	r29, r17
     994:	99 f7       	brne	.-26     	; 0x97c <_ZN14Communications4sendEPK7Messageh+0x52>
     996:	8d 2d       	mov	r24, r13
     998:	0e 94 95 0f 	call	0x1f2a	; 0x1f2a <_Z15uart1_send_byteh>
     99c:	df 91       	pop	r29
     99e:	cf 91       	pop	r28
     9a0:	1f 91       	pop	r17
     9a2:	0f 91       	pop	r16
     9a4:	ff 90       	pop	r15
     9a6:	ef 90       	pop	r14
     9a8:	df 90       	pop	r13
     9aa:	08 95       	ret

000009ac <_ZN14Communications10ping_robotEv>:
     9ac:	0f 93       	push	r16
     9ae:	1f 93       	push	r17
     9b0:	cf 93       	push	r28
     9b2:	df 93       	push	r29
     9b4:	1f 92       	push	r1
     9b6:	cd b7       	in	r28, 0x3d	; 61
     9b8:	de b7       	in	r29, 0x3e	; 62
     9ba:	8c 01       	movw	r16, r24
     9bc:	86 e2       	ldi	r24, 0x26	; 38
     9be:	92 e0       	ldi	r25, 0x02	; 2
     9c0:	0e 94 1a 0d 	call	0x1a34	; 0x1a34 <_ZN6Clocks6isDoneEv>
     9c4:	88 23       	and	r24, r24
     9c6:	51 f0       	breq	.+20     	; 0x9dc <_ZN14Communications10ping_robotEv+0x30>
     9c8:	19 82       	std	Y+1, r1	; 0x01
     9ca:	81 e0       	ldi	r24, 0x01	; 1
     9cc:	8a 83       	std	Y+2, r24	; 0x02
     9ce:	1b 82       	std	Y+3, r1	; 0x03
     9d0:	41 e0       	ldi	r20, 0x01	; 1
     9d2:	be 01       	movw	r22, r28
     9d4:	6f 5f       	subi	r22, 0xFF	; 255
     9d6:	7f 4f       	sbci	r23, 0xFF	; 255
     9d8:	c8 01       	movw	r24, r16
     9da:	a7 df       	rcall	.-178    	; 0x92a <_ZN14Communications4sendEPK7Messageh>
     9dc:	0f 90       	pop	r0
     9de:	df 91       	pop	r29
     9e0:	cf 91       	pop	r28
     9e2:	1f 91       	pop	r17
     9e4:	0f 91       	pop	r16
     9e6:	08 95       	ret

000009e8 <_ZN14Communications21handle_manual_commandEv>:
     9e8:	0f 93       	push	r16
     9ea:	1f 93       	push	r17
     9ec:	cf 93       	push	r28
     9ee:	df 93       	push	r29
     9f0:	cd b7       	in	r28, 0x3d	; 61
     9f2:	de b7       	in	r29, 0x3e	; 62
     9f4:	60 97       	sbiw	r28, 0x10	; 16
     9f6:	0f b6       	in	r0, 0x3f	; 63
     9f8:	f8 94       	cli
     9fa:	de bf       	out	0x3e, r29	; 62
     9fc:	0f be       	out	0x3f, r0	; 63
     9fe:	cd bf       	out	0x3d, r28	; 61
     a00:	8c 01       	movw	r16, r24
     a02:	18 8a       	std	Y+16, r1	; 0x10
     a04:	ae 01       	movw	r20, r28
     a06:	40 5f       	subi	r20, 0xF0	; 240
     a08:	5f 4f       	sbci	r21, 0xFF	; 255
     a0a:	be 01       	movw	r22, r28
     a0c:	6f 5f       	subi	r22, 0xFF	; 255
     a0e:	7f 4f       	sbci	r23, 0xFF	; 255
     a10:	48 dd       	rcall	.-1392   	; 0x4a2 <_ZN14Communications13joystickR_msgEP7MessageRh>
     a12:	ae 01       	movw	r20, r28
     a14:	40 5f       	subi	r20, 0xF0	; 240
     a16:	5f 4f       	sbci	r21, 0xFF	; 255
     a18:	be 01       	movw	r22, r28
     a1a:	6f 5f       	subi	r22, 0xFF	; 255
     a1c:	7f 4f       	sbci	r23, 0xFF	; 255
     a1e:	c8 01       	movw	r24, r16
     a20:	a7 de       	rcall	.-690    	; 0x770 <_ZN14Communications13joystickL_msgEP7MessageRh>
     a22:	ae 01       	movw	r20, r28
     a24:	40 5f       	subi	r20, 0xF0	; 240
     a26:	5f 4f       	sbci	r21, 0xFF	; 255
     a28:	be 01       	movw	r22, r28
     a2a:	6f 5f       	subi	r22, 0xFF	; 255
     a2c:	7f 4f       	sbci	r23, 0xFF	; 255
     a2e:	c8 01       	movw	r24, r16
     a30:	9e dc       	rcall	.-1732   	; 0x36e <_ZN14Communications24get_bucket_motor_commandEP7MessageRh>
     a32:	ae 01       	movw	r20, r28
     a34:	40 5f       	subi	r20, 0xF0	; 240
     a36:	5f 4f       	sbci	r21, 0xFF	; 255
     a38:	be 01       	movw	r22, r28
     a3a:	6f 5f       	subi	r22, 0xFF	; 255
     a3c:	7f 4f       	sbci	r23, 0xFF	; 255
     a3e:	c8 01       	movw	r24, r16
     a40:	f3 dc       	rcall	.-1562   	; 0x428 <_ZN14Communications22get_plow_motor_commandEP7MessageRh>
     a42:	45 e0       	ldi	r20, 0x05	; 5
     a44:	be 01       	movw	r22, r28
     a46:	6f 5f       	subi	r22, 0xFF	; 255
     a48:	7f 4f       	sbci	r23, 0xFF	; 255
     a4a:	c8 01       	movw	r24, r16
     a4c:	6e df       	rcall	.-292    	; 0x92a <_ZN14Communications4sendEPK7Messageh>
     a4e:	60 96       	adiw	r28, 0x10	; 16
     a50:	0f b6       	in	r0, 0x3f	; 63
     a52:	f8 94       	cli
     a54:	de bf       	out	0x3e, r29	; 62
     a56:	0f be       	out	0x3f, r0	; 63
     a58:	cd bf       	out	0x3d, r28	; 61
     a5a:	df 91       	pop	r29
     a5c:	cf 91       	pop	r28
     a5e:	1f 91       	pop	r17
     a60:	0f 91       	pop	r16
     a62:	08 95       	ret

00000a64 <_ZN14Communications5parseEh>:
     a64:	cf 92       	push	r12
     a66:	df 92       	push	r13
     a68:	ef 92       	push	r14
     a6a:	ff 92       	push	r15
     a6c:	0f 93       	push	r16
     a6e:	1f 93       	push	r17
     a70:	cf 93       	push	r28
     a72:	df 93       	push	r29
     a74:	00 d0       	rcall	.+0      	; 0xa76 <_ZN14Communications5parseEh+0x12>
     a76:	1f 92       	push	r1
     a78:	cd b7       	in	r28, 0x3d	; 61
     a7a:	de b7       	in	r29, 0x3e	; 62
     a7c:	6c 01       	movw	r12, r24
     a7e:	7c 01       	movw	r14, r24
     a80:	8b e9       	ldi	r24, 0x9B	; 155
     a82:	e8 0e       	add	r14, r24
     a84:	f1 1c       	adc	r15, r1
     a86:	c7 01       	movw	r24, r14
     a88:	94 d1       	rcall	.+808    	; 0xdb2 <_ZN18FastTransferParser4pushEh>
     a8a:	c7 01       	movw	r24, r14
     a8c:	f2 d1       	rcall	.+996    	; 0xe72 <_ZNK18FastTransferParser14valid_messagesEv>
     a8e:	88 23       	and	r24, r24
     a90:	d1 f0       	breq	.+52     	; 0xac6 <_ZN14Communications5parseEh+0x62>
     a92:	c7 01       	movw	r24, r14
     a94:	05 d2       	rcall	.+1034   	; 0xea0 <_ZNK18FastTransferParser12num_messagesEv>
     a96:	08 2f       	mov	r16, r24
     a98:	88 23       	and	r24, r24
     a9a:	91 f0       	breq	.+36     	; 0xac0 <_ZN14Communications5parseEh+0x5c>
     a9c:	10 e0       	ldi	r17, 0x00	; 0
     a9e:	82 e0       	ldi	r24, 0x02	; 2
     aa0:	c8 0e       	add	r12, r24
     aa2:	d1 1c       	adc	r13, r1
     aa4:	61 2f       	mov	r22, r17
     aa6:	c7 01       	movw	r24, r14
     aa8:	9d d1       	rcall	.+826    	; 0xde4 <_ZNK18FastTransferParser11get_messageEh>
     aaa:	69 83       	std	Y+1, r22	; 0x01
     aac:	7a 83       	std	Y+2, r23	; 0x02
     aae:	8b 83       	std	Y+3, r24	; 0x03
     ab0:	be 01       	movw	r22, r28
     ab2:	6f 5f       	subi	r22, 0xFF	; 255
     ab4:	7f 4f       	sbci	r23, 0xFF	; 255
     ab6:	c6 01       	movw	r24, r12
     ab8:	2b d1       	rcall	.+598    	; 0xd10 <_ZN12MessageQueue4pushERK7Message>
     aba:	1f 5f       	subi	r17, 0xFF	; 255
     abc:	01 13       	cpse	r16, r17
     abe:	f2 cf       	rjmp	.-28     	; 0xaa4 <_ZN14Communications5parseEh+0x40>
     ac0:	c7 01       	movw	r24, r14
     ac2:	8d d1       	rcall	.+794    	; 0xdde <_ZN18FastTransferParser5clearEv>
     ac4:	06 c0       	rjmp	.+12     	; 0xad2 <_ZN14Communications5parseEh+0x6e>
     ac6:	c7 01       	movw	r24, r14
     ac8:	82 d1       	rcall	.+772    	; 0xdce <_ZNK18FastTransferParser7is_fullEv>
     aca:	88 23       	and	r24, r24
     acc:	11 f0       	breq	.+4      	; 0xad2 <_ZN14Communications5parseEh+0x6e>
     ace:	c7 01       	movw	r24, r14
     ad0:	86 d1       	rcall	.+780    	; 0xdde <_ZN18FastTransferParser5clearEv>
     ad2:	0f 90       	pop	r0
     ad4:	0f 90       	pop	r0
     ad6:	0f 90       	pop	r0
     ad8:	df 91       	pop	r29
     ada:	cf 91       	pop	r28
     adc:	1f 91       	pop	r17
     ade:	0f 91       	pop	r16
     ae0:	ff 90       	pop	r15
     ae2:	ef 90       	pop	r14
     ae4:	df 90       	pop	r13
     ae6:	cf 90       	pop	r12
     ae8:	08 95       	ret

00000aea <_ZN14Communications4readEv>:
     aea:	cf 93       	push	r28
     aec:	df 93       	push	r29
     aee:	ec 01       	movw	r28, r24
     af0:	0e 94 78 0f 	call	0x1ef0	; 0x1ef0 <_Z15uart1_read_bytev>
     af4:	9c 01       	movw	r18, r24
     af6:	22 27       	eor	r18, r18
     af8:	23 2b       	or	r18, r19
     afa:	49 f4       	brne	.+18     	; 0xb0e <_ZN14Communications4readEv+0x24>
     afc:	68 2f       	mov	r22, r24
     afe:	ce 01       	movw	r24, r28
     b00:	b1 df       	rcall	.-158    	; 0xa64 <_ZN14Communications5parseEh>
     b02:	0e 94 78 0f 	call	0x1ef0	; 0x1ef0 <_Z15uart1_read_bytev>
     b06:	9c 01       	movw	r18, r24
     b08:	22 27       	eor	r18, r18
     b0a:	23 2b       	or	r18, r19
     b0c:	b9 f3       	breq	.-18     	; 0xafc <_ZN14Communications4readEv+0x12>
     b0e:	df 91       	pop	r29
     b10:	cf 91       	pop	r28
     b12:	08 95       	ret

00000b14 <_ZN14Communications7receiveEv>:
     b14:	df 92       	push	r13
     b16:	ef 92       	push	r14
     b18:	ff 92       	push	r15
     b1a:	0f 93       	push	r16
     b1c:	1f 93       	push	r17
     b1e:	cf 93       	push	r28
     b20:	df 93       	push	r29
     b22:	7c 01       	movw	r14, r24
     b24:	e2 df       	rcall	.-60     	; 0xaea <_ZN14Communications4readEv>
     b26:	82 e0       	ldi	r24, 0x02	; 2
     b28:	e8 0e       	add	r14, r24
     b2a:	f1 1c       	adc	r15, r1
     b2c:	c7 01       	movw	r24, r14
     b2e:	3b d1       	rcall	.+630    	; 0xda6 <_ZNK12MessageQueue5countEv>
     b30:	88 23       	and	r24, r24
     b32:	e1 f0       	breq	.+56     	; 0xb6c <_ZN14Communications7receiveEv+0x58>
     b34:	c7 01       	movw	r24, r14
     b36:	17 d1       	rcall	.+558    	; 0xd66 <_ZN12MessageQueue3popEv>
     b38:	16 2f       	mov	r17, r22
     b3a:	d7 2e       	mov	r13, r23
     b3c:	c8 2f       	mov	r28, r24
     b3e:	86 2f       	mov	r24, r22
     b40:	f9 d6       	rcall	.+3570   	; 0x1934 <_ZN6Memory13valid_addressEh>
     b42:	88 23       	and	r24, r24
     b44:	99 f3       	breq	.-26     	; 0xb2c <_ZN14Communications7receiveEv+0x18>
     b46:	d0 e0       	ldi	r29, 0x00	; 0
     b48:	dc 2f       	mov	r29, r28
     b4a:	cc 27       	eor	r28, r28
     b4c:	cd 0d       	add	r28, r13
     b4e:	d1 1d       	adc	r29, r1
     b50:	11 30       	cpi	r17, 0x01	; 1
     b52:	41 f4       	brne	.+16     	; 0xb64 <_ZN14Communications7receiveEv+0x50>
     b54:	20 97       	sbiw	r28, 0x00	; 0
     b56:	31 f4       	brne	.+12     	; 0xb64 <_ZN14Communications7receiveEv+0x50>
     b58:	81 e0       	ldi	r24, 0x01	; 1
     b5a:	df d6       	rcall	.+3518   	; 0x191a <_ZN6Memory4readEh>
     b5c:	60 e0       	ldi	r22, 0x00	; 0
     b5e:	70 e0       	ldi	r23, 0x00	; 0
     b60:	81 5c       	subi	r24, 0xC1	; 193
     b62:	c1 d6       	rcall	.+3458   	; 0x18e6 <_ZN6Memory5writeEhj>
     b64:	be 01       	movw	r22, r28
     b66:	81 2f       	mov	r24, r17
     b68:	be d6       	rcall	.+3452   	; 0x18e6 <_ZN6Memory5writeEhj>
     b6a:	e0 cf       	rjmp	.-64     	; 0xb2c <_ZN14Communications7receiveEv+0x18>
     b6c:	df 91       	pop	r29
     b6e:	cf 91       	pop	r28
     b70:	1f 91       	pop	r17
     b72:	0f 91       	pop	r16
     b74:	ff 90       	pop	r15
     b76:	ef 90       	pop	r14
     b78:	df 90       	pop	r13
     b7a:	08 95       	ret

00000b7c <_ZN14Communications21handle_emergency_stopEv>:
     b7c:	0f 93       	push	r16
     b7e:	1f 93       	push	r17
     b80:	cf 93       	push	r28
     b82:	df 93       	push	r29
     b84:	cd b7       	in	r28, 0x3d	; 61
     b86:	de b7       	in	r29, 0x3e	; 62
     b88:	65 97       	sbiw	r28, 0x15	; 21
     b8a:	0f b6       	in	r0, 0x3f	; 63
     b8c:	f8 94       	cli
     b8e:	de bf       	out	0x3e, r29	; 62
     b90:	0f be       	out	0x3f, r0	; 63
     b92:	cd bf       	out	0x3d, r28	; 61
     b94:	8c 01       	movw	r16, r24
     b96:	81 e0       	ldi	r24, 0x01	; 1
     b98:	89 83       	std	Y+1, r24	; 0x01
     b9a:	1a 82       	std	Y+2, r1	; 0x02
     b9c:	1b 82       	std	Y+3, r1	; 0x03
     b9e:	82 e0       	ldi	r24, 0x02	; 2
     ba0:	8c 83       	std	Y+4, r24	; 0x04
     ba2:	1d 82       	std	Y+5, r1	; 0x05
     ba4:	1e 82       	std	Y+6, r1	; 0x06
     ba6:	83 e0       	ldi	r24, 0x03	; 3
     ba8:	8f 83       	std	Y+7, r24	; 0x07
     baa:	18 86       	std	Y+8, r1	; 0x08
     bac:	19 86       	std	Y+9, r1	; 0x09
     bae:	84 e0       	ldi	r24, 0x04	; 4
     bb0:	8a 87       	std	Y+10, r24	; 0x0a
     bb2:	1b 86       	std	Y+11, r1	; 0x0b
     bb4:	1c 86       	std	Y+12, r1	; 0x0c
     bb6:	85 e0       	ldi	r24, 0x05	; 5
     bb8:	8d 87       	std	Y+13, r24	; 0x0d
     bba:	1e 86       	std	Y+14, r1	; 0x0e
     bbc:	1f 86       	std	Y+15, r1	; 0x0f
     bbe:	88 e0       	ldi	r24, 0x08	; 8
     bc0:	88 8b       	std	Y+16, r24	; 0x10
     bc2:	19 8a       	std	Y+17, r1	; 0x11
     bc4:	1a 8a       	std	Y+18, r1	; 0x12
     bc6:	89 e0       	ldi	r24, 0x09	; 9
     bc8:	8b 8b       	std	Y+19, r24	; 0x13
     bca:	1c 8a       	std	Y+20, r1	; 0x14
     bcc:	1d 8a       	std	Y+21, r1	; 0x15
     bce:	47 e0       	ldi	r20, 0x07	; 7
     bd0:	be 01       	movw	r22, r28
     bd2:	6f 5f       	subi	r22, 0xFF	; 255
     bd4:	7f 4f       	sbci	r23, 0xFF	; 255
     bd6:	c8 01       	movw	r24, r16
     bd8:	a8 de       	rcall	.-688    	; 0x92a <_ZN14Communications4sendEPK7Messageh>
     bda:	c8 01       	movw	r24, r16
     bdc:	9b df       	rcall	.-202    	; 0xb14 <_ZN14Communications7receiveEv>
     bde:	65 96       	adiw	r28, 0x15	; 21
     be0:	0f b6       	in	r0, 0x3f	; 63
     be2:	f8 94       	cli
     be4:	de bf       	out	0x3e, r29	; 62
     be6:	0f be       	out	0x3f, r0	; 63
     be8:	cd bf       	out	0x3d, r28	; 61
     bea:	df 91       	pop	r29
     bec:	cf 91       	pop	r28
     bee:	1f 91       	pop	r17
     bf0:	0f 91       	pop	r16
     bf2:	08 95       	ret

00000bf4 <_ZN14Communications20handle_macro_requestEh>:
     bf4:	0f 93       	push	r16
     bf6:	1f 93       	push	r17
     bf8:	cf 93       	push	r28
     bfa:	df 93       	push	r29
     bfc:	00 d0       	rcall	.+0      	; 0xbfe <_ZN14Communications20handle_macro_requestEh+0xa>
     bfe:	00 d0       	rcall	.+0      	; 0xc00 <_ZN14Communications20handle_macro_requestEh+0xc>
     c00:	00 d0       	rcall	.+0      	; 0xc02 <_ZN14Communications20handle_macro_requestEh+0xe>
     c02:	cd b7       	in	r28, 0x3d	; 61
     c04:	de b7       	in	r29, 0x3e	; 62
     c06:	8c 01       	movw	r16, r24
     c08:	88 e0       	ldi	r24, 0x08	; 8
     c0a:	89 83       	std	Y+1, r24	; 0x01
     c0c:	6a 83       	std	Y+2, r22	; 0x02
     c0e:	1b 82       	std	Y+3, r1	; 0x03
     c10:	89 e0       	ldi	r24, 0x09	; 9
     c12:	8c 83       	std	Y+4, r24	; 0x04
     c14:	1d 82       	std	Y+5, r1	; 0x05
     c16:	1e 82       	std	Y+6, r1	; 0x06
     c18:	c8 01       	movw	r24, r16
     c1a:	82 53       	subi	r24, 0x32	; 50
     c1c:	9f 4f       	sbci	r25, 0xFF	; 255
     c1e:	8f d6       	rcall	.+3358   	; 0x193e <_ZN6Clocks5resetEv>
     c20:	42 e0       	ldi	r20, 0x02	; 2
     c22:	be 01       	movw	r22, r28
     c24:	6f 5f       	subi	r22, 0xFF	; 255
     c26:	7f 4f       	sbci	r23, 0xFF	; 255
     c28:	c8 01       	movw	r24, r16
     c2a:	7f de       	rcall	.-770    	; 0x92a <_ZN14Communications4sendEPK7Messageh>
     c2c:	c8 01       	movw	r24, r16
     c2e:	72 df       	rcall	.-284    	; 0xb14 <_ZN14Communications7receiveEv>
     c30:	26 96       	adiw	r28, 0x06	; 6
     c32:	0f b6       	in	r0, 0x3f	; 63
     c34:	f8 94       	cli
     c36:	de bf       	out	0x3e, r29	; 62
     c38:	0f be       	out	0x3f, r0	; 63
     c3a:	cd bf       	out	0x3d, r28	; 61
     c3c:	df 91       	pop	r29
     c3e:	cf 91       	pop	r28
     c40:	1f 91       	pop	r17
     c42:	0f 91       	pop	r16
     c44:	08 95       	ret

00000c46 <_ZN14Communications8transmitEv>:
     c46:	0f 93       	push	r16
     c48:	1f 93       	push	r17
     c4a:	cf 93       	push	r28
     c4c:	df 93       	push	r29
     c4e:	8c 01       	movw	r16, r24
     c50:	61 df       	rcall	.-318    	; 0xb14 <_ZN14Communications7receiveEv>
     c52:	c8 01       	movw	r24, r16
     c54:	ab de       	rcall	.-682    	; 0x9ac <_ZN14Communications10ping_robotEv>
     c56:	c8 01       	movw	r24, r16
     c58:	70 db       	rcall	.-2336   	; 0x33a <_ZN14Communications25is_emergency_stop_pressedEv>
     c5a:	81 11       	cpse	r24, r1
     c5c:	04 c0       	rjmp	.+8      	; 0xc66 <_ZN14Communications8transmitEv+0x20>
     c5e:	80 91 01 02 	lds	r24, 0x0201	; 0x800201 <E_StopPressed>
     c62:	88 23       	and	r24, r24
     c64:	a1 f0       	breq	.+40     	; 0xc8e <_ZN14Communications8transmitEv+0x48>
     c66:	c8 01       	movw	r24, r16
     c68:	89 df       	rcall	.-238    	; 0xb7c <_ZN14Communications21handle_emergency_stopEv>
     c6a:	81 e0       	ldi	r24, 0x01	; 1
     c6c:	56 d6       	rcall	.+3244   	; 0x191a <_ZN6Memory4readEh>
     c6e:	89 2b       	or	r24, r25
     c70:	21 f0       	breq	.+8      	; 0xc7a <_ZN14Communications8transmitEv+0x34>
     c72:	81 e0       	ldi	r24, 0x01	; 1
     c74:	80 93 01 02 	sts	0x0201, r24	; 0x800201 <E_StopPressed>
     c78:	2d c0       	rjmp	.+90     	; 0xcd4 <_ZN14Communications8transmitEv+0x8e>
     c7a:	c0 e4       	ldi	r28, 0x40	; 64
     c7c:	60 e0       	ldi	r22, 0x00	; 0
     c7e:	70 e0       	ldi	r23, 0x00	; 0
     c80:	8c 2f       	mov	r24, r28
     c82:	31 d6       	rcall	.+3170   	; 0x18e6 <_ZN6Memory5writeEhj>
     c84:	cf 5f       	subi	r28, 0xFF	; 255
     c86:	c0 35       	cpi	r28, 0x50	; 80
     c88:	c9 f7       	brne	.-14     	; 0xc7c <_ZN14Communications8transmitEv+0x36>
     c8a:	10 92 01 02 	sts	0x0201, r1	; 0x800201 <E_StopPressed>
     c8e:	81 e0       	ldi	r24, 0x01	; 1
     c90:	44 d6       	rcall	.+3208   	; 0x191a <_ZN6Memory4readEh>
     c92:	89 2b       	or	r24, r25
     c94:	f9 f4       	brne	.+62     	; 0xcd4 <_ZN14Communications8transmitEv+0x8e>
     c96:	82 e0       	ldi	r24, 0x02	; 2
     c98:	92 e0       	ldi	r25, 0x02	; 2
     c9a:	cc d6       	rcall	.+3480   	; 0x1a34 <_ZN6Clocks6isDoneEv>
     c9c:	88 23       	and	r24, r24
     c9e:	11 f0       	breq	.+4      	; 0xca4 <_ZN14Communications8transmitEv+0x5e>
     ca0:	c8 01       	movw	r24, r16
     ca2:	a2 de       	rcall	.-700    	; 0x9e8 <_ZN14Communications21handle_manual_commandEv>
     ca4:	c8 01       	movw	r24, r16
     ca6:	52 db       	rcall	.-2396   	; 0x34c <_ZN14Communications19get_requested_macroEv>
     ca8:	c8 2f       	mov	r28, r24
     caa:	88 0f       	add	r24, r24
     cac:	dd 0b       	sbc	r29, r29
     cae:	cf 3f       	cpi	r28, 0xFF	; 255
     cb0:	8f ef       	ldi	r24, 0xFF	; 255
     cb2:	d8 07       	cpc	r29, r24
     cb4:	79 f0       	breq	.+30     	; 0xcd4 <_ZN14Communications8transmitEv+0x8e>
     cb6:	81 e0       	ldi	r24, 0x01	; 1
     cb8:	30 d6       	rcall	.+3168   	; 0x191a <_ZN6Memory4readEh>
     cba:	c8 17       	cp	r28, r24
     cbc:	d9 07       	cpc	r29, r25
     cbe:	51 f0       	breq	.+20     	; 0xcd4 <_ZN14Communications8transmitEv+0x8e>
     cc0:	82 e3       	ldi	r24, 0x32	; 50
     cc2:	92 e0       	ldi	r25, 0x02	; 2
     cc4:	b7 d6       	rcall	.+3438   	; 0x1a34 <_ZN6Clocks6isDoneEv>
     cc6:	88 23       	and	r24, r24
     cc8:	29 f0       	breq	.+10     	; 0xcd4 <_ZN14Communications8transmitEv+0x8e>
     cca:	c8 01       	movw	r24, r16
     ccc:	3f db       	rcall	.-2434   	; 0x34c <_ZN14Communications19get_requested_macroEv>
     cce:	68 2f       	mov	r22, r24
     cd0:	c8 01       	movw	r24, r16
     cd2:	90 df       	rcall	.-224    	; 0xbf4 <_ZN14Communications20handle_macro_requestEh>
     cd4:	df 91       	pop	r29
     cd6:	cf 91       	pop	r28
     cd8:	1f 91       	pop	r17
     cda:	0f 91       	pop	r16
     cdc:	08 95       	ret

00000cde <_GLOBAL__sub_I_MACRO_RE_SEND_TIMER>:
#define when break;case
#define otherwise break;default

const UART_MODULE uart = UART_1;

Clocks MACRO_RE_SEND_TIMER, ROBOT_PING_TIMER;
     cde:	82 e3       	ldi	r24, 0x32	; 50
     ce0:	92 e0       	ldi	r25, 0x02	; 2
     ce2:	3e d6       	rcall	.+3196   	; 0x1960 <_ZN6ClocksC1Ev>
     ce4:	86 e2       	ldi	r24, 0x26	; 38
     ce6:	92 e0       	ldi	r25, 0x02	; 2
     ce8:	3b d6       	rcall	.+3190   	; 0x1960 <_ZN6ClocksC1Ev>
Clocks ROBOT_CONNECTED_TIMEOUT, CONNECTED_TIME;
     cea:	8a e1       	ldi	r24, 0x1A	; 26
     cec:	92 e0       	ldi	r25, 0x02	; 2
     cee:	38 d6       	rcall	.+3184   	; 0x1960 <_ZN6ClocksC1Ev>
     cf0:	8e e0       	ldi	r24, 0x0E	; 14
     cf2:	92 e0       	ldi	r25, 0x02	; 2
     cf4:	35 d6       	rcall	.+3178   	; 0x1960 <_ZN6ClocksC1Ev>
		memory->write(CONNECTED_TIME_ELAP,0);
	}
}

// Talking to the Robot
static Clocks TransmitPeriodTimer(100);
     cf6:	44 e6       	ldi	r20, 0x64	; 100
     cf8:	50 e0       	ldi	r21, 0x00	; 0
     cfa:	60 e0       	ldi	r22, 0x00	; 0
     cfc:	70 e0       	ldi	r23, 0x00	; 0
     cfe:	82 e0       	ldi	r24, 0x02	; 2
     d00:	92 e0       	ldi	r25, 0x02	; 2
     d02:	48 c6       	rjmp	.+3216   	; 0x1994 <_ZN6ClocksC1El>
     d04:	08 95       	ret

00000d06 <_ZN12MessageQueueC1Ev>:
     d06:	fc 01       	movw	r30, r24
     d08:	10 82       	st	Z, r1
     d0a:	11 82       	std	Z+1, r1	; 0x01
     d0c:	12 82       	std	Z+2, r1	; 0x02
     d0e:	08 95       	ret

00000d10 <_ZN12MessageQueue4pushERK7Message>:
     d10:	cf 93       	push	r28
     d12:	df 93       	push	r29
     d14:	dc 01       	movw	r26, r24
     d16:	11 96       	adiw	r26, 0x01	; 1
     d18:	2c 91       	ld	r18, X
     d1a:	11 97       	sbiw	r26, 0x01	; 1
     d1c:	81 e0       	ldi	r24, 0x01	; 1
     d1e:	82 0f       	add	r24, r18
     d20:	11 96       	adiw	r26, 0x01	; 1
     d22:	8c 93       	st	X, r24
     d24:	11 97       	sbiw	r26, 0x01	; 1
     d26:	30 e0       	ldi	r19, 0x00	; 0
     d28:	2f 5f       	subi	r18, 0xFF	; 255
     d2a:	3f 4f       	sbci	r19, 0xFF	; 255
     d2c:	f9 01       	movw	r30, r18
     d2e:	ee 0f       	add	r30, r30
     d30:	ff 1f       	adc	r31, r31
     d32:	2e 0f       	add	r18, r30
     d34:	3f 1f       	adc	r19, r31
     d36:	fd 01       	movw	r30, r26
     d38:	e2 0f       	add	r30, r18
     d3a:	f3 1f       	adc	r31, r19
     d3c:	eb 01       	movw	r28, r22
     d3e:	28 81       	ld	r18, Y
     d40:	39 81       	ldd	r19, Y+1	; 0x01
     d42:	4a 81       	ldd	r20, Y+2	; 0x02
     d44:	20 83       	st	Z, r18
     d46:	31 83       	std	Z+1, r19	; 0x01
     d48:	42 83       	std	Z+2, r20	; 0x02
     d4a:	82 33       	cpi	r24, 0x32	; 50
     d4c:	18 f0       	brcs	.+6      	; 0xd54 <_ZN12MessageQueue4pushERK7Message+0x44>
     d4e:	11 96       	adiw	r26, 0x01	; 1
     d50:	1c 92       	st	X, r1
     d52:	11 97       	sbiw	r26, 0x01	; 1
     d54:	12 96       	adiw	r26, 0x02	; 2
     d56:	8c 91       	ld	r24, X
     d58:	12 97       	sbiw	r26, 0x02	; 2
     d5a:	8f 5f       	subi	r24, 0xFF	; 255
     d5c:	12 96       	adiw	r26, 0x02	; 2
     d5e:	8c 93       	st	X, r24
     d60:	df 91       	pop	r29
     d62:	cf 91       	pop	r28
     d64:	08 95       	ret

00000d66 <_ZN12MessageQueue3popEv>:
     d66:	dc 01       	movw	r26, r24
     d68:	9c 91       	ld	r25, X
     d6a:	81 e0       	ldi	r24, 0x01	; 1
     d6c:	89 0f       	add	r24, r25
     d6e:	29 2f       	mov	r18, r25
     d70:	30 e0       	ldi	r19, 0x00	; 0
     d72:	82 33       	cpi	r24, 0x32	; 50
     d74:	10 f4       	brcc	.+4      	; 0xd7a <_ZN12MessageQueue3popEv+0x14>
     d76:	8c 93       	st	X, r24
     d78:	01 c0       	rjmp	.+2      	; 0xd7c <_ZN12MessageQueue3popEv+0x16>
     d7a:	1c 92       	st	X, r1
     d7c:	12 96       	adiw	r26, 0x02	; 2
     d7e:	8c 91       	ld	r24, X
     d80:	12 97       	sbiw	r26, 0x02	; 2
     d82:	81 50       	subi	r24, 0x01	; 1
     d84:	12 96       	adiw	r26, 0x02	; 2
     d86:	8c 93       	st	X, r24
     d88:	12 97       	sbiw	r26, 0x02	; 2
     d8a:	2f 5f       	subi	r18, 0xFF	; 255
     d8c:	3f 4f       	sbci	r19, 0xFF	; 255
     d8e:	f9 01       	movw	r30, r18
     d90:	ee 0f       	add	r30, r30
     d92:	ff 1f       	adc	r31, r31
     d94:	2e 0f       	add	r18, r30
     d96:	3f 1f       	adc	r19, r31
     d98:	fd 01       	movw	r30, r26
     d9a:	e2 0f       	add	r30, r18
     d9c:	f3 1f       	adc	r31, r19
     d9e:	60 81       	ld	r22, Z
     da0:	71 81       	ldd	r23, Z+1	; 0x01
     da2:	82 81       	ldd	r24, Z+2	; 0x02
     da4:	08 95       	ret

00000da6 <_ZNK12MessageQueue5countEv>:
     da6:	fc 01       	movw	r30, r24
     da8:	82 81       	ldd	r24, Z+2	; 0x02
     daa:	08 95       	ret

00000dac <_ZN18FastTransferParserC1Ev>:
     dac:	fc 01       	movw	r30, r24
     dae:	12 aa       	std	Z+50, r1	; 0x32
     db0:	08 95       	ret

00000db2 <_ZN18FastTransferParser4pushEh>:
     db2:	fc 01       	movw	r30, r24
     db4:	22 a9       	ldd	r18, Z+50	; 0x32
     db6:	21 11       	cpse	r18, r1
     db8:	02 c0       	rjmp	.+4      	; 0xdbe <_ZN18FastTransferParser4pushEh+0xc>
     dba:	66 30       	cpi	r22, 0x06	; 6
     dbc:	39 f4       	brne	.+14     	; 0xdcc <_ZN18FastTransferParser4pushEh+0x1a>
     dbe:	31 e0       	ldi	r19, 0x01	; 1
     dc0:	32 0f       	add	r19, r18
     dc2:	fc 01       	movw	r30, r24
     dc4:	32 ab       	std	Z+50, r19	; 0x32
     dc6:	e2 0f       	add	r30, r18
     dc8:	f1 1d       	adc	r31, r1
     dca:	60 83       	st	Z, r22
     dcc:	08 95       	ret

00000dce <_ZNK18FastTransferParser7is_fullEv>:
     dce:	21 e0       	ldi	r18, 0x01	; 1
     dd0:	fc 01       	movw	r30, r24
     dd2:	82 a9       	ldd	r24, Z+50	; 0x32
     dd4:	82 33       	cpi	r24, 0x32	; 50
     dd6:	08 f4       	brcc	.+2      	; 0xdda <_ZNK18FastTransferParser7is_fullEv+0xc>
     dd8:	20 e0       	ldi	r18, 0x00	; 0
     dda:	82 2f       	mov	r24, r18
     ddc:	08 95       	ret

00000dde <_ZN18FastTransferParser5clearEv>:
     dde:	fc 01       	movw	r30, r24
     de0:	12 aa       	std	Z+50, r1	; 0x32
     de2:	08 95       	ret

00000de4 <_ZNK18FastTransferParser11get_messageEh>:
     de4:	26 2f       	mov	r18, r22
     de6:	22 0f       	add	r18, r18
     de8:	62 0f       	add	r22, r18
     dea:	6b 5f       	subi	r22, 0xFB	; 251
     dec:	fc 01       	movw	r30, r24
     dee:	e6 0f       	add	r30, r22
     df0:	f1 1d       	adc	r31, r1
     df2:	71 81       	ldd	r23, Z+1	; 0x01
     df4:	60 81       	ld	r22, Z
     df6:	82 81       	ldd	r24, Z+2	; 0x02
     df8:	08 95       	ret

00000dfa <_ZNK18FastTransferParser10verify_crcEv>:
     dfa:	ef 92       	push	r14
     dfc:	ff 92       	push	r15
     dfe:	0f 93       	push	r16
     e00:	1f 93       	push	r17
     e02:	cf 93       	push	r28
     e04:	df 93       	push	r29
     e06:	7c 01       	movw	r14, r24
     e08:	fc 01       	movw	r30, r24
     e0a:	c2 a9       	ldd	r28, Z+50	; 0x32
     e0c:	0c 2f       	mov	r16, r28
     e0e:	10 e0       	ldi	r17, 0x00	; 0
     e10:	01 50       	subi	r16, 0x01	; 1
     e12:	11 09       	sbc	r17, r1
     e14:	06 30       	cpi	r16, 0x06	; 6
     e16:	11 05       	cpc	r17, r1
     e18:	ec f0       	brlt	.+58     	; 0xe54 <_ZNK18FastTransferParser10verify_crcEv+0x5a>
     e1a:	dc 01       	movw	r26, r24
     e1c:	15 96       	adiw	r26, 0x05	; 5
     e1e:	e8 01       	movw	r28, r16
     e20:	c8 0f       	add	r28, r24
     e22:	d9 1f       	adc	r29, r25
     e24:	90 e0       	ldi	r25, 0x00	; 0
     e26:	ec e8       	ldi	r30, 0x8C	; 140
     e28:	6d 91       	ld	r22, X+
     e2a:	48 e0       	ldi	r20, 0x08	; 8
     e2c:	50 e0       	ldi	r21, 0x00	; 0
     e2e:	79 2f       	mov	r23, r25
     e30:	76 27       	eor	r23, r22
     e32:	29 2f       	mov	r18, r25
     e34:	30 e0       	ldi	r19, 0x00	; 0
     e36:	35 95       	asr	r19
     e38:	27 95       	ror	r18
     e3a:	92 2f       	mov	r25, r18
     e3c:	70 ff       	sbrs	r23, 0
     e3e:	02 c0       	rjmp	.+4      	; 0xe44 <_ZNK18FastTransferParser10verify_crcEv+0x4a>
     e40:	9e 2f       	mov	r25, r30
     e42:	92 27       	eor	r25, r18
     e44:	66 95       	lsr	r22
     e46:	41 50       	subi	r20, 0x01	; 1
     e48:	51 09       	sbc	r21, r1
     e4a:	89 f7       	brne	.-30     	; 0xe2e <_ZNK18FastTransferParser10verify_crcEv+0x34>
     e4c:	ca 17       	cp	r28, r26
     e4e:	db 07       	cpc	r29, r27
     e50:	59 f7       	brne	.-42     	; 0xe28 <_ZNK18FastTransferParser10verify_crcEv+0x2e>
     e52:	01 c0       	rjmp	.+2      	; 0xe56 <_ZNK18FastTransferParser10verify_crcEv+0x5c>
     e54:	90 e0       	ldi	r25, 0x00	; 0
     e56:	f7 01       	movw	r30, r14
     e58:	e0 0f       	add	r30, r16
     e5a:	f1 1f       	adc	r31, r17
     e5c:	81 e0       	ldi	r24, 0x01	; 1
     e5e:	20 81       	ld	r18, Z
     e60:	29 13       	cpse	r18, r25
     e62:	80 e0       	ldi	r24, 0x00	; 0
     e64:	df 91       	pop	r29
     e66:	cf 91       	pop	r28
     e68:	1f 91       	pop	r17
     e6a:	0f 91       	pop	r16
     e6c:	ff 90       	pop	r15
     e6e:	ef 90       	pop	r14
     e70:	08 95       	ret

00000e72 <_ZNK18FastTransferParser14valid_messagesEv>:
     e72:	fc 01       	movw	r30, r24
     e74:	22 a9       	ldd	r18, Z+50	; 0x32
     e76:	26 30       	cpi	r18, 0x06	; 6
     e78:	68 f0       	brcs	.+26     	; 0xe94 <_ZNK18FastTransferParser14valid_messagesEv+0x22>
     e7a:	32 81       	ldd	r19, Z+2	; 0x02
     e7c:	31 30       	cpi	r19, 0x01	; 1
     e7e:	61 f4       	brne	.+24     	; 0xe98 <_ZNK18FastTransferParser14valid_messagesEv+0x26>
     e80:	44 81       	ldd	r20, Z+4	; 0x04
     e82:	50 e0       	ldi	r21, 0x00	; 0
     e84:	4a 5f       	subi	r20, 0xFA	; 250
     e86:	5f 4f       	sbci	r21, 0xFF	; 255
     e88:	30 e0       	ldi	r19, 0x00	; 0
     e8a:	42 17       	cp	r20, r18
     e8c:	53 07       	cpc	r21, r19
     e8e:	31 f4       	brne	.+12     	; 0xe9c <_ZNK18FastTransferParser14valid_messagesEv+0x2a>
     e90:	b4 cf       	rjmp	.-152    	; 0xdfa <_ZNK18FastTransferParser10verify_crcEv>
     e92:	08 95       	ret
     e94:	80 e0       	ldi	r24, 0x00	; 0
     e96:	08 95       	ret
     e98:	80 e0       	ldi	r24, 0x00	; 0
     e9a:	08 95       	ret
     e9c:	80 e0       	ldi	r24, 0x00	; 0
     e9e:	08 95       	ret

00000ea0 <_ZNK18FastTransferParser12num_messagesEv>:
     ea0:	cf 93       	push	r28
     ea2:	df 93       	push	r29
     ea4:	ec 01       	movw	r28, r24
     ea6:	e5 df       	rcall	.-54     	; 0xe72 <_ZNK18FastTransferParser14valid_messagesEv>
     ea8:	88 23       	and	r24, r24
     eaa:	39 f0       	breq	.+14     	; 0xeba <_ZNK18FastTransferParser12num_messagesEv+0x1a>
     eac:	8c 81       	ldd	r24, Y+4	; 0x04
     eae:	9b ea       	ldi	r25, 0xAB	; 171
     eb0:	89 9f       	mul	r24, r25
     eb2:	81 2d       	mov	r24, r1
     eb4:	11 24       	eor	r1, r1
     eb6:	86 95       	lsr	r24
     eb8:	01 c0       	rjmp	.+2      	; 0xebc <_ZNK18FastTransferParser12num_messagesEv+0x1c>
     eba:	80 e0       	ldi	r24, 0x00	; 0
     ebc:	df 91       	pop	r29
     ebe:	cf 91       	pop	r28
     ec0:	08 95       	ret

00000ec2 <_ZN16ControlBoxEngine10initializeEv>:
#include <avr/interrupt.h>
#include "timer/Clock.hpp"
#include "digital_io/digital_pin.hpp"

void ControlBoxEngine::initialize ()
{
     ec2:	cf 93       	push	r28
     ec4:	df 93       	push	r29
     ec6:	ec 01       	movw	r28, r24
	sei();
     ec8:	78 94       	sei
	memory.initialize();
     eca:	fe d4       	rcall	.+2556   	; 0x18c8 <_ZN6Memory10initializeEv>
	inputs.initialize(&memory);
     ecc:	be 01       	movw	r22, r28
     ece:	ce 01       	movw	r24, r28
     ed0:	85 52       	subi	r24, 0x25	; 37
     ed2:	9f 4f       	sbci	r25, 0xFF	; 255
     ed4:	9a d2       	rcall	.+1332   	; 0x140a <_ZN12InputHandler10initializeEP6Memory>
	communications.initialize(UART_1, &memory);
     ed6:	ae 01       	movw	r20, r28
     ed8:	61 e0       	ldi	r22, 0x01	; 1
     eda:	70 e0       	ldi	r23, 0x00	; 0
     edc:	ce 01       	movw	r24, r28
     ede:	01 96       	adiw	r24, 0x01	; 1
     ee0:	d0 d9       	rcall	.-3168   	; 0x282 <_ZN14Communications10initializeEjP6Memory>
}
     ee2:	df 91       	pop	r29
     ee4:	cf 91       	pop	r28
     ee6:	08 95       	ret

00000ee8 <_ZN16ControlBoxEngine4loopEv>:
void ControlBoxEngine::loop ()
{
	while (1)
	{
		communications.check_connection();
     ee8:	ec 01       	movw	r28, r24
     eea:	21 96       	adiw	r28, 0x01	; 1
		inputs.poll();
     eec:	8c 01       	movw	r16, r24
     eee:	05 52       	subi	r16, 0x25	; 37
     ef0:	1f 4f       	sbci	r17, 0xFF	; 255
}
void ControlBoxEngine::loop ()
{
	while (1)
	{
		communications.check_connection();
     ef2:	ce 01       	movw	r24, r28
     ef4:	ee d9       	rcall	.-3108   	; 0x2d2 <_ZN14Communications16check_connectionEv>
		inputs.poll();
     ef6:	c8 01       	movw	r24, r16
     ef8:	09 d3       	rcall	.+1554   	; 0x150c <_ZN12InputHandler4pollEv>
		communications.transmit();
     efa:	ce 01       	movw	r24, r28
     efc:	a4 de       	rcall	.-696    	; 0xc46 <_ZN14Communications8transmitEv>
		communications.receive();
     efe:	ce 01       	movw	r24, r28
     f00:	09 de       	rcall	.-1006   	; 0xb14 <_ZN14Communications7receiveEv>
     f02:	f7 cf       	rjmp	.-18     	; 0xef2 <_ZN16ControlBoxEngine4loopEv+0xa>

00000f04 <_ZL12DDR_REGISTER4Port>:
     f04:	90 e0       	ldi	r25, 0x00	; 0
     f06:	8b 30       	cpi	r24, 0x0B	; 11
     f08:	91 05       	cpc	r25, r1
     f0a:	18 f5       	brcc	.+70     	; 0xf52 <_ZL12DDR_REGISTER4Port+0x4e>
     f0c:	fc 01       	movw	r30, r24
     f0e:	ee 58       	subi	r30, 0x8E	; 142
     f10:	ff 4f       	sbci	r31, 0xFF	; 255
     f12:	0c 94 3d 12 	jmp	0x247a	; 0x247a <__tablejump2__>
     f16:	84 e2       	ldi	r24, 0x24	; 36
     f18:	90 e0       	ldi	r25, 0x00	; 0
     f1a:	08 95       	ret
     f1c:	87 e2       	ldi	r24, 0x27	; 39
     f1e:	90 e0       	ldi	r25, 0x00	; 0
     f20:	08 95       	ret
     f22:	8a e2       	ldi	r24, 0x2A	; 42
     f24:	90 e0       	ldi	r25, 0x00	; 0
     f26:	08 95       	ret
     f28:	8d e2       	ldi	r24, 0x2D	; 45
     f2a:	90 e0       	ldi	r25, 0x00	; 0
     f2c:	08 95       	ret
     f2e:	80 e3       	ldi	r24, 0x30	; 48
     f30:	90 e0       	ldi	r25, 0x00	; 0
     f32:	08 95       	ret
     f34:	83 e3       	ldi	r24, 0x33	; 51
     f36:	90 e0       	ldi	r25, 0x00	; 0
     f38:	08 95       	ret
     f3a:	81 e0       	ldi	r24, 0x01	; 1
     f3c:	91 e0       	ldi	r25, 0x01	; 1
     f3e:	08 95       	ret
     f40:	84 e0       	ldi	r24, 0x04	; 4
     f42:	91 e0       	ldi	r25, 0x01	; 1
     f44:	08 95       	ret
     f46:	87 e0       	ldi	r24, 0x07	; 7
     f48:	91 e0       	ldi	r25, 0x01	; 1
     f4a:	08 95       	ret
     f4c:	8a e0       	ldi	r24, 0x0A	; 10
     f4e:	91 e0       	ldi	r25, 0x01	; 1
     f50:	08 95       	ret
     f52:	8e e3       	ldi	r24, 0x3E	; 62
     f54:	92 e0       	ldi	r25, 0x02	; 2
     f56:	08 95       	ret
     f58:	81 e2       	ldi	r24, 0x21	; 33
     f5a:	90 e0       	ldi	r25, 0x00	; 0
     f5c:	08 95       	ret

00000f5e <_ZL13PORT_REGISTER4Port>:
     f5e:	90 e0       	ldi	r25, 0x00	; 0
     f60:	8b 30       	cpi	r24, 0x0B	; 11
     f62:	91 05       	cpc	r25, r1
     f64:	18 f5       	brcc	.+70     	; 0xfac <_ZL13PORT_REGISTER4Port+0x4e>
     f66:	fc 01       	movw	r30, r24
     f68:	e3 58       	subi	r30, 0x83	; 131
     f6a:	ff 4f       	sbci	r31, 0xFF	; 255
     f6c:	0c 94 3d 12 	jmp	0x247a	; 0x247a <__tablejump2__>
     f70:	85 e2       	ldi	r24, 0x25	; 37
     f72:	90 e0       	ldi	r25, 0x00	; 0
     f74:	08 95       	ret
     f76:	88 e2       	ldi	r24, 0x28	; 40
     f78:	90 e0       	ldi	r25, 0x00	; 0
     f7a:	08 95       	ret
     f7c:	8b e2       	ldi	r24, 0x2B	; 43
     f7e:	90 e0       	ldi	r25, 0x00	; 0
     f80:	08 95       	ret
     f82:	8e e2       	ldi	r24, 0x2E	; 46
     f84:	90 e0       	ldi	r25, 0x00	; 0
     f86:	08 95       	ret
     f88:	81 e3       	ldi	r24, 0x31	; 49
     f8a:	90 e0       	ldi	r25, 0x00	; 0
     f8c:	08 95       	ret
     f8e:	84 e3       	ldi	r24, 0x34	; 52
     f90:	90 e0       	ldi	r25, 0x00	; 0
     f92:	08 95       	ret
     f94:	82 e0       	ldi	r24, 0x02	; 2
     f96:	91 e0       	ldi	r25, 0x01	; 1
     f98:	08 95       	ret
     f9a:	85 e0       	ldi	r24, 0x05	; 5
     f9c:	91 e0       	ldi	r25, 0x01	; 1
     f9e:	08 95       	ret
     fa0:	88 e0       	ldi	r24, 0x08	; 8
     fa2:	91 e0       	ldi	r25, 0x01	; 1
     fa4:	08 95       	ret
     fa6:	8b e0       	ldi	r24, 0x0B	; 11
     fa8:	91 e0       	ldi	r25, 0x01	; 1
     faa:	08 95       	ret
     fac:	8e e3       	ldi	r24, 0x3E	; 62
     fae:	92 e0       	ldi	r25, 0x02	; 2
     fb0:	08 95       	ret
     fb2:	82 e2       	ldi	r24, 0x22	; 34
     fb4:	90 e0       	ldi	r25, 0x00	; 0
     fb6:	08 95       	ret

00000fb8 <_ZN10DigitalPin10initializeE4Port3Pin4Mode>:
     fb8:	0f 93       	push	r16
     fba:	1f 93       	push	r17
     fbc:	cf 93       	push	r28
     fbe:	df 93       	push	r29
     fc0:	fc 01       	movw	r30, r24
     fc2:	c6 2f       	mov	r28, r22
     fc4:	d4 2f       	mov	r29, r20
     fc6:	60 83       	st	Z, r22
     fc8:	41 83       	std	Z+1, r20	; 0x01
     fca:	22 83       	std	Z+2, r18	; 0x02
     fcc:	21 11       	cpse	r18, r1
     fce:	16 c0       	rjmp	.+44     	; 0xffc <_ZN10DigitalPin10initializeE4Port3Pin4Mode+0x44>
     fd0:	86 2f       	mov	r24, r22
     fd2:	98 df       	rcall	.-208    	; 0xf04 <_ZL12DDR_REGISTER4Port>
     fd4:	fc 01       	movw	r30, r24
     fd6:	90 81       	ld	r25, Z
     fd8:	21 e0       	ldi	r18, 0x01	; 1
     fda:	30 e0       	ldi	r19, 0x00	; 0
     fdc:	02 c0       	rjmp	.+4      	; 0xfe2 <_ZN10DigitalPin10initializeE4Port3Pin4Mode+0x2a>
     fde:	22 0f       	add	r18, r18
     fe0:	33 1f       	adc	r19, r19
     fe2:	da 95       	dec	r29
     fe4:	e2 f7       	brpl	.-8      	; 0xfde <_ZN10DigitalPin10initializeE4Port3Pin4Mode+0x26>
     fe6:	d2 2f       	mov	r29, r18
     fe8:	d0 95       	com	r29
     fea:	9d 23       	and	r25, r29
     fec:	90 83       	st	Z, r25
     fee:	8c 2f       	mov	r24, r28
     ff0:	b6 df       	rcall	.-148    	; 0xf5e <_ZL13PORT_REGISTER4Port>
     ff2:	fc 01       	movw	r30, r24
     ff4:	20 81       	ld	r18, Z
     ff6:	2d 23       	and	r18, r29
     ff8:	20 83       	st	Z, r18
     ffa:	25 c0       	rjmp	.+74     	; 0x1046 <_ZN10DigitalPin10initializeE4Port3Pin4Mode+0x8e>
     ffc:	22 30       	cpi	r18, 0x02	; 2
     ffe:	b1 f4       	brne	.+44     	; 0x102c <_ZN10DigitalPin10initializeE4Port3Pin4Mode+0x74>
    1000:	86 2f       	mov	r24, r22
    1002:	80 df       	rcall	.-256    	; 0xf04 <_ZL12DDR_REGISTER4Port>
    1004:	fc 01       	movw	r30, r24
    1006:	90 81       	ld	r25, Z
    1008:	01 e0       	ldi	r16, 0x01	; 1
    100a:	10 e0       	ldi	r17, 0x00	; 0
    100c:	02 c0       	rjmp	.+4      	; 0x1012 <_ZN10DigitalPin10initializeE4Port3Pin4Mode+0x5a>
    100e:	00 0f       	add	r16, r16
    1010:	11 1f       	adc	r17, r17
    1012:	da 95       	dec	r29
    1014:	e2 f7       	brpl	.-8      	; 0x100e <_ZN10DigitalPin10initializeE4Port3Pin4Mode+0x56>
    1016:	80 2f       	mov	r24, r16
    1018:	80 95       	com	r24
    101a:	98 23       	and	r25, r24
    101c:	90 83       	st	Z, r25
    101e:	8c 2f       	mov	r24, r28
    1020:	9e df       	rcall	.-196    	; 0xf5e <_ZL13PORT_REGISTER4Port>
    1022:	fc 01       	movw	r30, r24
    1024:	20 81       	ld	r18, Z
    1026:	02 2b       	or	r16, r18
    1028:	00 83       	st	Z, r16
    102a:	0d c0       	rjmp	.+26     	; 0x1046 <_ZN10DigitalPin10initializeE4Port3Pin4Mode+0x8e>
    102c:	86 2f       	mov	r24, r22
    102e:	6a df       	rcall	.-300    	; 0xf04 <_ZL12DDR_REGISTER4Port>
    1030:	fc 01       	movw	r30, r24
    1032:	40 81       	ld	r20, Z
    1034:	21 e0       	ldi	r18, 0x01	; 1
    1036:	30 e0       	ldi	r19, 0x00	; 0
    1038:	02 c0       	rjmp	.+4      	; 0x103e <_ZN10DigitalPin10initializeE4Port3Pin4Mode+0x86>
    103a:	22 0f       	add	r18, r18
    103c:	33 1f       	adc	r19, r19
    103e:	da 95       	dec	r29
    1040:	e2 f7       	brpl	.-8      	; 0x103a <_ZN10DigitalPin10initializeE4Port3Pin4Mode+0x82>
    1042:	24 2b       	or	r18, r20
    1044:	20 83       	st	Z, r18
    1046:	df 91       	pop	r29
    1048:	cf 91       	pop	r28
    104a:	1f 91       	pop	r17
    104c:	0f 91       	pop	r16
    104e:	08 95       	ret

00001050 <_ZN10DigitalPin4readEv>:
    1050:	dc 01       	movw	r26, r24
    1052:	11 96       	adiw	r26, 0x01	; 1
    1054:	2c 91       	ld	r18, X
    1056:	11 97       	sbiw	r26, 0x01	; 1
    1058:	ec 91       	ld	r30, X
    105a:	8e 2f       	mov	r24, r30
    105c:	90 e0       	ldi	r25, 0x00	; 0
    105e:	8b 30       	cpi	r24, 0x0B	; 11
    1060:	91 05       	cpc	r25, r1
    1062:	18 f5       	brcc	.+70     	; 0x10aa <_ZN10DigitalPin4readEv+0x5a>
    1064:	fc 01       	movw	r30, r24
    1066:	e8 57       	subi	r30, 0x78	; 120
    1068:	ff 4f       	sbci	r31, 0xFF	; 255
    106a:	0c 94 3d 12 	jmp	0x247a	; 0x247a <__tablejump2__>
    106e:	e3 e2       	ldi	r30, 0x23	; 35
    1070:	f0 e0       	ldi	r31, 0x00	; 0
    1072:	20 c0       	rjmp	.+64     	; 0x10b4 <_ZN10DigitalPin4readEv+0x64>
    1074:	e6 e2       	ldi	r30, 0x26	; 38
    1076:	f0 e0       	ldi	r31, 0x00	; 0
    1078:	1d c0       	rjmp	.+58     	; 0x10b4 <_ZN10DigitalPin4readEv+0x64>
    107a:	e9 e2       	ldi	r30, 0x29	; 41
    107c:	f0 e0       	ldi	r31, 0x00	; 0
    107e:	1a c0       	rjmp	.+52     	; 0x10b4 <_ZN10DigitalPin4readEv+0x64>
    1080:	ec e2       	ldi	r30, 0x2C	; 44
    1082:	f0 e0       	ldi	r31, 0x00	; 0
    1084:	17 c0       	rjmp	.+46     	; 0x10b4 <_ZN10DigitalPin4readEv+0x64>
    1086:	ef e2       	ldi	r30, 0x2F	; 47
    1088:	f0 e0       	ldi	r31, 0x00	; 0
    108a:	14 c0       	rjmp	.+40     	; 0x10b4 <_ZN10DigitalPin4readEv+0x64>
    108c:	e2 e3       	ldi	r30, 0x32	; 50
    108e:	f0 e0       	ldi	r31, 0x00	; 0
    1090:	11 c0       	rjmp	.+34     	; 0x10b4 <_ZN10DigitalPin4readEv+0x64>
    1092:	e0 e0       	ldi	r30, 0x00	; 0
    1094:	f1 e0       	ldi	r31, 0x01	; 1
    1096:	0e c0       	rjmp	.+28     	; 0x10b4 <_ZN10DigitalPin4readEv+0x64>
    1098:	e3 e0       	ldi	r30, 0x03	; 3
    109a:	f1 e0       	ldi	r31, 0x01	; 1
    109c:	0b c0       	rjmp	.+22     	; 0x10b4 <_ZN10DigitalPin4readEv+0x64>
    109e:	e6 e0       	ldi	r30, 0x06	; 6
    10a0:	f1 e0       	ldi	r31, 0x01	; 1
    10a2:	08 c0       	rjmp	.+16     	; 0x10b4 <_ZN10DigitalPin4readEv+0x64>
    10a4:	e9 e0       	ldi	r30, 0x09	; 9
    10a6:	f1 e0       	ldi	r31, 0x01	; 1
    10a8:	05 c0       	rjmp	.+10     	; 0x10b4 <_ZN10DigitalPin4readEv+0x64>
    10aa:	ee e3       	ldi	r30, 0x3E	; 62
    10ac:	f2 e0       	ldi	r31, 0x02	; 2
    10ae:	02 c0       	rjmp	.+4      	; 0x10b4 <_ZN10DigitalPin4readEv+0x64>
    10b0:	e0 e2       	ldi	r30, 0x20	; 32
    10b2:	f0 e0       	ldi	r31, 0x00	; 0
    10b4:	80 81       	ld	r24, Z
    10b6:	90 e0       	ldi	r25, 0x00	; 0
    10b8:	02 c0       	rjmp	.+4      	; 0x10be <_ZN10DigitalPin4readEv+0x6e>
    10ba:	95 95       	asr	r25
    10bc:	87 95       	ror	r24
    10be:	2a 95       	dec	r18
    10c0:	e2 f7       	brpl	.-8      	; 0x10ba <_ZN10DigitalPin4readEv+0x6a>
    10c2:	81 70       	andi	r24, 0x01	; 1
    10c4:	08 95       	ret

000010c6 <_ZN10DigitalPin6is_lowEv>:
    10c6:	c4 df       	rcall	.-120    	; 0x1050 <_ZN10DigitalPin4readEv>
    10c8:	91 e0       	ldi	r25, 0x01	; 1
    10ca:	89 27       	eor	r24, r25
    10cc:	08 95       	ret

000010ce <_ZN8Expander11set_addressEh>:
    10ce:	fc 01       	movw	r30, r24
    10d0:	61 93       	st	Z+, r22
    10d2:	cf 01       	movw	r24, r30
    10d4:	48 c2       	rjmp	.+1168   	; 0x1566 <_ZN3I2C11set_addressEh>
    10d6:	08 95       	ret

000010d8 <_ZN8Expander14write_registerEhh>:
    10d8:	ef 92       	push	r14
    10da:	ff 92       	push	r15
    10dc:	0f 93       	push	r16
    10de:	1f 93       	push	r17
    10e0:	cf 93       	push	r28
    10e2:	df 93       	push	r29
    10e4:	00 d0       	rcall	.+0      	; 0x10e6 <_ZN8Expander14write_registerEhh+0xe>
    10e6:	cd b7       	in	r28, 0x3d	; 61
    10e8:	de b7       	in	r29, 0x3e	; 62
    10ea:	e6 2e       	mov	r14, r22
    10ec:	f4 2e       	mov	r15, r20
    10ee:	8c 01       	movw	r16, r24
    10f0:	0f 5f       	subi	r16, 0xFF	; 255
    10f2:	1f 4f       	sbci	r17, 0xFF	; 255
    10f4:	fc 01       	movw	r30, r24
    10f6:	60 81       	ld	r22, Z
    10f8:	c8 01       	movw	r24, r16
    10fa:	35 d2       	rcall	.+1130   	; 0x1566 <_ZN3I2C11set_addressEh>
    10fc:	e9 82       	std	Y+1, r14	; 0x01
    10fe:	fa 82       	std	Y+2, r15	; 0x02
    1100:	42 e0       	ldi	r20, 0x02	; 2
    1102:	be 01       	movw	r22, r28
    1104:	6f 5f       	subi	r22, 0xFF	; 255
    1106:	7f 4f       	sbci	r23, 0xFF	; 255
    1108:	c8 01       	movw	r24, r16
    110a:	b1 d2       	rcall	.+1378   	; 0x166e <_ZN3I2C5writeEPhh>
    110c:	0f 90       	pop	r0
    110e:	0f 90       	pop	r0
    1110:	df 91       	pop	r29
    1112:	cf 91       	pop	r28
    1114:	1f 91       	pop	r17
    1116:	0f 91       	pop	r16
    1118:	ff 90       	pop	r15
    111a:	ef 90       	pop	r14
    111c:	08 95       	ret

0000111e <_ZN8Expander13read_registerEh>:
    111e:	0f 93       	push	r16
    1120:	1f 93       	push	r17
    1122:	cf 93       	push	r28
    1124:	df 93       	push	r29
    1126:	00 d0       	rcall	.+0      	; 0x1128 <_ZN8Expander13read_registerEh+0xa>
    1128:	cd b7       	in	r28, 0x3d	; 61
    112a:	de b7       	in	r29, 0x3e	; 62
    112c:	6a 83       	std	Y+2, r22	; 0x02
    112e:	8c 01       	movw	r16, r24
    1130:	0f 5f       	subi	r16, 0xFF	; 255
    1132:	1f 4f       	sbci	r17, 0xFF	; 255
    1134:	fc 01       	movw	r30, r24
    1136:	60 81       	ld	r22, Z
    1138:	c8 01       	movw	r24, r16
    113a:	15 d2       	rcall	.+1066   	; 0x1566 <_ZN3I2C11set_addressEh>
    113c:	41 e0       	ldi	r20, 0x01	; 1
    113e:	be 01       	movw	r22, r28
    1140:	6e 5f       	subi	r22, 0xFE	; 254
    1142:	7f 4f       	sbci	r23, 0xFF	; 255
    1144:	c8 01       	movw	r24, r16
    1146:	93 d2       	rcall	.+1318   	; 0x166e <_ZN3I2C5writeEPhh>
    1148:	41 e0       	ldi	r20, 0x01	; 1
    114a:	be 01       	movw	r22, r28
    114c:	6f 5f       	subi	r22, 0xFF	; 255
    114e:	7f 4f       	sbci	r23, 0xFF	; 255
    1150:	c8 01       	movw	r24, r16
    1152:	2c d3       	rcall	.+1624   	; 0x17ac <_ZN3I2C4readEPhh>
    1154:	89 81       	ldd	r24, Y+1	; 0x01
    1156:	0f 90       	pop	r0
    1158:	0f 90       	pop	r0
    115a:	df 91       	pop	r29
    115c:	cf 91       	pop	r28
    115e:	1f 91       	pop	r17
    1160:	0f 91       	pop	r16
    1162:	08 95       	ret

00001164 <_ZN11ExpanderPin4readEv>:
    1164:	cf 93       	push	r28
    1166:	df 93       	push	r29
    1168:	ec 01       	movw	r28, r24
    116a:	88 81       	ld	r24, Y
    116c:	88 23       	and	r24, r24
    116e:	11 f0       	breq	.+4      	; 0x1174 <_ZN11ExpanderPin4readEv+0x10>
    1170:	63 e1       	ldi	r22, 0x13	; 19
    1172:	01 c0       	rjmp	.+2      	; 0x1176 <_ZN11ExpanderPin4readEv+0x12>
    1174:	62 e1       	ldi	r22, 0x12	; 18
    1176:	8b 81       	ldd	r24, Y+3	; 0x03
    1178:	9c 81       	ldd	r25, Y+4	; 0x04
    117a:	d1 df       	rcall	.-94     	; 0x111e <_ZN8Expander13read_registerEh>
    117c:	90 e0       	ldi	r25, 0x00	; 0
    117e:	09 80       	ldd	r0, Y+1	; 0x01
    1180:	02 c0       	rjmp	.+4      	; 0x1186 <_ZN11ExpanderPin4readEv+0x22>
    1182:	95 95       	asr	r25
    1184:	87 95       	ror	r24
    1186:	0a 94       	dec	r0
    1188:	e2 f7       	brpl	.-8      	; 0x1182 <_ZN11ExpanderPin4readEv+0x1e>
    118a:	81 70       	andi	r24, 0x01	; 1
    118c:	df 91       	pop	r29
    118e:	cf 91       	pop	r28
    1190:	08 95       	ret

00001192 <_ZN11ExpanderPin8set_modeE4Mode>:
    1192:	1f 93       	push	r17
    1194:	cf 93       	push	r28
    1196:	df 93       	push	r29
    1198:	ec 01       	movw	r28, r24
    119a:	6a 83       	std	Y+2, r22	; 0x02
    119c:	11 e0       	ldi	r17, 0x01	; 1
    119e:	88 81       	ld	r24, Y
    11a0:	81 11       	cpse	r24, r1
    11a2:	01 c0       	rjmp	.+2      	; 0x11a6 <_ZN11ExpanderPin8set_modeE4Mode+0x14>
    11a4:	10 e0       	ldi	r17, 0x00	; 0
    11a6:	61 11       	cpse	r22, r1
    11a8:	12 c0       	rjmp	.+36     	; 0x11ce <_ZN11ExpanderPin8set_modeE4Mode+0x3c>
    11aa:	61 2f       	mov	r22, r17
    11ac:	8b 81       	ldd	r24, Y+3	; 0x03
    11ae:	9c 81       	ldd	r25, Y+4	; 0x04
    11b0:	b6 df       	rcall	.-148    	; 0x111e <_ZN8Expander13read_registerEh>
    11b2:	41 e0       	ldi	r20, 0x01	; 1
    11b4:	50 e0       	ldi	r21, 0x00	; 0
    11b6:	09 80       	ldd	r0, Y+1	; 0x01
    11b8:	02 c0       	rjmp	.+4      	; 0x11be <_ZN11ExpanderPin8set_modeE4Mode+0x2c>
    11ba:	44 0f       	add	r20, r20
    11bc:	55 1f       	adc	r21, r21
    11be:	0a 94       	dec	r0
    11c0:	e2 f7       	brpl	.-8      	; 0x11ba <_ZN11ExpanderPin8set_modeE4Mode+0x28>
    11c2:	48 2b       	or	r20, r24
    11c4:	61 2f       	mov	r22, r17
    11c6:	8b 81       	ldd	r24, Y+3	; 0x03
    11c8:	9c 81       	ldd	r25, Y+4	; 0x04
    11ca:	86 df       	rcall	.-244    	; 0x10d8 <_ZN8Expander14write_registerEhh>
    11cc:	12 c0       	rjmp	.+36     	; 0x11f2 <_ZN11ExpanderPin8set_modeE4Mode+0x60>
    11ce:	61 2f       	mov	r22, r17
    11d0:	8b 81       	ldd	r24, Y+3	; 0x03
    11d2:	9c 81       	ldd	r25, Y+4	; 0x04
    11d4:	a4 df       	rcall	.-184    	; 0x111e <_ZN8Expander13read_registerEh>
    11d6:	41 e0       	ldi	r20, 0x01	; 1
    11d8:	50 e0       	ldi	r21, 0x00	; 0
    11da:	09 80       	ldd	r0, Y+1	; 0x01
    11dc:	02 c0       	rjmp	.+4      	; 0x11e2 <_ZN11ExpanderPin8set_modeE4Mode+0x50>
    11de:	44 0f       	add	r20, r20
    11e0:	55 1f       	adc	r21, r21
    11e2:	0a 94       	dec	r0
    11e4:	e2 f7       	brpl	.-8      	; 0x11de <_ZN11ExpanderPin8set_modeE4Mode+0x4c>
    11e6:	40 95       	com	r20
    11e8:	48 23       	and	r20, r24
    11ea:	61 2f       	mov	r22, r17
    11ec:	8b 81       	ldd	r24, Y+3	; 0x03
    11ee:	9c 81       	ldd	r25, Y+4	; 0x04
    11f0:	73 df       	rcall	.-282    	; 0x10d8 <_ZN8Expander14write_registerEhh>
    11f2:	df 91       	pop	r29
    11f4:	cf 91       	pop	r28
    11f6:	1f 91       	pop	r17
    11f8:	08 95       	ret

000011fa <_ZN11ExpanderPin10initializeEP8Expander4Port3Pin4Mode>:
    11fa:	0f 93       	push	r16
    11fc:	fc 01       	movw	r30, r24
    11fe:	74 83       	std	Z+4, r23	; 0x04
    1200:	63 83       	std	Z+3, r22	; 0x03
    1202:	40 83       	st	Z, r20
    1204:	21 83       	std	Z+1, r18	; 0x01
    1206:	60 2f       	mov	r22, r16
    1208:	c4 df       	rcall	.-120    	; 0x1192 <_ZN11ExpanderPin8set_modeE4Mode>
    120a:	0f 91       	pop	r16
    120c:	08 95       	ret

0000120e <_ZN12InputHandler20initialize_expandersEv>:
	memory->write(SLIDER_LEFT, 0);
	memory->write(SLIDER_RIGHT, 0);
}

void InputHandler::initialize_expanders ()
{
    120e:	cf 93       	push	r28
    1210:	df 93       	push	r29
    1212:	ec 01       	movw	r28, r24
	expander_left.set_address(0x20);
    1214:	60 e2       	ldi	r22, 0x20	; 32
    1216:	02 96       	adiw	r24, 0x02	; 2
    1218:	5a df       	rcall	.-332    	; 0x10ce <_ZN8Expander11set_addressEh>
	expander_right.set_address(0x27);
    121a:	67 e2       	ldi	r22, 0x27	; 39
    121c:	ce 01       	movw	r24, r28
    121e:	42 96       	adiw	r24, 0x12	; 18
    1220:	56 df       	rcall	.-340    	; 0x10ce <_ZN8Expander11set_addressEh>
}
    1222:	df 91       	pop	r29
    1224:	cf 91       	pop	r28
    1226:	08 95       	ret

00001228 <_ZN12InputHandler23initialize_push_buttonsEv>:

void InputHandler::initialize_push_buttons ()
{
    1228:	ef 92       	push	r14
    122a:	ff 92       	push	r15
    122c:	0f 93       	push	r16
    122e:	cf 93       	push	r28
    1230:	df 93       	push	r29
    1232:	ec 01       	movw	r28, r24
	push_buttons[0].initialize(&expander_left, A, ZERO, INPUT);
    1234:	7c 01       	movw	r14, r24
    1236:	82 e0       	ldi	r24, 0x02	; 2
    1238:	e8 0e       	add	r14, r24
    123a:	f1 1c       	adc	r15, r1
    123c:	00 e0       	ldi	r16, 0x00	; 0
    123e:	20 e0       	ldi	r18, 0x00	; 0
    1240:	40 e0       	ldi	r20, 0x00	; 0
    1242:	b7 01       	movw	r22, r14
    1244:	ce 01       	movw	r24, r28
    1246:	82 96       	adiw	r24, 0x22	; 34
    1248:	d8 df       	rcall	.-80     	; 0x11fa <_ZN11ExpanderPin10initializeEP8Expander4Port3Pin4Mode>
	push_buttons[1].initialize(&expander_left, A, TWO,  INPUT);
    124a:	22 e0       	ldi	r18, 0x02	; 2
    124c:	40 e0       	ldi	r20, 0x00	; 0
    124e:	b7 01       	movw	r22, r14
    1250:	ce 01       	movw	r24, r28
    1252:	87 96       	adiw	r24, 0x27	; 39
    1254:	d2 df       	rcall	.-92     	; 0x11fa <_ZN11ExpanderPin10initializeEP8Expander4Port3Pin4Mode>
	push_buttons[2].initialize(&expander_left, A, FOUR, INPUT);
    1256:	24 e0       	ldi	r18, 0x04	; 4
    1258:	40 e0       	ldi	r20, 0x00	; 0
    125a:	b7 01       	movw	r22, r14
    125c:	ce 01       	movw	r24, r28
    125e:	8c 96       	adiw	r24, 0x2c	; 44
    1260:	cc df       	rcall	.-104    	; 0x11fa <_ZN11ExpanderPin10initializeEP8Expander4Port3Pin4Mode>
	push_buttons[3].initialize(&expander_left, A, SIX,  INPUT);
    1262:	26 e0       	ldi	r18, 0x06	; 6
    1264:	40 e0       	ldi	r20, 0x00	; 0
    1266:	b7 01       	movw	r22, r14
    1268:	ce 01       	movw	r24, r28
    126a:	c1 96       	adiw	r24, 0x31	; 49
    126c:	c6 df       	rcall	.-116    	; 0x11fa <_ZN11ExpanderPin10initializeEP8Expander4Port3Pin4Mode>
	push_buttons[4].initialize(&expander_left, B, ZERO, INPUT);
    126e:	20 e0       	ldi	r18, 0x00	; 0
    1270:	41 e0       	ldi	r20, 0x01	; 1
    1272:	b7 01       	movw	r22, r14
    1274:	ce 01       	movw	r24, r28
    1276:	c6 96       	adiw	r24, 0x36	; 54
    1278:	c0 df       	rcall	.-128    	; 0x11fa <_ZN11ExpanderPin10initializeEP8Expander4Port3Pin4Mode>
	push_buttons[5].initialize(&expander_left, B, TWO,  INPUT);
    127a:	22 e0       	ldi	r18, 0x02	; 2
    127c:	41 e0       	ldi	r20, 0x01	; 1
    127e:	b7 01       	movw	r22, r14
    1280:	ce 01       	movw	r24, r28
    1282:	cb 96       	adiw	r24, 0x3b	; 59
    1284:	ba df       	rcall	.-140    	; 0x11fa <_ZN11ExpanderPin10initializeEP8Expander4Port3Pin4Mode>
	push_buttons[6].initialize(&expander_left, B, FOUR, INPUT);
    1286:	24 e0       	ldi	r18, 0x04	; 4
    1288:	41 e0       	ldi	r20, 0x01	; 1
    128a:	b7 01       	movw	r22, r14
    128c:	ce 01       	movw	r24, r28
    128e:	80 5c       	subi	r24, 0xC0	; 192
    1290:	9f 4f       	sbci	r25, 0xFF	; 255
    1292:	b3 df       	rcall	.-154    	; 0x11fa <_ZN11ExpanderPin10initializeEP8Expander4Port3Pin4Mode>
	push_buttons[7].initialize(&expander_left, B, SIX,  INPUT);
    1294:	26 e0       	ldi	r18, 0x06	; 6
    1296:	41 e0       	ldi	r20, 0x01	; 1
    1298:	b7 01       	movw	r22, r14
    129a:	ce 01       	movw	r24, r28
    129c:	8b 5b       	subi	r24, 0xBB	; 187
    129e:	9f 4f       	sbci	r25, 0xFF	; 255
    12a0:	ac df       	rcall	.-168    	; 0x11fa <_ZN11ExpanderPin10initializeEP8Expander4Port3Pin4Mode>
    12a2:	7e 01       	movw	r14, r28
	push_buttons[8].initialize(&expander_right, A, ZERO, INPUT);
    12a4:	82 e1       	ldi	r24, 0x12	; 18
    12a6:	e8 0e       	add	r14, r24
    12a8:	f1 1c       	adc	r15, r1
    12aa:	20 e0       	ldi	r18, 0x00	; 0
    12ac:	40 e0       	ldi	r20, 0x00	; 0
    12ae:	b7 01       	movw	r22, r14
    12b0:	ce 01       	movw	r24, r28
    12b2:	86 5b       	subi	r24, 0xB6	; 182
    12b4:	9f 4f       	sbci	r25, 0xFF	; 255
    12b6:	a1 df       	rcall	.-190    	; 0x11fa <_ZN11ExpanderPin10initializeEP8Expander4Port3Pin4Mode>
	push_buttons[9].initialize(&expander_right, A, TWO,  INPUT);
    12b8:	22 e0       	ldi	r18, 0x02	; 2
    12ba:	40 e0       	ldi	r20, 0x00	; 0
    12bc:	b7 01       	movw	r22, r14
    12be:	ce 01       	movw	r24, r28
    12c0:	81 5b       	subi	r24, 0xB1	; 177
    12c2:	9f 4f       	sbci	r25, 0xFF	; 255
    12c4:	9a df       	rcall	.-204    	; 0x11fa <_ZN11ExpanderPin10initializeEP8Expander4Port3Pin4Mode>
	push_buttons[10].initialize(&expander_right, A, FOUR, INPUT);
    12c6:	24 e0       	ldi	r18, 0x04	; 4
    12c8:	40 e0       	ldi	r20, 0x00	; 0
    12ca:	b7 01       	movw	r22, r14
    12cc:	ce 01       	movw	r24, r28
    12ce:	8c 5a       	subi	r24, 0xAC	; 172
    12d0:	9f 4f       	sbci	r25, 0xFF	; 255
    12d2:	93 df       	rcall	.-218    	; 0x11fa <_ZN11ExpanderPin10initializeEP8Expander4Port3Pin4Mode>
	push_buttons[11].initialize(&expander_right, A, SIX,  INPUT);
    12d4:	26 e0       	ldi	r18, 0x06	; 6
    12d6:	40 e0       	ldi	r20, 0x00	; 0
    12d8:	b7 01       	movw	r22, r14
    12da:	ce 01       	movw	r24, r28
    12dc:	87 5a       	subi	r24, 0xA7	; 167
    12de:	9f 4f       	sbci	r25, 0xFF	; 255
    12e0:	8c df       	rcall	.-232    	; 0x11fa <_ZN11ExpanderPin10initializeEP8Expander4Port3Pin4Mode>
	push_buttons[12].initialize(&expander_right, B, ZERO, INPUT);
    12e2:	20 e0       	ldi	r18, 0x00	; 0
    12e4:	41 e0       	ldi	r20, 0x01	; 1
    12e6:	b7 01       	movw	r22, r14
    12e8:	ce 01       	movw	r24, r28
    12ea:	82 5a       	subi	r24, 0xA2	; 162
    12ec:	9f 4f       	sbci	r25, 0xFF	; 255
    12ee:	85 df       	rcall	.-246    	; 0x11fa <_ZN11ExpanderPin10initializeEP8Expander4Port3Pin4Mode>
	push_buttons[13].initialize(&expander_right, B, TWO,  INPUT);
    12f0:	22 e0       	ldi	r18, 0x02	; 2
    12f2:	41 e0       	ldi	r20, 0x01	; 1
    12f4:	b7 01       	movw	r22, r14
    12f6:	ce 01       	movw	r24, r28
    12f8:	8d 59       	subi	r24, 0x9D	; 157
    12fa:	9f 4f       	sbci	r25, 0xFF	; 255
    12fc:	7e df       	rcall	.-260    	; 0x11fa <_ZN11ExpanderPin10initializeEP8Expander4Port3Pin4Mode>
	push_buttons[14].initialize(&expander_right, B, FOUR, INPUT);
    12fe:	24 e0       	ldi	r18, 0x04	; 4
    1300:	41 e0       	ldi	r20, 0x01	; 1
    1302:	b7 01       	movw	r22, r14
    1304:	ce 01       	movw	r24, r28
    1306:	88 59       	subi	r24, 0x98	; 152
    1308:	9f 4f       	sbci	r25, 0xFF	; 255
    130a:	77 df       	rcall	.-274    	; 0x11fa <_ZN11ExpanderPin10initializeEP8Expander4Port3Pin4Mode>
    130c:	26 e0       	ldi	r18, 0x06	; 6
	push_buttons[15].initialize(&expander_right, B, SIX,  INPUT);
    130e:	41 e0       	ldi	r20, 0x01	; 1
    1310:	b7 01       	movw	r22, r14
    1312:	ce 01       	movw	r24, r28
    1314:	83 59       	subi	r24, 0x93	; 147
    1316:	9f 4f       	sbci	r25, 0xFF	; 255
    1318:	70 df       	rcall	.-288    	; 0x11fa <_ZN11ExpanderPin10initializeEP8Expander4Port3Pin4Mode>
    131a:	df 91       	pop	r29
    131c:	cf 91       	pop	r28
}
    131e:	0f 91       	pop	r16
    1320:	ff 90       	pop	r15
    1322:	ef 90       	pop	r14
    1324:	08 95       	ret

00001326 <_ZN12InputHandler25initialize_arcade_buttonsEv>:
    1326:	cf 93       	push	r28
    1328:	df 93       	push	r29

void InputHandler::initialize_arcade_buttons ()
{
    132a:	ec 01       	movw	r28, r24
	arcade_buttons[0].initialize(K, TWO, INPUT_PULLUP);   // emergency stop
    132c:	22 e0       	ldi	r18, 0x02	; 2
    132e:	42 e0       	ldi	r20, 0x02	; 2
    1330:	69 e0       	ldi	r22, 0x09	; 9
    1332:	8e 58       	subi	r24, 0x8E	; 142
    1334:	9f 4f       	sbci	r25, 0xFF	; 255
    1336:	40 de       	rcall	.-896    	; 0xfb8 <_ZN10DigitalPin10initializeE4Port3Pin4Mode>
	arcade_buttons[1].initialize(B, SIX, INPUT_PULLUP);   // n/a
    1338:	22 e0       	ldi	r18, 0x02	; 2
    133a:	46 e0       	ldi	r20, 0x06	; 6
    133c:	61 e0       	ldi	r22, 0x01	; 1
    133e:	ce 01       	movw	r24, r28
    1340:	8b 58       	subi	r24, 0x8B	; 139
    1342:	9f 4f       	sbci	r25, 0xFF	; 255
    1344:	39 de       	rcall	.-910    	; 0xfb8 <_ZN10DigitalPin10initializeE4Port3Pin4Mode>
	arcade_buttons[2].initialize(B, FOUR, INPUT_PULLUP);  // n/a
    1346:	22 e0       	ldi	r18, 0x02	; 2
    1348:	44 e0       	ldi	r20, 0x04	; 4
    134a:	61 e0       	ldi	r22, 0x01	; 1
    134c:	ce 01       	movw	r24, r28
    134e:	88 58       	subi	r24, 0x88	; 136
    1350:	9f 4f       	sbci	r25, 0xFF	; 255
    1352:	32 de       	rcall	.-924    	; 0xfb8 <_ZN10DigitalPin10initializeE4Port3Pin4Mode>
	arcade_buttons[3].initialize(B, ZERO, INPUT_PULLUP);  // arm up
    1354:	22 e0       	ldi	r18, 0x02	; 2
    1356:	40 e0       	ldi	r20, 0x00	; 0
    1358:	61 e0       	ldi	r22, 0x01	; 1
    135a:	ce 01       	movw	r24, r28
    135c:	85 58       	subi	r24, 0x85	; 133
    135e:	9f 4f       	sbci	r25, 0xFF	; 255
    1360:	2b de       	rcall	.-938    	; 0xfb8 <_ZN10DigitalPin10initializeE4Port3Pin4Mode>
	arcade_buttons[4].initialize(E, FOUR, INPUT_PULLUP);  // lower bucket
    1362:	22 e0       	ldi	r18, 0x02	; 2
    1364:	44 e0       	ldi	r20, 0x04	; 4
    1366:	64 e0       	ldi	r22, 0x04	; 4
    1368:	ce 01       	movw	r24, r28
    136a:	82 58       	subi	r24, 0x82	; 130
    136c:	9f 4f       	sbci	r25, 0xFF	; 255
    136e:	24 de       	rcall	.-952    	; 0xfb8 <_ZN10DigitalPin10initializeE4Port3Pin4Mode>
	arcade_buttons[5].initialize(B, FIVE, INPUT_PULLUP);  // raise bucket
    1370:	22 e0       	ldi	r18, 0x02	; 2
    1372:	45 e0       	ldi	r20, 0x05	; 5
    1374:	61 e0       	ldi	r22, 0x01	; 1
    1376:	ce 01       	movw	r24, r28
    1378:	8f 57       	subi	r24, 0x7F	; 127
    137a:	9f 4f       	sbci	r25, 0xFF	; 255
    137c:	1d de       	rcall	.-966    	; 0xfb8 <_ZN10DigitalPin10initializeE4Port3Pin4Mode>
	arcade_buttons[6].initialize(E, SIX, INPUT_PULLUP);   // arm down
    137e:	22 e0       	ldi	r18, 0x02	; 2
    1380:	46 e0       	ldi	r20, 0x06	; 6
    1382:	64 e0       	ldi	r22, 0x04	; 4
    1384:	ce 01       	movw	r24, r28
    1386:	8c 57       	subi	r24, 0x7C	; 124
    1388:	9f 4f       	sbci	r25, 0xFF	; 255
    138a:	16 de       	rcall	.-980    	; 0xfb8 <_ZN10DigitalPin10initializeE4Port3Pin4Mode>
	arcade_buttons[7].initialize(E, SEVEN, INPUT_PULLUP); // plow up
    138c:	22 e0       	ldi	r18, 0x02	; 2
    138e:	47 e0       	ldi	r20, 0x07	; 7
    1390:	64 e0       	ldi	r22, 0x04	; 4
    1392:	ce 01       	movw	r24, r28
    1394:	89 57       	subi	r24, 0x79	; 121
    1396:	9f 4f       	sbci	r25, 0xFF	; 255
    1398:	0f de       	rcall	.-994    	; 0xfb8 <_ZN10DigitalPin10initializeE4Port3Pin4Mode>
	arcade_buttons[8].initialize(E, FIVE, INPUT_PULLUP);  // plow down
    139a:	22 e0       	ldi	r18, 0x02	; 2
    139c:	45 e0       	ldi	r20, 0x05	; 5
    139e:	64 e0       	ldi	r22, 0x04	; 4
    13a0:	ce 01       	movw	r24, r28
    13a2:	86 57       	subi	r24, 0x76	; 118
    13a4:	9f 4f       	sbci	r25, 0xFF	; 255
    13a6:	08 de       	rcall	.-1008   	; 0xfb8 <_ZN10DigitalPin10initializeE4Port3Pin4Mode>
    13a8:	df 91       	pop	r29
}
    13aa:	cf 91       	pop	r28
    13ac:	08 95       	ret

000013ae <_ZN12InputHandler20initialize_joysticksEv>:
    13ae:	cf 93       	push	r28

void InputHandler::initialize_joysticks ()
{
    13b0:	df 93       	push	r29
    13b2:	ec 01       	movw	r28, r24
	joystick_left_y.initialize(CHANNEL_ZERO);
    13b4:	60 e0       	ldi	r22, 0x00	; 0
    13b6:	82 57       	subi	r24, 0x72	; 114
    13b8:	9f 4f       	sbci	r25, 0xFF	; 255
    13ba:	0e 94 0e 01 	call	0x21c	; 0x21c <_ZN11AnalogInput10initializeE14ANALOG_CHANNEL>
	joystick_left_x.initialize(CHANNEL_ONE);
    13be:	61 e0       	ldi	r22, 0x01	; 1
    13c0:	ce 01       	movw	r24, r28
    13c2:	83 57       	subi	r24, 0x73	; 115
    13c4:	9f 4f       	sbci	r25, 0xFF	; 255
    13c6:	0e 94 0e 01 	call	0x21c	; 0x21c <_ZN11AnalogInput10initializeE14ANALOG_CHANNEL>
	joystick_right_x.initialize(CHANNEL_SIX);
    13ca:	66 e0       	ldi	r22, 0x06	; 6
    13cc:	ce 01       	movw	r24, r28
    13ce:	81 57       	subi	r24, 0x71	; 113
    13d0:	9f 4f       	sbci	r25, 0xFF	; 255
    13d2:	0e 94 0e 01 	call	0x21c	; 0x21c <_ZN11AnalogInput10initializeE14ANALOG_CHANNEL>
	joystick_right_y.initialize(CHANNEL_SEVEN);
    13d6:	67 e0       	ldi	r22, 0x07	; 7
    13d8:	ce 01       	movw	r24, r28
    13da:	80 57       	subi	r24, 0x70	; 112
    13dc:	9f 4f       	sbci	r25, 0xFF	; 255
    13de:	0e 94 0e 01 	call	0x21c	; 0x21c <_ZN11AnalogInput10initializeE14ANALOG_CHANNEL>
}
    13e2:	df 91       	pop	r29
    13e4:	cf 91       	pop	r28
    13e6:	08 95       	ret

000013e8 <_ZN12InputHandler25initialize_potentiometersEv>:

void InputHandler::initialize_potentiometers ()
{
    13e8:	cf 93       	push	r28
    13ea:	df 93       	push	r29
    13ec:	ec 01       	movw	r28, r24
	potentiometer_left.initialize(CHANNEL_TWO);
    13ee:	62 e0       	ldi	r22, 0x02	; 2
    13f0:	8f 56       	subi	r24, 0x6F	; 111
    13f2:	9f 4f       	sbci	r25, 0xFF	; 255
    13f4:	0e 94 0e 01 	call	0x21c	; 0x21c <_ZN11AnalogInput10initializeE14ANALOG_CHANNEL>
	potentiometer_right.initialize(CHANNEL_FIVE);
    13f8:	65 e0       	ldi	r22, 0x05	; 5
    13fa:	ce 01       	movw	r24, r28
    13fc:	8e 56       	subi	r24, 0x6E	; 110
    13fe:	9f 4f       	sbci	r25, 0xFF	; 255
    1400:	0e 94 0e 01 	call	0x21c	; 0x21c <_ZN11AnalogInput10initializeE14ANALOG_CHANNEL>
}
    1404:	df 91       	pop	r29
    1406:	cf 91       	pop	r28
    1408:	08 95       	ret

0000140a <_ZN12InputHandler10initializeEP6Memory>:

Clocks RESET_TIMER(250);

Clocks PollInputs(100);
void InputHandler::initialize (Memory * memory)
{
    140a:	0f 93       	push	r16
    140c:	1f 93       	push	r17
    140e:	cf 93       	push	r28
    1410:	df 93       	push	r29
    1412:	ec 01       	movw	r28, r24
    1414:	8b 01       	movw	r16, r22
	PollInputs.setInterval(100);
    1416:	44 e6       	ldi	r20, 0x64	; 100
    1418:	50 e0       	ldi	r21, 0x00	; 0
    141a:	60 e0       	ldi	r22, 0x00	; 0
    141c:	70 e0       	ldi	r23, 0x00	; 0
    141e:	8f e3       	ldi	r24, 0x3F	; 63
    1420:	92 e0       	ldi	r25, 0x02	; 2
    1422:	f5 d2       	rcall	.+1514   	; 0x1a0e <_ZN6Clocks11setIntervalEl>
	this->memory = memory;
    1424:	19 83       	std	Y+1, r17	; 0x01
    1426:	08 83       	st	Y, r16
	initialize_expanders();
    1428:	ce 01       	movw	r24, r28
    142a:	f1 de       	rcall	.-542    	; 0x120e <_ZN12InputHandler20initialize_expandersEv>
	initialize_push_buttons();
    142c:	ce 01       	movw	r24, r28
    142e:	fc de       	rcall	.-520    	; 0x1228 <_ZN12InputHandler23initialize_push_buttonsEv>
	initialize_arcade_buttons();
    1430:	ce 01       	movw	r24, r28
    1432:	79 df       	rcall	.-270    	; 0x1326 <_ZN12InputHandler25initialize_arcade_buttonsEv>
	initialize_joysticks();
    1434:	ce 01       	movw	r24, r28
    1436:	bb df       	rcall	.-138    	; 0x13ae <_ZN12InputHandler20initialize_joysticksEv>
    1438:	ce 01       	movw	r24, r28
	initialize_potentiometers();
    143a:	d6 df       	rcall	.-84     	; 0x13e8 <_ZN12InputHandler25initialize_potentiometersEv>
    143c:	df 91       	pop	r29
    143e:	cf 91       	pop	r28
}
    1440:	1f 91       	pop	r17
    1442:	0f 91       	pop	r16
    1444:	08 95       	ret

00001446 <_ZN12InputHandler19poll_arcade_buttonsEv>:
    1446:	0f 93       	push	r16
    1448:	1f 93       	push	r17
	potentiometer_left.initialize(CHANNEL_TWO);
	potentiometer_right.initialize(CHANNEL_FIVE);
}

void InputHandler::poll_arcade_buttons ()
{
    144a:	cf 93       	push	r28
    144c:	8c 01       	movw	r16, r24
    144e:	0e 58       	subi	r16, 0x8E	; 142
    1450:	1f 4f       	sbci	r17, 0xFF	; 255
    1452:	c0 e3       	ldi	r28, 0x30	; 48
	for (uint8_t i = 0; i < NUM_ARCADE_BUTTONS; ++i)
		memory->write(ARCADE_BUTTON_0_FLAG + i, arcade_buttons[i].is_low() ? 1 : 0);
    1454:	c8 01       	movw	r24, r16
    1456:	37 de       	rcall	.-914    	; 0x10c6 <_ZN10DigitalPin6is_lowEv>
    1458:	68 2f       	mov	r22, r24
    145a:	70 e0       	ldi	r23, 0x00	; 0
    145c:	8c 2f       	mov	r24, r28
    145e:	43 d2       	rcall	.+1158   	; 0x18e6 <_ZN6Memory5writeEhj>
    1460:	0d 5f       	subi	r16, 0xFD	; 253
    1462:	1f 4f       	sbci	r17, 0xFF	; 255
    1464:	cf 5f       	subi	r28, 0xFF	; 255
	potentiometer_right.initialize(CHANNEL_FIVE);
}

void InputHandler::poll_arcade_buttons ()
{
	for (uint8_t i = 0; i < NUM_ARCADE_BUTTONS; ++i)
    1466:	c9 33       	cpi	r28, 0x39	; 57
    1468:	a9 f7       	brne	.-22     	; 0x1454 <_ZN12InputHandler19poll_arcade_buttonsEv+0xe>
		memory->write(ARCADE_BUTTON_0_FLAG + i, arcade_buttons[i].is_low() ? 1 : 0);
}
    146a:	cf 91       	pop	r28
    146c:	1f 91       	pop	r17
    146e:	0f 91       	pop	r16
    1470:	08 95       	ret

00001472 <_ZN12InputHandler17poll_push_buttonsEv>:

void InputHandler::poll_push_buttons ()
{
    1472:	0f 93       	push	r16
    1474:	1f 93       	push	r17
    1476:	cf 93       	push	r28
    1478:	8c 01       	movw	r16, r24
    147a:	0e 5d       	subi	r16, 0xDE	; 222
    147c:	1f 4f       	sbci	r17, 0xFF	; 255
    147e:	c0 e4       	ldi	r28, 0x40	; 64
	for (uint8_t i = 0; i < NUM_PUSH_BUTTONS; ++i)
	{

		if (!push_buttons[i].read()) {
    1480:	c8 01       	movw	r24, r16
    1482:	70 de       	rcall	.-800    	; 0x1164 <_ZN11ExpanderPin4readEv>
    1484:	81 11       	cpse	r24, r1
    1486:	04 c0       	rjmp	.+8      	; 0x1490 <_ZN12InputHandler17poll_push_buttonsEv+0x1e>
			memory->write(PUSH_BUTTON_0_FLAG + i, 1);
    1488:	61 e0       	ldi	r22, 0x01	; 1
    148a:	70 e0       	ldi	r23, 0x00	; 0
    148c:	8c 2f       	mov	r24, r28
    148e:	2b d2       	rcall	.+1110   	; 0x18e6 <_ZN6Memory5writeEhj>
    1490:	0b 5f       	subi	r16, 0xFB	; 251
    1492:	1f 4f       	sbci	r17, 0xFF	; 255
    1494:	cf 5f       	subi	r28, 0xFF	; 255
		memory->write(ARCADE_BUTTON_0_FLAG + i, arcade_buttons[i].is_low() ? 1 : 0);
}

void InputHandler::poll_push_buttons ()
{
	for (uint8_t i = 0; i < NUM_PUSH_BUTTONS; ++i)
    1496:	c0 35       	cpi	r28, 0x50	; 80
    1498:	99 f7       	brne	.-26     	; 0x1480 <_ZN12InputHandler17poll_push_buttonsEv+0xe>
//    else {
//      if(RESET_TIMER.isDone_NoReset())
//        memory->write(PUSH_BUTTON_0_FLAG + i, 0);
//    }
	}
}
    149a:	cf 91       	pop	r28
    149c:	1f 91       	pop	r17
    149e:	0f 91       	pop	r16
    14a0:	08 95       	ret

000014a2 <_ZN12InputHandler18poll_analog_inputsEv>:

void InputHandler::poll_analog_inputs ()
{
    14a2:	cf 93       	push	r28
    14a4:	df 93       	push	r29
    14a6:	ec 01       	movw	r28, r24
	memory->write(JOYSTICK_LEFT_X,  joystick_left_x.read());
    14a8:	83 57       	subi	r24, 0x73	; 115
    14aa:	9f 4f       	sbci	r25, 0xFF	; 255
    14ac:	0e 94 2b 01 	call	0x256	; 0x256 <_ZN11AnalogInput4readEv>
    14b0:	bc 01       	movw	r22, r24
    14b2:	80 e2       	ldi	r24, 0x20	; 32
    14b4:	18 d2       	rcall	.+1072   	; 0x18e6 <_ZN6Memory5writeEhj>
	memory->write(JOYSTICK_LEFT_Y,  joystick_left_y.read());
    14b6:	ce 01       	movw	r24, r28
    14b8:	82 57       	subi	r24, 0x72	; 114
    14ba:	9f 4f       	sbci	r25, 0xFF	; 255
    14bc:	0e 94 2b 01 	call	0x256	; 0x256 <_ZN11AnalogInput4readEv>
    14c0:	bc 01       	movw	r22, r24
    14c2:	81 e2       	ldi	r24, 0x21	; 33
    14c4:	10 d2       	rcall	.+1056   	; 0x18e6 <_ZN6Memory5writeEhj>
	memory->write(JOYSTICK_RIGHT_X, joystick_right_x.read());
    14c6:	ce 01       	movw	r24, r28
    14c8:	81 57       	subi	r24, 0x71	; 113
    14ca:	9f 4f       	sbci	r25, 0xFF	; 255
    14cc:	0e 94 2b 01 	call	0x256	; 0x256 <_ZN11AnalogInput4readEv>
    14d0:	bc 01       	movw	r22, r24
    14d2:	82 e2       	ldi	r24, 0x22	; 34
    14d4:	08 d2       	rcall	.+1040   	; 0x18e6 <_ZN6Memory5writeEhj>
	memory->write(JOYSTICK_RIGHT_Y, joystick_right_y.read());
    14d6:	ce 01       	movw	r24, r28
    14d8:	80 57       	subi	r24, 0x70	; 112
    14da:	9f 4f       	sbci	r25, 0xFF	; 255
    14dc:	0e 94 2b 01 	call	0x256	; 0x256 <_ZN11AnalogInput4readEv>
    14e0:	bc 01       	movw	r22, r24
    14e2:	83 e2       	ldi	r24, 0x23	; 35
    14e4:	00 d2       	rcall	.+1024   	; 0x18e6 <_ZN6Memory5writeEhj>
	memory->write(SLIDER_LEFT,      potentiometer_left.read());
    14e6:	ce 01       	movw	r24, r28
    14e8:	8f 56       	subi	r24, 0x6F	; 111
    14ea:	9f 4f       	sbci	r25, 0xFF	; 255
    14ec:	0e 94 2b 01 	call	0x256	; 0x256 <_ZN11AnalogInput4readEv>
    14f0:	bc 01       	movw	r22, r24
    14f2:	84 e2       	ldi	r24, 0x24	; 36
    14f4:	f8 d1       	rcall	.+1008   	; 0x18e6 <_ZN6Memory5writeEhj>
	memory->write(SLIDER_RIGHT,     potentiometer_right.read());
    14f6:	ce 01       	movw	r24, r28
    14f8:	8e 56       	subi	r24, 0x6E	; 110
    14fa:	9f 4f       	sbci	r25, 0xFF	; 255
    14fc:	0e 94 2b 01 	call	0x256	; 0x256 <_ZN11AnalogInput4readEv>
    1500:	bc 01       	movw	r22, r24
    1502:	85 e2       	ldi	r24, 0x25	; 37
    1504:	f0 d1       	rcall	.+992    	; 0x18e6 <_ZN6Memory5writeEhj>
}
    1506:	df 91       	pop	r29
    1508:	cf 91       	pop	r28
    150a:	08 95       	ret

0000150c <_ZN12InputHandler4pollEv>:
	initialize_joysticks();
	initialize_potentiometers();
}

void InputHandler::poll ()
{
    150c:	cf 93       	push	r28
    150e:	df 93       	push	r29
    1510:	ec 01       	movw	r28, r24
	if(PollInputs.isDone()) {
    1512:	8f e3       	ldi	r24, 0x3F	; 63
    1514:	92 e0       	ldi	r25, 0x02	; 2
    1516:	8e d2       	rcall	.+1308   	; 0x1a34 <_ZN6Clocks6isDoneEv>
    1518:	88 23       	and	r24, r24
    151a:	31 f0       	breq	.+12     	; 0x1528 <_ZN12InputHandler4pollEv+0x1c>
		poll_arcade_buttons();
    151c:	ce 01       	movw	r24, r28
    151e:	93 df       	rcall	.-218    	; 0x1446 <_ZN12InputHandler19poll_arcade_buttonsEv>
		//TODO: USE interrupt rather then polling
		poll_push_buttons();
    1520:	ce 01       	movw	r24, r28
    1522:	a7 df       	rcall	.-178    	; 0x1472 <_ZN12InputHandler17poll_push_buttonsEv>
		poll_analog_inputs();
    1524:	ce 01       	movw	r24, r28
    1526:	bd df       	rcall	.-134    	; 0x14a2 <_ZN12InputHandler18poll_analog_inputsEv>
    1528:	df 91       	pop	r29
	}
}
    152a:	cf 91       	pop	r28
    152c:	08 95       	ret

0000152e <_GLOBAL__sub_I_RESET_TIMER>:
    152e:	4a ef       	ldi	r20, 0xFA	; 250
#include "../memory/memory_variables.hpp"
#include "../timer/Clock.hpp"
static const int NUM_ARCADE_BUTTONS = 9;
static const int NUM_PUSH_BUTTONS = 16;

Clocks RESET_TIMER(250);
    1530:	50 e0       	ldi	r21, 0x00	; 0
    1532:	60 e0       	ldi	r22, 0x00	; 0
    1534:	70 e0       	ldi	r23, 0x00	; 0
    1536:	8b e4       	ldi	r24, 0x4B	; 75
    1538:	92 e0       	ldi	r25, 0x02	; 2
    153a:	2c d2       	rcall	.+1112   	; 0x1994 <_ZN6ClocksC1El>

Clocks PollInputs(100);
    153c:	44 e6       	ldi	r20, 0x64	; 100
    153e:	50 e0       	ldi	r21, 0x00	; 0
    1540:	60 e0       	ldi	r22, 0x00	; 0
    1542:	70 e0       	ldi	r23, 0x00	; 0
    1544:	8f e3       	ldi	r24, 0x3F	; 63
    1546:	92 e0       	ldi	r25, 0x02	; 2
    1548:	25 c2       	rjmp	.+1098   	; 0x1994 <_ZN6ClocksC1El>
    154a:	08 95       	ret

0000154c <_Z10copy_rangePhS_h>:
    154c:	44 23       	and	r20, r20
    154e:	51 f0       	breq	.+20     	; 0x1564 <_Z10copy_rangePhS_h+0x18>
    1550:	a8 2f       	mov	r26, r24
    1552:	b9 2f       	mov	r27, r25
    1554:	fb 01       	movw	r30, r22
    1556:	64 0f       	add	r22, r20
    1558:	71 1d       	adc	r23, r1
    155a:	8d 91       	ld	r24, X+
    155c:	81 93       	st	Z+, r24
    155e:	e6 17       	cp	r30, r22
    1560:	f7 07       	cpc	r31, r23
    1562:	d9 f7       	brne	.-10     	; 0x155a <_Z10copy_rangePhS_h+0xe>
    1564:	08 95       	ret

00001566 <_ZN3I2C11set_addressEh>:
    1566:	66 0f       	add	r22, r22
    1568:	fc 01       	movw	r30, r24
    156a:	61 83       	std	Z+1, r22	; 0x01
    156c:	08 95       	ret

0000156e <_ZN3I2C12send_addressENS_9DirectionE>:
    156e:	fc 01       	movw	r30, r24
    1570:	61 11       	cpse	r22, r1
    1572:	04 c0       	rjmp	.+8      	; 0x157c <_ZN3I2C12send_addressENS_9DirectionE+0xe>
    1574:	81 81       	ldd	r24, Z+1	; 0x01
    1576:	81 60       	ori	r24, 0x01	; 1
    1578:	81 83       	std	Z+1, r24	; 0x01
    157a:	03 c0       	rjmp	.+6      	; 0x1582 <_ZN3I2C12send_addressENS_9DirectionE+0x14>
    157c:	81 81       	ldd	r24, Z+1	; 0x01
    157e:	8e 7f       	andi	r24, 0xFE	; 254
    1580:	81 83       	std	Z+1, r24	; 0x01
    1582:	81 81       	ldd	r24, Z+1	; 0x01
    1584:	80 93 bb 00 	sts	0x00BB, r24	; 0x8000bb <__TEXT_REGION_LENGTH__+0x7e00bb>
    1588:	84 e8       	ldi	r24, 0x84	; 132
    158a:	80 93 bc 00 	sts	0x00BC, r24	; 0x8000bc <__TEXT_REGION_LENGTH__+0x7e00bc>
    158e:	83 e0       	ldi	r24, 0x03	; 3
    1590:	80 83       	st	Z, r24
    1592:	08 95       	ret

00001594 <_ZN3I2C14read_data_byteEv>:
    1594:	fc 01       	movw	r30, r24
    1596:	84 85       	ldd	r24, Z+12	; 0x0c
    1598:	90 e0       	ldi	r25, 0x00	; 0
    159a:	25 85       	ldd	r18, Z+13	; 0x0d
    159c:	30 e0       	ldi	r19, 0x00	; 0
    159e:	21 50       	subi	r18, 0x01	; 1
    15a0:	31 09       	sbc	r19, r1
    15a2:	82 17       	cp	r24, r18
    15a4:	93 07       	cpc	r25, r19
    15a6:	31 f4       	brne	.+12     	; 0x15b4 <_ZN3I2C14read_data_byteEv+0x20>
    15a8:	ac eb       	ldi	r26, 0xBC	; 188
    15aa:	b0 e0       	ldi	r27, 0x00	; 0
    15ac:	9c 91       	ld	r25, X
    15ae:	80 e4       	ldi	r24, 0x40	; 64
    15b0:	89 27       	eor	r24, r25
    15b2:	8c 93       	st	X, r24
    15b4:	84 e8       	ldi	r24, 0x84	; 132
    15b6:	80 93 bc 00 	sts	0x00BC, r24	; 0x8000bc <__TEXT_REGION_LENGTH__+0x7e00bc>
    15ba:	86 e0       	ldi	r24, 0x06	; 6
    15bc:	80 83       	st	Z, r24
    15be:	08 95       	ret

000015c0 <_ZN3I2C4failEv>:
    15c0:	fc 01       	movw	r30, r24
    15c2:	84 e9       	ldi	r24, 0x94	; 148
    15c4:	80 93 bc 00 	sts	0x00BC, r24	; 0x8000bc <__TEXT_REGION_LENGTH__+0x7e00bc>
    15c8:	14 86       	std	Z+12, r1	; 0x0c
    15ca:	10 82       	st	Z, r1
    15cc:	86 85       	ldd	r24, Z+14	; 0x0e
    15ce:	8f 5f       	subi	r24, 0xFF	; 255
    15d0:	86 87       	std	Z+14, r24	; 0x0e
	#else
		//round up by default
		__ticks_dc = (uint32_t)(ceil(fabs(__tmp)));
	#endif

	__builtin_avr_delay_cycles(__ticks_dc);
    15d2:	85 e3       	ldi	r24, 0x35	; 53
    15d4:	8a 95       	dec	r24
    15d6:	f1 f7       	brne	.-4      	; 0x15d4 <_ZN3I2C4failEv+0x14>
    15d8:	00 00       	nop
    15da:	08 95       	ret

000015dc <_ZN3I2C12verify_startEv>:
    15dc:	fc 01       	movw	r30, r24
    15de:	90 91 bc 00 	lds	r25, 0x00BC	; 0x8000bc <__TEXT_REGION_LENGTH__+0x7e00bc>
    15e2:	99 23       	and	r25, r25
    15e4:	54 f4       	brge	.+20     	; 0x15fa <_ZN3I2C12verify_startEv+0x1e>
    15e6:	80 91 b9 00 	lds	r24, 0x00B9	; 0x8000b9 <__TEXT_REGION_LENGTH__+0x7e00b9>
    15ea:	88 7f       	andi	r24, 0xF8	; 248
    15ec:	88 30       	cpi	r24, 0x08	; 8
    15ee:	19 f4       	brne	.+6      	; 0x15f6 <_ZN3I2C12verify_startEv+0x1a>
    15f0:	82 e0       	ldi	r24, 0x02	; 2
    15f2:	80 83       	st	Z, r24
    15f4:	08 95       	ret
    15f6:	cf 01       	movw	r24, r30
    15f8:	e3 cf       	rjmp	.-58     	; 0x15c0 <_ZN3I2C4failEv>
    15fa:	08 95       	ret

000015fc <_ZN3I2C25verify_write_address_sentEv>:
    15fc:	fc 01       	movw	r30, r24
    15fe:	90 91 bc 00 	lds	r25, 0x00BC	; 0x8000bc <__TEXT_REGION_LENGTH__+0x7e00bc>
    1602:	99 23       	and	r25, r25
    1604:	54 f4       	brge	.+20     	; 0x161a <_ZN3I2C25verify_write_address_sentEv+0x1e>
    1606:	80 91 b9 00 	lds	r24, 0x00B9	; 0x8000b9 <__TEXT_REGION_LENGTH__+0x7e00b9>
    160a:	88 7f       	andi	r24, 0xF8	; 248
    160c:	88 31       	cpi	r24, 0x18	; 24
    160e:	19 f4       	brne	.+6      	; 0x1616 <_ZN3I2C25verify_write_address_sentEv+0x1a>
    1610:	84 e0       	ldi	r24, 0x04	; 4
    1612:	80 83       	st	Z, r24
    1614:	08 95       	ret
    1616:	cf 01       	movw	r24, r30
    1618:	d3 cf       	rjmp	.-90     	; 0x15c0 <_ZN3I2C4failEv>
    161a:	08 95       	ret

0000161c <_ZN3I2C24verify_read_address_sentEv>:
    161c:	fc 01       	movw	r30, r24
    161e:	90 91 bc 00 	lds	r25, 0x00BC	; 0x8000bc <__TEXT_REGION_LENGTH__+0x7e00bc>
    1622:	99 23       	and	r25, r25
    1624:	54 f4       	brge	.+20     	; 0x163a <_ZN3I2C24verify_read_address_sentEv+0x1e>
    1626:	80 91 b9 00 	lds	r24, 0x00B9	; 0x8000b9 <__TEXT_REGION_LENGTH__+0x7e00b9>
    162a:	88 7f       	andi	r24, 0xF8	; 248
    162c:	80 34       	cpi	r24, 0x40	; 64
    162e:	19 f4       	brne	.+6      	; 0x1636 <_ZN3I2C24verify_read_address_sentEv+0x1a>
    1630:	85 e0       	ldi	r24, 0x05	; 5
    1632:	80 83       	st	Z, r24
    1634:	08 95       	ret
    1636:	cf 01       	movw	r24, r30
    1638:	c3 cf       	rjmp	.-122    	; 0x15c0 <_ZN3I2C4failEv>
    163a:	08 95       	ret

0000163c <_ZN3I2C16verify_data_sentEv>:
    163c:	20 91 bc 00 	lds	r18, 0x00BC	; 0x8000bc <__TEXT_REGION_LENGTH__+0x7e00bc>
    1640:	22 23       	and	r18, r18
    1642:	a4 f4       	brge	.+40     	; 0x166c <_ZN3I2C16verify_data_sentEv+0x30>
    1644:	20 91 b9 00 	lds	r18, 0x00B9	; 0x8000b9 <__TEXT_REGION_LENGTH__+0x7e00b9>
    1648:	28 7f       	andi	r18, 0xF8	; 248
    164a:	28 32       	cpi	r18, 0x28	; 40
    164c:	71 f4       	brne	.+28     	; 0x166a <_ZN3I2C16verify_data_sentEv+0x2e>
    164e:	fc 01       	movw	r30, r24
    1650:	24 85       	ldd	r18, Z+12	; 0x0c
    1652:	2f 5f       	subi	r18, 0xFF	; 255
    1654:	24 87       	std	Z+12, r18	; 0x0c
    1656:	35 85       	ldd	r19, Z+13	; 0x0d
    1658:	23 17       	cp	r18, r19
    165a:	18 f4       	brcc	.+6      	; 0x1662 <_ZN3I2C16verify_data_sentEv+0x26>
    165c:	24 e0       	ldi	r18, 0x04	; 4
    165e:	20 83       	st	Z, r18
    1660:	08 95       	ret
    1662:	27 e0       	ldi	r18, 0x07	; 7
    1664:	fc 01       	movw	r30, r24
    1666:	20 83       	st	Z, r18
    1668:	08 95       	ret
    166a:	aa cf       	rjmp	.-172    	; 0x15c0 <_ZN3I2C4failEv>
    166c:	08 95       	ret

0000166e <_ZN3I2C5writeEPhh>:
    166e:	9f 92       	push	r9
    1670:	af 92       	push	r10
    1672:	bf 92       	push	r11
    1674:	cf 92       	push	r12
    1676:	df 92       	push	r13
    1678:	ef 92       	push	r14
    167a:	ff 92       	push	r15
    167c:	0f 93       	push	r16
    167e:	1f 93       	push	r17
    1680:	cf 93       	push	r28
    1682:	df 93       	push	r29
    1684:	ec 01       	movw	r28, r24
    1686:	7b 01       	movw	r14, r22
    1688:	14 2f       	mov	r17, r20
    168a:	bc 01       	movw	r22, r24
    168c:	6e 5f       	subi	r22, 0xFE	; 254
    168e:	7f 4f       	sbci	r23, 0xFF	; 255
    1690:	c7 01       	movw	r24, r14
    1692:	5c df       	rcall	.-328    	; 0x154c <_Z10copy_rangePhS_h>
    1694:	88 e4       	ldi	r24, 0x48	; 72
    1696:	80 93 b8 00 	sts	0x00B8, r24	; 0x8000b8 <__TEXT_REGION_LENGTH__+0x7e00b8>
    169a:	1d 87       	std	Y+13, r17	; 0x0d
    169c:	1c 86       	std	Y+12, r1	; 0x0c
    169e:	1e 86       	std	Y+14, r1	; 0x0e
    16a0:	18 82       	st	Y, r1
    16a2:	e0 e0       	ldi	r30, 0x00	; 0
    16a4:	0f 2e       	mov	r0, r31
    16a6:	fb eb       	ldi	r31, 0xBB	; 187
    16a8:	cf 2e       	mov	r12, r31
    16aa:	d1 2c       	mov	r13, r1
    16ac:	f0 2d       	mov	r31, r0
    16ae:	0c eb       	ldi	r16, 0xBC	; 188
    16b0:	10 e0       	ldi	r17, 0x00	; 0
    16b2:	0f 2e       	mov	r0, r31
    16b4:	f4 e8       	ldi	r31, 0x84	; 132
    16b6:	9f 2e       	mov	r9, r31
    16b8:	f0 2d       	mov	r31, r0
    16ba:	0f 2e       	mov	r0, r31
    16bc:	f6 e0       	ldi	r31, 0x06	; 6
    16be:	af 2e       	mov	r10, r31
    16c0:	f0 2d       	mov	r31, r0
    16c2:	0f 2e       	mov	r0, r31
    16c4:	f4 ee       	ldi	r31, 0xE4	; 228
    16c6:	bf 2e       	mov	r11, r31
    16c8:	f0 2d       	mov	r31, r0
    16ca:	03 c0       	rjmp	.+6      	; 0x16d2 <_ZN3I2C5writeEPhh+0x64>
    16cc:	e8 81       	ld	r30, Y
    16ce:	e8 30       	cpi	r30, 0x08	; 8
    16d0:	91 f1       	breq	.+100    	; 0x1736 <_ZN3I2C5writeEPhh+0xc8>
    16d2:	8e 85       	ldd	r24, Y+14	; 0x0e
    16d4:	85 30       	cpi	r24, 0x05	; 5
    16d6:	90 f5       	brcc	.+100    	; 0x173c <_ZN3I2C5writeEPhh+0xce>
    16d8:	8e 2f       	mov	r24, r30
    16da:	90 e0       	ldi	r25, 0x00	; 0
    16dc:	88 30       	cpi	r24, 0x08	; 8
    16de:	91 05       	cpc	r25, r1
    16e0:	38 f5       	brcc	.+78     	; 0x1730 <_ZN3I2C5writeEPhh+0xc2>
    16e2:	fc 01       	movw	r30, r24
    16e4:	ed 56       	subi	r30, 0x6D	; 109
    16e6:	ff 4f       	sbci	r31, 0xFF	; 255
    16e8:	c8 c6       	rjmp	.+3472   	; 0x247a <__tablejump2__>
    16ea:	f8 01       	movw	r30, r16
    16ec:	b0 82       	st	Z, r11
    16ee:	81 e0       	ldi	r24, 0x01	; 1
    16f0:	88 83       	st	Y, r24
    16f2:	2a c0       	rjmp	.+84     	; 0x1748 <_ZN3I2C5writeEPhh+0xda>
    16f4:	ce 01       	movw	r24, r28
    16f6:	72 df       	rcall	.-284    	; 0x15dc <_ZN3I2C12verify_startEv>
    16f8:	e9 cf       	rjmp	.-46     	; 0x16cc <_ZN3I2C5writeEPhh+0x5e>
    16fa:	61 e0       	ldi	r22, 0x01	; 1
    16fc:	ce 01       	movw	r24, r28
    16fe:	37 df       	rcall	.-402    	; 0x156e <_ZN3I2C12send_addressENS_9DirectionE>
    1700:	e5 cf       	rjmp	.-54     	; 0x16cc <_ZN3I2C5writeEPhh+0x5e>
    1702:	ce 01       	movw	r24, r28
    1704:	7b df       	rcall	.-266    	; 0x15fc <_ZN3I2C25verify_write_address_sentEv>
    1706:	e2 cf       	rjmp	.-60     	; 0x16cc <_ZN3I2C5writeEPhh+0x5e>
    1708:	8c 85       	ldd	r24, Y+12	; 0x0c
    170a:	f7 01       	movw	r30, r14
    170c:	e8 0f       	add	r30, r24
    170e:	f1 1d       	adc	r31, r1
    1710:	80 81       	ld	r24, Z
    1712:	f6 01       	movw	r30, r12
    1714:	80 83       	st	Z, r24
    1716:	f8 01       	movw	r30, r16
    1718:	90 82       	st	Z, r9
    171a:	a8 82       	st	Y, r10
    171c:	15 c0       	rjmp	.+42     	; 0x1748 <_ZN3I2C5writeEPhh+0xda>
    171e:	ce 01       	movw	r24, r28
    1720:	8d df       	rcall	.-230    	; 0x163c <_ZN3I2C16verify_data_sentEv>
    1722:	d4 cf       	rjmp	.-88     	; 0x16cc <_ZN3I2C5writeEPhh+0x5e>
    1724:	84 e9       	ldi	r24, 0x94	; 148
    1726:	80 93 bc 00 	sts	0x00BC, r24	; 0x8000bc <__TEXT_REGION_LENGTH__+0x7e00bc>
    172a:	88 e0       	ldi	r24, 0x08	; 8
    172c:	88 83       	st	Y, r24
    172e:	09 c0       	rjmp	.+18     	; 0x1742 <_ZN3I2C5writeEPhh+0xd4>
    1730:	88 e0       	ldi	r24, 0x08	; 8
    1732:	88 83       	st	Y, r24
    1734:	06 c0       	rjmp	.+12     	; 0x1742 <_ZN3I2C5writeEPhh+0xd4>
    1736:	81 e0       	ldi	r24, 0x01	; 1
    1738:	90 e0       	ldi	r25, 0x00	; 0
    173a:	08 c0       	rjmp	.+16     	; 0x174c <_ZN3I2C5writeEPhh+0xde>
    173c:	80 e0       	ldi	r24, 0x00	; 0
    173e:	90 e0       	ldi	r25, 0x00	; 0
    1740:	05 c0       	rjmp	.+10     	; 0x174c <_ZN3I2C5writeEPhh+0xde>
    1742:	81 e0       	ldi	r24, 0x01	; 1
    1744:	90 e0       	ldi	r25, 0x00	; 0
    1746:	02 c0       	rjmp	.+4      	; 0x174c <_ZN3I2C5writeEPhh+0xde>
    1748:	e8 81       	ld	r30, Y
    174a:	c3 cf       	rjmp	.-122    	; 0x16d2 <_ZN3I2C5writeEPhh+0x64>
    174c:	df 91       	pop	r29
    174e:	cf 91       	pop	r28
    1750:	1f 91       	pop	r17
    1752:	0f 91       	pop	r16
    1754:	ff 90       	pop	r15
    1756:	ef 90       	pop	r14
    1758:	df 90       	pop	r13
    175a:	cf 90       	pop	r12
    175c:	bf 90       	pop	r11
    175e:	af 90       	pop	r10
    1760:	9f 90       	pop	r9
    1762:	08 95       	ret

00001764 <_ZN3I2C16verify_data_readEv>:
    1764:	20 91 bc 00 	lds	r18, 0x00BC	; 0x8000bc <__TEXT_REGION_LENGTH__+0x7e00bc>
    1768:	22 23       	and	r18, r18
    176a:	fc f4       	brge	.+62     	; 0x17aa <_ZN3I2C16verify_data_readEv+0x46>
    176c:	20 91 bc 00 	lds	r18, 0x00BC	; 0x8000bc <__TEXT_REGION_LENGTH__+0x7e00bc>
    1770:	26 ff       	sbrs	r18, 6
    1772:	03 c0       	rjmp	.+6      	; 0x177a <_ZN3I2C16verify_data_readEv+0x16>
    1774:	40 e5       	ldi	r20, 0x50	; 80
    1776:	65 e0       	ldi	r22, 0x05	; 5
    1778:	02 c0       	rjmp	.+4      	; 0x177e <_ZN3I2C16verify_data_readEv+0x1a>
    177a:	48 e5       	ldi	r20, 0x58	; 88
    177c:	67 e0       	ldi	r22, 0x07	; 7
    177e:	20 91 b9 00 	lds	r18, 0x00B9	; 0x8000b9 <__TEXT_REGION_LENGTH__+0x7e00b9>
    1782:	28 7f       	andi	r18, 0xF8	; 248
    1784:	30 e0       	ldi	r19, 0x00	; 0
    1786:	50 e0       	ldi	r21, 0x00	; 0
    1788:	24 17       	cp	r18, r20
    178a:	35 07       	cpc	r19, r21
    178c:	69 f4       	brne	.+26     	; 0x17a8 <_ZN3I2C16verify_data_readEv+0x44>
    178e:	fc 01       	movw	r30, r24
    1790:	24 85       	ldd	r18, Z+12	; 0x0c
    1792:	31 e0       	ldi	r19, 0x01	; 1
    1794:	32 0f       	add	r19, r18
    1796:	34 87       	std	Z+12, r19	; 0x0c
    1798:	30 91 bb 00 	lds	r19, 0x00BB	; 0x8000bb <__TEXT_REGION_LENGTH__+0x7e00bb>
    179c:	e2 0f       	add	r30, r18
    179e:	f1 1d       	adc	r31, r1
    17a0:	32 83       	std	Z+2, r19	; 0x02
    17a2:	fc 01       	movw	r30, r24
    17a4:	60 83       	st	Z, r22
    17a6:	08 95       	ret
    17a8:	0b cf       	rjmp	.-490    	; 0x15c0 <_ZN3I2C4failEv>
    17aa:	08 95       	ret

000017ac <_ZN3I2C4readEPhh>:
    17ac:	bf 92       	push	r11
    17ae:	cf 92       	push	r12
    17b0:	df 92       	push	r13
    17b2:	ef 92       	push	r14
    17b4:	ff 92       	push	r15
    17b6:	0f 93       	push	r16
    17b8:	1f 93       	push	r17
    17ba:	cf 93       	push	r28
    17bc:	df 93       	push	r29
    17be:	ec 01       	movw	r28, r24
    17c0:	7b 01       	movw	r14, r22
    17c2:	c4 2e       	mov	r12, r20
    17c4:	88 e4       	ldi	r24, 0x48	; 72
    17c6:	80 93 b8 00 	sts	0x00B8, r24	; 0x8000b8 <__TEXT_REGION_LENGTH__+0x7e00b8>
    17ca:	4d 87       	std	Y+13, r20	; 0x0d
    17cc:	1c 86       	std	Y+12, r1	; 0x0c
    17ce:	1e 86       	std	Y+14, r1	; 0x0e
    17d0:	18 82       	st	Y, r1
    17d2:	e0 e0       	ldi	r30, 0x00	; 0
    17d4:	0c eb       	ldi	r16, 0xBC	; 188
    17d6:	10 e0       	ldi	r17, 0x00	; 0
    17d8:	0f 2e       	mov	r0, r31
    17da:	f4 ee       	ldi	r31, 0xE4	; 228
    17dc:	bf 2e       	mov	r11, r31
    17de:	f0 2d       	mov	r31, r0
    17e0:	dd 24       	eor	r13, r13
    17e2:	d3 94       	inc	r13
    17e4:	03 c0       	rjmp	.+6      	; 0x17ec <_ZN3I2C4readEPhh+0x40>
    17e6:	e8 81       	ld	r30, Y
    17e8:	e8 30       	cpi	r30, 0x08	; 8
    17ea:	49 f1       	breq	.+82     	; 0x183e <_ZN3I2C4readEPhh+0x92>
    17ec:	8e 85       	ldd	r24, Y+14	; 0x0e
    17ee:	85 30       	cpi	r24, 0x05	; 5
    17f0:	70 f5       	brcc	.+92     	; 0x184e <_ZN3I2C4readEPhh+0xa2>
    17f2:	8e 2f       	mov	r24, r30
    17f4:	90 e0       	ldi	r25, 0x00	; 0
    17f6:	88 30       	cpi	r24, 0x08	; 8
    17f8:	91 05       	cpc	r25, r1
    17fa:	f8 f4       	brcc	.+62     	; 0x183a <_ZN3I2C4readEPhh+0x8e>
    17fc:	fc 01       	movw	r30, r24
    17fe:	e5 56       	subi	r30, 0x65	; 101
    1800:	ff 4f       	sbci	r31, 0xFF	; 255
    1802:	3b c6       	rjmp	.+3190   	; 0x247a <__tablejump2__>
    1804:	f8 01       	movw	r30, r16
    1806:	b0 82       	st	Z, r11
    1808:	d8 82       	st	Y, r13
    180a:	ed 2d       	mov	r30, r13
    180c:	ef cf       	rjmp	.-34     	; 0x17ec <_ZN3I2C4readEPhh+0x40>
    180e:	ce 01       	movw	r24, r28
    1810:	e5 de       	rcall	.-566    	; 0x15dc <_ZN3I2C12verify_startEv>
    1812:	e9 cf       	rjmp	.-46     	; 0x17e6 <_ZN3I2C4readEPhh+0x3a>
    1814:	60 e0       	ldi	r22, 0x00	; 0
    1816:	ce 01       	movw	r24, r28
    1818:	aa de       	rcall	.-684    	; 0x156e <_ZN3I2C12send_addressENS_9DirectionE>
    181a:	e5 cf       	rjmp	.-54     	; 0x17e6 <_ZN3I2C4readEPhh+0x3a>
    181c:	ce 01       	movw	r24, r28
    181e:	fe de       	rcall	.-516    	; 0x161c <_ZN3I2C24verify_read_address_sentEv>
    1820:	e2 cf       	rjmp	.-60     	; 0x17e6 <_ZN3I2C4readEPhh+0x3a>
    1822:	ce 01       	movw	r24, r28
    1824:	b7 de       	rcall	.-658    	; 0x1594 <_ZN3I2C14read_data_byteEv>
    1826:	df cf       	rjmp	.-66     	; 0x17e6 <_ZN3I2C4readEPhh+0x3a>
    1828:	ce 01       	movw	r24, r28
    182a:	9c df       	rcall	.-200    	; 0x1764 <_ZN3I2C16verify_data_readEv>
    182c:	dc cf       	rjmp	.-72     	; 0x17e6 <_ZN3I2C4readEPhh+0x3a>
    182e:	84 e9       	ldi	r24, 0x94	; 148
    1830:	80 93 bc 00 	sts	0x00BC, r24	; 0x8000bc <__TEXT_REGION_LENGTH__+0x7e00bc>
    1834:	88 e0       	ldi	r24, 0x08	; 8
    1836:	88 83       	st	Y, r24
    1838:	02 c0       	rjmp	.+4      	; 0x183e <_ZN3I2C4readEPhh+0x92>
    183a:	88 e0       	ldi	r24, 0x08	; 8
    183c:	88 83       	st	Y, r24
    183e:	4c 2d       	mov	r20, r12
    1840:	b7 01       	movw	r22, r14
    1842:	ce 01       	movw	r24, r28
    1844:	02 96       	adiw	r24, 0x02	; 2
    1846:	82 de       	rcall	.-764    	; 0x154c <_Z10copy_rangePhS_h>
    1848:	81 e0       	ldi	r24, 0x01	; 1
    184a:	90 e0       	ldi	r25, 0x00	; 0
    184c:	02 c0       	rjmp	.+4      	; 0x1852 <_ZN3I2C4readEPhh+0xa6>
    184e:	80 e0       	ldi	r24, 0x00	; 0
    1850:	90 e0       	ldi	r25, 0x00	; 0
    1852:	df 91       	pop	r29
    1854:	cf 91       	pop	r28
    1856:	1f 91       	pop	r17
    1858:	0f 91       	pop	r16
    185a:	ff 90       	pop	r15
    185c:	ef 90       	pop	r14
    185e:	df 90       	pop	r13
    1860:	cf 90       	pop	r12
    1862:	bf 90       	pop	r11
    1864:	08 95       	ret

00001866 <main>:

#define F_CPU 16000000UL
#include <util/delay.h>

int main ()
{
    1866:	cf 93       	push	r28
    1868:	df 93       	push	r29
    186a:	cd b7       	in	r28, 0x3d	; 61
    186c:	de b7       	in	r29, 0x3e	; 62
    186e:	ce 56       	subi	r28, 0x6E	; 110
    1870:	d1 40       	sbci	r29, 0x01	; 1
    1872:	0f b6       	in	r0, 0x3f	; 63
    1874:	f8 94       	cli
    1876:	de bf       	out	0x3e, r29	; 62
    1878:	0f be       	out	0x3f, r0	; 63
    187a:	cd bf       	out	0x3d, r28	; 61
	#else
		//round up by default
		__ticks_dc = (uint32_t)(ceil(fabs(__tmp)));
	#endif

	__builtin_avr_delay_cycles(__ticks_dc);
    187c:	2f ef       	ldi	r18, 0xFF	; 255
    187e:	83 ed       	ldi	r24, 0xD3	; 211
    1880:	90 e3       	ldi	r25, 0x30	; 48
    1882:	21 50       	subi	r18, 0x01	; 1
    1884:	80 40       	sbci	r24, 0x00	; 0
    1886:	90 40       	sbci	r25, 0x00	; 0
    1888:	e1 f7       	brne	.-8      	; 0x1882 <main+0x1c>
    188a:	00 c0       	rjmp	.+0      	; 0x188c <main+0x26>
    188c:	00 00       	nop
#include "../memory/memory.hpp"
#include "../uart/uart_module.hpp"
#include "request.hpp"
#include "../timer/Clock.hpp"

class Communications
    188e:	ce 01       	movw	r24, r28
    1890:	04 96       	adiw	r24, 0x04	; 4
    1892:	39 da       	rcall	.-2958   	; 0xd06 <_ZN12MessageQueueC1Ev>
    1894:	ce 01       	movw	r24, r28
    1896:	83 56       	subi	r24, 0x63	; 99
    1898:	9f 4f       	sbci	r25, 0xFF	; 255
    189a:	88 da       	rcall	.-2800   	; 0xdac <_ZN18FastTransferParserC1Ev>
    189c:	ce 01       	movw	r24, r28
    189e:	80 53       	subi	r24, 0x30	; 48
    18a0:	9f 4f       	sbci	r25, 0xFF	; 255
    18a2:	5e d0       	rcall	.+188    	; 0x1960 <_ZN6ClocksC1Ev>
  _delay_ms(1000);
  ControlBoxEngine box;
  box.initialize();
    18a4:	ce 01       	movw	r24, r28
    18a6:	01 96       	adiw	r24, 0x01	; 1
    18a8:	0c db       	rcall	.-2536   	; 0xec2 <_ZN16ControlBoxEngine10initializeEv>
  box.loop();
    18aa:	ce 01       	movw	r24, r28
    18ac:	01 96       	adiw	r24, 0x01	; 1
    18ae:	1c db       	rcall	.-2504   	; 0xee8 <_ZN16ControlBoxEngine4loopEv>
    18b0:	80 e0       	ldi	r24, 0x00	; 0
  return 0;
    18b2:	90 e0       	ldi	r25, 0x00	; 0
    18b4:	c2 59       	subi	r28, 0x92	; 146
    18b6:	de 4f       	sbci	r29, 0xFE	; 254
    18b8:	0f b6       	in	r0, 0x3f	; 63
    18ba:	f8 94       	cli
    18bc:	de bf       	out	0x3e, r29	; 62
    18be:	0f be       	out	0x3f, r0	; 63
    18c0:	cd bf       	out	0x3d, r28	; 61
    18c2:	df 91       	pop	r29
    18c4:	cf 91       	pop	r28
    18c6:	08 95       	ret

000018c8 <_ZN6Memory10initializeEv>:
    18c8:	e7 e5       	ldi	r30, 0x57	; 87
    18ca:	f2 e0       	ldi	r31, 0x02	; 2
    18cc:	87 e5       	ldi	r24, 0x57	; 87
    18ce:	95 e0       	ldi	r25, 0x05	; 5
    18d0:	11 82       	std	Z+1, r1	; 0x01
    18d2:	10 82       	st	Z, r1
    18d4:	13 82       	std	Z+3, r1	; 0x03
    18d6:	12 82       	std	Z+2, r1	; 0x02
    18d8:	15 82       	std	Z+5, r1	; 0x05
    18da:	14 82       	std	Z+4, r1	; 0x04
    18dc:	36 96       	adiw	r30, 0x06	; 6
    18de:	e8 17       	cp	r30, r24
    18e0:	f9 07       	cpc	r31, r25
    18e2:	b1 f7       	brne	.-20     	; 0x18d0 <_ZN6Memory10initializeEv+0x8>
    18e4:	08 95       	ret

000018e6 <_ZN6Memory5writeEhj>:
    18e6:	90 e0       	ldi	r25, 0x00	; 0
    18e8:	fc 01       	movw	r30, r24
    18ea:	ee 0f       	add	r30, r30
    18ec:	ff 1f       	adc	r31, r31
    18ee:	e8 0f       	add	r30, r24
    18f0:	f9 1f       	adc	r31, r25
    18f2:	ee 0f       	add	r30, r30
    18f4:	ff 1f       	adc	r31, r31
    18f6:	e9 5a       	subi	r30, 0xA9	; 169
    18f8:	fd 4f       	sbci	r31, 0xFD	; 253
    18fa:	01 c0       	rjmp	.+2      	; 0x18fe <_ZN6Memory5writeEhj+0x18>
    18fc:	fc 01       	movw	r30, r24
    18fe:	84 81       	ldd	r24, Z+4	; 0x04
    1900:	95 81       	ldd	r25, Z+5	; 0x05
    1902:	00 97       	sbiw	r24, 0x00	; 0
    1904:	d9 f7       	brne	.-10     	; 0x18fc <_ZN6Memory5writeEhj+0x16>
    1906:	30 97       	sbiw	r30, 0x00	; 0
    1908:	39 f0       	breq	.+14     	; 0x1918 <_ZN6Memory5writeEhj+0x32>
    190a:	71 83       	std	Z+1, r23	; 0x01
    190c:	60 83       	st	Z, r22
    190e:	02 80       	ldd	r0, Z+2	; 0x02
    1910:	f3 81       	ldd	r31, Z+3	; 0x03
    1912:	e0 2d       	mov	r30, r0
    1914:	30 97       	sbiw	r30, 0x00	; 0
    1916:	c9 f7       	brne	.-14     	; 0x190a <_ZN6Memory5writeEhj+0x24>
    1918:	08 95       	ret

0000191a <_ZN6Memory4readEh>:
    191a:	90 e0       	ldi	r25, 0x00	; 0
    191c:	fc 01       	movw	r30, r24
    191e:	ee 0f       	add	r30, r30
    1920:	ff 1f       	adc	r31, r31
    1922:	e8 0f       	add	r30, r24
    1924:	f9 1f       	adc	r31, r25
    1926:	ee 0f       	add	r30, r30
    1928:	ff 1f       	adc	r31, r31
    192a:	e9 5a       	subi	r30, 0xA9	; 169
    192c:	fd 4f       	sbci	r31, 0xFD	; 253
    192e:	80 81       	ld	r24, Z
    1930:	91 81       	ldd	r25, Z+1	; 0x01
    1932:	08 95       	ret

00001934 <_ZN6Memory13valid_addressEh>:
    1934:	80 95       	com	r24
    1936:	88 1f       	adc	r24, r24
    1938:	88 27       	eor	r24, r24
    193a:	88 1f       	adc	r24, r24
    193c:	08 95       	ret

0000193e <_ZN6Clocks5resetEv>:
    193e:	cf 93       	push	r28
    1940:	df 93       	push	r29
    1942:	ec 01       	movw	r28, r24
    1944:	87 e5       	ldi	r24, 0x57	; 87
    1946:	95 e0       	ldi	r25, 0x05	; 5
    1948:	a4 d1       	rcall	.+840    	; 0x1c92 <_ZN12SimpleTimer16millisEv>
    194a:	6c 83       	std	Y+4, r22	; 0x04
    194c:	7d 83       	std	Y+5, r23	; 0x05
    194e:	8e 83       	std	Y+6, r24	; 0x06
    1950:	9f 83       	std	Y+7, r25	; 0x07
    1952:	68 83       	st	Y, r22
    1954:	79 83       	std	Y+1, r23	; 0x01
    1956:	8a 83       	std	Y+2, r24	; 0x02
    1958:	9b 83       	std	Y+3, r25	; 0x03
    195a:	df 91       	pop	r29
    195c:	cf 91       	pop	r28
    195e:	08 95       	ret

00001960 <_ZN6ClocksC1Ev>:
    1960:	cf 93       	push	r28
    1962:	df 93       	push	r29
    1964:	ec 01       	movw	r28, r24
    1966:	41 e0       	ldi	r20, 0x01	; 1
    1968:	50 e0       	ldi	r21, 0x00	; 0
    196a:	60 e0       	ldi	r22, 0x00	; 0
    196c:	70 e0       	ldi	r23, 0x00	; 0
    196e:	87 e5       	ldi	r24, 0x57	; 87
    1970:	95 e0       	ldi	r25, 0x05	; 5
    1972:	a5 d1       	rcall	.+842    	; 0x1cbe <_ZN12SimpleTimer112set_durationEm>
    1974:	87 e5       	ldi	r24, 0x57	; 87
    1976:	95 e0       	ldi	r25, 0x05	; 5
    1978:	95 d1       	rcall	.+810    	; 0x1ca4 <_ZN12SimpleTimer15startEv>
    197a:	82 e3       	ldi	r24, 0x32	; 50
    197c:	90 e0       	ldi	r25, 0x00	; 0
    197e:	a0 e0       	ldi	r26, 0x00	; 0
    1980:	b0 e0       	ldi	r27, 0x00	; 0
    1982:	88 87       	std	Y+8, r24	; 0x08
    1984:	99 87       	std	Y+9, r25	; 0x09
    1986:	aa 87       	std	Y+10, r26	; 0x0a
    1988:	bb 87       	std	Y+11, r27	; 0x0b
    198a:	ce 01       	movw	r24, r28
    198c:	d8 df       	rcall	.-80     	; 0x193e <_ZN6Clocks5resetEv>
    198e:	df 91       	pop	r29
    1990:	cf 91       	pop	r28
    1992:	08 95       	ret

00001994 <_ZN6ClocksC1El>:
    1994:	cf 92       	push	r12
    1996:	df 92       	push	r13
    1998:	ef 92       	push	r14
    199a:	ff 92       	push	r15
    199c:	cf 93       	push	r28
    199e:	df 93       	push	r29
    19a0:	ec 01       	movw	r28, r24
    19a2:	6a 01       	movw	r12, r20
    19a4:	7b 01       	movw	r14, r22
    19a6:	41 e0       	ldi	r20, 0x01	; 1
    19a8:	50 e0       	ldi	r21, 0x00	; 0
    19aa:	60 e0       	ldi	r22, 0x00	; 0
    19ac:	70 e0       	ldi	r23, 0x00	; 0
    19ae:	87 e5       	ldi	r24, 0x57	; 87
    19b0:	95 e0       	ldi	r25, 0x05	; 5
    19b2:	85 d1       	rcall	.+778    	; 0x1cbe <_ZN12SimpleTimer112set_durationEm>
    19b4:	87 e5       	ldi	r24, 0x57	; 87
    19b6:	95 e0       	ldi	r25, 0x05	; 5
    19b8:	75 d1       	rcall	.+746    	; 0x1ca4 <_ZN12SimpleTimer15startEv>
    19ba:	c8 86       	std	Y+8, r12	; 0x08
    19bc:	d9 86       	std	Y+9, r13	; 0x09
    19be:	ea 86       	std	Y+10, r14	; 0x0a
    19c0:	fb 86       	std	Y+11, r15	; 0x0b
    19c2:	ce 01       	movw	r24, r28
    19c4:	bc df       	rcall	.-136    	; 0x193e <_ZN6Clocks5resetEv>
    19c6:	df 91       	pop	r29
    19c8:	cf 91       	pop	r28
    19ca:	ff 90       	pop	r15
    19cc:	ef 90       	pop	r14
    19ce:	df 90       	pop	r13
    19d0:	cf 90       	pop	r12
    19d2:	08 95       	ret

000019d4 <_ZN6Clocks12resetSpecialEv>:
    19d4:	cf 93       	push	r28
    19d6:	df 93       	push	r29
    19d8:	ec 01       	movw	r28, r24
    19da:	4c 81       	ldd	r20, Y+4	; 0x04
    19dc:	5d 81       	ldd	r21, Y+5	; 0x05
    19de:	6e 81       	ldd	r22, Y+6	; 0x06
    19e0:	7f 81       	ldd	r23, Y+7	; 0x07
    19e2:	88 85       	ldd	r24, Y+8	; 0x08
    19e4:	99 85       	ldd	r25, Y+9	; 0x09
    19e6:	aa 85       	ldd	r26, Y+10	; 0x0a
    19e8:	bb 85       	ldd	r27, Y+11	; 0x0b
    19ea:	84 0f       	add	r24, r20
    19ec:	95 1f       	adc	r25, r21
    19ee:	a6 1f       	adc	r26, r22
    19f0:	b7 1f       	adc	r27, r23
    19f2:	8c 83       	std	Y+4, r24	; 0x04
    19f4:	9d 83       	std	Y+5, r25	; 0x05
    19f6:	ae 83       	std	Y+6, r26	; 0x06
    19f8:	bf 83       	std	Y+7, r27	; 0x07
    19fa:	87 e5       	ldi	r24, 0x57	; 87
    19fc:	95 e0       	ldi	r25, 0x05	; 5
    19fe:	49 d1       	rcall	.+658    	; 0x1c92 <_ZN12SimpleTimer16millisEv>
    1a00:	68 83       	st	Y, r22
    1a02:	79 83       	std	Y+1, r23	; 0x01
    1a04:	8a 83       	std	Y+2, r24	; 0x02
    1a06:	9b 83       	std	Y+3, r25	; 0x03
    1a08:	df 91       	pop	r29
    1a0a:	cf 91       	pop	r28
    1a0c:	08 95       	ret

00001a0e <_ZN6Clocks11setIntervalEl>:
    1a0e:	fc 01       	movw	r30, r24
    1a10:	40 87       	std	Z+8, r20	; 0x08
    1a12:	51 87       	std	Z+9, r21	; 0x09
    1a14:	62 87       	std	Z+10, r22	; 0x0a
    1a16:	73 87       	std	Z+11, r23	; 0x0b
    1a18:	08 95       	ret

00001a1a <_ZN6Clocks6updateEv>:
    1a1a:	cf 93       	push	r28
    1a1c:	df 93       	push	r29
    1a1e:	ec 01       	movw	r28, r24
    1a20:	87 e5       	ldi	r24, 0x57	; 87
    1a22:	95 e0       	ldi	r25, 0x05	; 5
    1a24:	36 d1       	rcall	.+620    	; 0x1c92 <_ZN12SimpleTimer16millisEv>
    1a26:	68 83       	st	Y, r22
    1a28:	79 83       	std	Y+1, r23	; 0x01
    1a2a:	8a 83       	std	Y+2, r24	; 0x02
    1a2c:	9b 83       	std	Y+3, r25	; 0x03
    1a2e:	df 91       	pop	r29
    1a30:	cf 91       	pop	r28
    1a32:	08 95       	ret

00001a34 <_ZN6Clocks6isDoneEv>:
    1a34:	cf 93       	push	r28
    1a36:	df 93       	push	r29
    1a38:	ec 01       	movw	r28, r24
    1a3a:	ef df       	rcall	.-34     	; 0x1a1a <_ZN6Clocks6updateEv>
    1a3c:	28 81       	ld	r18, Y
    1a3e:	39 81       	ldd	r19, Y+1	; 0x01
    1a40:	8c 81       	ldd	r24, Y+4	; 0x04
    1a42:	9d 81       	ldd	r25, Y+5	; 0x05
    1a44:	28 1b       	sub	r18, r24
    1a46:	39 0b       	sbc	r19, r25
    1a48:	c9 01       	movw	r24, r18
    1a4a:	99 23       	and	r25, r25
    1a4c:	24 f4       	brge	.+8      	; 0x1a56 <_ZN6Clocks6isDoneEv+0x22>
    1a4e:	88 27       	eor	r24, r24
    1a50:	99 27       	eor	r25, r25
    1a52:	82 1b       	sub	r24, r18
    1a54:	93 0b       	sbc	r25, r19
    1a56:	09 2e       	mov	r0, r25
    1a58:	00 0c       	add	r0, r0
    1a5a:	aa 0b       	sbc	r26, r26
    1a5c:	bb 0b       	sbc	r27, r27
    1a5e:	48 85       	ldd	r20, Y+8	; 0x08
    1a60:	59 85       	ldd	r21, Y+9	; 0x09
    1a62:	6a 85       	ldd	r22, Y+10	; 0x0a
    1a64:	7b 85       	ldd	r23, Y+11	; 0x0b
    1a66:	48 17       	cp	r20, r24
    1a68:	59 07       	cpc	r21, r25
    1a6a:	6a 07       	cpc	r22, r26
    1a6c:	7b 07       	cpc	r23, r27
    1a6e:	24 f4       	brge	.+8      	; 0x1a78 <_ZN6Clocks6isDoneEv+0x44>
    1a70:	ce 01       	movw	r24, r28
    1a72:	65 df       	rcall	.-310    	; 0x193e <_ZN6Clocks5resetEv>
    1a74:	81 e0       	ldi	r24, 0x01	; 1
    1a76:	01 c0       	rjmp	.+2      	; 0x1a7a <_ZN6Clocks6isDoneEv+0x46>
    1a78:	80 e0       	ldi	r24, 0x00	; 0
    1a7a:	df 91       	pop	r29
    1a7c:	cf 91       	pop	r28
    1a7e:	08 95       	ret

00001a80 <_ZN6Clocks13isDoneSpecialEv>:
    1a80:	cf 93       	push	r28
    1a82:	df 93       	push	r29
    1a84:	ec 01       	movw	r28, r24
    1a86:	c9 df       	rcall	.-110    	; 0x1a1a <_ZN6Clocks6updateEv>
    1a88:	28 81       	ld	r18, Y
    1a8a:	39 81       	ldd	r19, Y+1	; 0x01
    1a8c:	8c 81       	ldd	r24, Y+4	; 0x04
    1a8e:	9d 81       	ldd	r25, Y+5	; 0x05
    1a90:	28 1b       	sub	r18, r24
    1a92:	39 0b       	sbc	r19, r25
    1a94:	c9 01       	movw	r24, r18
    1a96:	99 23       	and	r25, r25
    1a98:	24 f4       	brge	.+8      	; 0x1aa2 <_ZN6Clocks13isDoneSpecialEv+0x22>
    1a9a:	88 27       	eor	r24, r24
    1a9c:	99 27       	eor	r25, r25
    1a9e:	82 1b       	sub	r24, r18
    1aa0:	93 0b       	sbc	r25, r19
    1aa2:	09 2e       	mov	r0, r25
    1aa4:	00 0c       	add	r0, r0
    1aa6:	aa 0b       	sbc	r26, r26
    1aa8:	bb 0b       	sbc	r27, r27
    1aaa:	48 85       	ldd	r20, Y+8	; 0x08
    1aac:	59 85       	ldd	r21, Y+9	; 0x09
    1aae:	6a 85       	ldd	r22, Y+10	; 0x0a
    1ab0:	7b 85       	ldd	r23, Y+11	; 0x0b
    1ab2:	48 17       	cp	r20, r24
    1ab4:	59 07       	cpc	r21, r25
    1ab6:	6a 07       	cpc	r22, r26
    1ab8:	7b 07       	cpc	r23, r27
    1aba:	24 f4       	brge	.+8      	; 0x1ac4 <_ZN6Clocks13isDoneSpecialEv+0x44>
    1abc:	ce 01       	movw	r24, r28
    1abe:	8a df       	rcall	.-236    	; 0x19d4 <_ZN6Clocks12resetSpecialEv>
    1ac0:	81 e0       	ldi	r24, 0x01	; 1
    1ac2:	01 c0       	rjmp	.+2      	; 0x1ac6 <_ZN6Clocks13isDoneSpecialEv+0x46>
    1ac4:	80 e0       	ldi	r24, 0x00	; 0
    1ac6:	df 91       	pop	r29
    1ac8:	cf 91       	pop	r28
    1aca:	08 95       	ret

00001acc <_ZN6Clocks14isDone_NoResetEv>:
    1acc:	0f 93       	push	r16
    1ace:	1f 93       	push	r17
    1ad0:	cf 93       	push	r28
    1ad2:	df 93       	push	r29
    1ad4:	ec 01       	movw	r28, r24
    1ad6:	a1 df       	rcall	.-190    	; 0x1a1a <_ZN6Clocks6updateEv>
    1ad8:	88 81       	ld	r24, Y
    1ada:	99 81       	ldd	r25, Y+1	; 0x01
    1adc:	2c 81       	ldd	r18, Y+4	; 0x04
    1ade:	3d 81       	ldd	r19, Y+5	; 0x05
    1ae0:	82 1b       	sub	r24, r18
    1ae2:	93 0b       	sbc	r25, r19
    1ae4:	ac 01       	movw	r20, r24
    1ae6:	22 f4       	brpl	.+8      	; 0x1af0 <_ZN6Clocks14isDone_NoResetEv+0x24>
    1ae8:	44 27       	eor	r20, r20
    1aea:	55 27       	eor	r21, r21
    1aec:	48 1b       	sub	r20, r24
    1aee:	59 0b       	sbc	r21, r25
    1af0:	05 2e       	mov	r0, r21
    1af2:	00 0c       	add	r0, r0
    1af4:	66 0b       	sbc	r22, r22
    1af6:	77 0b       	sbc	r23, r23
    1af8:	81 e0       	ldi	r24, 0x01	; 1
    1afa:	08 85       	ldd	r16, Y+8	; 0x08
    1afc:	19 85       	ldd	r17, Y+9	; 0x09
    1afe:	2a 85       	ldd	r18, Y+10	; 0x0a
    1b00:	3b 85       	ldd	r19, Y+11	; 0x0b
    1b02:	04 17       	cp	r16, r20
    1b04:	15 07       	cpc	r17, r21
    1b06:	26 07       	cpc	r18, r22
    1b08:	37 07       	cpc	r19, r23
    1b0a:	0c f0       	brlt	.+2      	; 0x1b0e <_ZN6Clocks14isDone_NoResetEv+0x42>
    1b0c:	80 e0       	ldi	r24, 0x00	; 0
    1b0e:	df 91       	pop	r29
    1b10:	cf 91       	pop	r28
    1b12:	1f 91       	pop	r17
    1b14:	0f 91       	pop	r16
    1b16:	08 95       	ret

00001b18 <_GLOBAL__sub_I__ZN6ClocksC2Ev>:
    1b18:	87 e5       	ldi	r24, 0x57	; 87
    1b1a:	95 e0       	ldi	r25, 0x05	; 5
    1b1c:	ce c0       	rjmp	.+412    	; 0x1cba <_ZN12SimpleTimer1C1Ev>
    1b1e:	08 95       	ret

00001b20 <_Z5resetv>:
    1b20:	10 92 5c 05 	sts	0x055C, r1	; 0x80055c <_ZL5count>
    1b24:	10 92 5d 05 	sts	0x055D, r1	; 0x80055d <_ZL5count+0x1>
    1b28:	10 92 5e 05 	sts	0x055E, r1	; 0x80055e <_ZL5count+0x2>
    1b2c:	10 92 5f 05 	sts	0x055F, r1	; 0x80055f <_ZL5count+0x3>
    1b30:	07 d1       	rcall	.+526    	; 0x1d40 <_Z36timer0_disableTimerOverflowInterruptv>
    1b32:	80 e0       	ldi	r24, 0x00	; 0
    1b34:	d7 c0       	rjmp	.+430    	; 0x1ce4 <_Z21timer0_setClockSource12CLOCK_SOURCE>
    1b36:	08 95       	ret

00001b38 <__vector_23>:
    1b38:	1f 92       	push	r1
    1b3a:	0f 92       	push	r0
    1b3c:	0f b6       	in	r0, 0x3f	; 63
    1b3e:	0f 92       	push	r0
    1b40:	11 24       	eor	r1, r1
    1b42:	0b b6       	in	r0, 0x3b	; 59
    1b44:	0f 92       	push	r0
    1b46:	2f 93       	push	r18
    1b48:	3f 93       	push	r19
    1b4a:	4f 93       	push	r20
    1b4c:	5f 93       	push	r21
    1b4e:	6f 93       	push	r22
    1b50:	7f 93       	push	r23
    1b52:	8f 93       	push	r24
    1b54:	9f 93       	push	r25
    1b56:	af 93       	push	r26
    1b58:	bf 93       	push	r27
    1b5a:	ef 93       	push	r30
    1b5c:	ff 93       	push	r31
    1b5e:	80 91 5c 05 	lds	r24, 0x055C	; 0x80055c <_ZL5count>
    1b62:	90 91 5d 05 	lds	r25, 0x055D	; 0x80055d <_ZL5count+0x1>
    1b66:	a0 91 5e 05 	lds	r26, 0x055E	; 0x80055e <_ZL5count+0x2>
    1b6a:	b0 91 5f 05 	lds	r27, 0x055F	; 0x80055f <_ZL5count+0x3>
    1b6e:	01 96       	adiw	r24, 0x01	; 1
    1b70:	a1 1d       	adc	r26, r1
    1b72:	b1 1d       	adc	r27, r1
    1b74:	80 93 5c 05 	sts	0x055C, r24	; 0x80055c <_ZL5count>
    1b78:	90 93 5d 05 	sts	0x055D, r25	; 0x80055d <_ZL5count+0x1>
    1b7c:	a0 93 5e 05 	sts	0x055E, r26	; 0x80055e <_ZL5count+0x2>
    1b80:	b0 93 5f 05 	sts	0x055F, r27	; 0x80055f <_ZL5count+0x3>
    1b84:	40 91 5c 05 	lds	r20, 0x055C	; 0x80055c <_ZL5count>
    1b88:	50 91 5d 05 	lds	r21, 0x055D	; 0x80055d <_ZL5count+0x1>
    1b8c:	60 91 5e 05 	lds	r22, 0x055E	; 0x80055e <_ZL5count+0x2>
    1b90:	70 91 5f 05 	lds	r23, 0x055F	; 0x80055f <_ZL5count+0x3>
    1b94:	80 91 58 05 	lds	r24, 0x0558	; 0x800558 <_ZL9max_count>
    1b98:	90 91 59 05 	lds	r25, 0x0559	; 0x800559 <_ZL9max_count+0x1>
    1b9c:	a0 91 5a 05 	lds	r26, 0x055A	; 0x80055a <_ZL9max_count+0x2>
    1ba0:	b0 91 5b 05 	lds	r27, 0x055B	; 0x80055b <_ZL9max_count+0x3>
    1ba4:	84 17       	cp	r24, r20
    1ba6:	95 07       	cpc	r25, r21
    1ba8:	a6 07       	cpc	r26, r22
    1baa:	b7 07       	cpc	r27, r23
    1bac:	08 f4       	brcc	.+2      	; 0x1bb0 <__vector_23+0x78>
    1bae:	b8 df       	rcall	.-144    	; 0x1b20 <_Z5resetv>
    1bb0:	ff 91       	pop	r31
    1bb2:	ef 91       	pop	r30
    1bb4:	bf 91       	pop	r27
    1bb6:	af 91       	pop	r26
    1bb8:	9f 91       	pop	r25
    1bba:	8f 91       	pop	r24
    1bbc:	7f 91       	pop	r23
    1bbe:	6f 91       	pop	r22
    1bc0:	5f 91       	pop	r21
    1bc2:	4f 91       	pop	r20
    1bc4:	3f 91       	pop	r19
    1bc6:	2f 91       	pop	r18
    1bc8:	0f 90       	pop	r0
    1bca:	0b be       	out	0x3b, r0	; 59
    1bcc:	0f 90       	pop	r0
    1bce:	0f be       	out	0x3f, r0	; 63
    1bd0:	0f 90       	pop	r0
    1bd2:	1f 90       	pop	r1
    1bd4:	18 95       	reti

00001bd6 <__vector_20>:
    1bd6:	1f 92       	push	r1
    1bd8:	0f 92       	push	r0
    1bda:	0f b6       	in	r0, 0x3f	; 63
    1bdc:	0f 92       	push	r0
    1bde:	11 24       	eor	r1, r1
    1be0:	4f 93       	push	r20
    1be2:	5f 93       	push	r21
    1be4:	6f 93       	push	r22
    1be6:	7f 93       	push	r23
    1be8:	8f 93       	push	r24
    1bea:	9f 93       	push	r25
    1bec:	af 93       	push	r26
    1bee:	bf 93       	push	r27
    1bf0:	80 91 68 05 	lds	r24, 0x0568	; 0x800568 <_ZL5count>
    1bf4:	90 91 69 05 	lds	r25, 0x0569	; 0x800569 <_ZL5count+0x1>
    1bf8:	a0 91 6a 05 	lds	r26, 0x056A	; 0x80056a <_ZL5count+0x2>
    1bfc:	b0 91 6b 05 	lds	r27, 0x056B	; 0x80056b <_ZL5count+0x3>
    1c00:	01 96       	adiw	r24, 0x01	; 1
    1c02:	a1 1d       	adc	r26, r1
    1c04:	b1 1d       	adc	r27, r1
    1c06:	80 93 68 05 	sts	0x0568, r24	; 0x800568 <_ZL5count>
    1c0a:	90 93 69 05 	sts	0x0569, r25	; 0x800569 <_ZL5count+0x1>
    1c0e:	a0 93 6a 05 	sts	0x056A, r26	; 0x80056a <_ZL5count+0x2>
    1c12:	b0 93 6b 05 	sts	0x056B, r27	; 0x80056b <_ZL5count+0x3>
    1c16:	40 91 68 05 	lds	r20, 0x0568	; 0x800568 <_ZL5count>
    1c1a:	50 91 69 05 	lds	r21, 0x0569	; 0x800569 <_ZL5count+0x1>
    1c1e:	60 91 6a 05 	lds	r22, 0x056A	; 0x80056a <_ZL5count+0x2>
    1c22:	70 91 6b 05 	lds	r23, 0x056B	; 0x80056b <_ZL5count+0x3>
    1c26:	80 91 60 05 	lds	r24, 0x0560	; 0x800560 <_ZL9max_count>
    1c2a:	90 91 61 05 	lds	r25, 0x0561	; 0x800561 <_ZL9max_count+0x1>
    1c2e:	a0 91 62 05 	lds	r26, 0x0562	; 0x800562 <_ZL9max_count+0x2>
    1c32:	b0 91 63 05 	lds	r27, 0x0563	; 0x800563 <_ZL9max_count+0x3>
    1c36:	84 17       	cp	r24, r20
    1c38:	95 07       	cpc	r25, r21
    1c3a:	a6 07       	cpc	r26, r22
    1c3c:	b7 07       	cpc	r27, r23
    1c3e:	d8 f4       	brcc	.+54     	; 0x1c76 <__vector_20+0xa0>
    1c40:	80 91 64 05 	lds	r24, 0x0564	; 0x800564 <_ZL11GlobalCount>
    1c44:	90 91 65 05 	lds	r25, 0x0565	; 0x800565 <_ZL11GlobalCount+0x1>
    1c48:	a0 91 66 05 	lds	r26, 0x0566	; 0x800566 <_ZL11GlobalCount+0x2>
    1c4c:	b0 91 67 05 	lds	r27, 0x0567	; 0x800567 <_ZL11GlobalCount+0x3>
    1c50:	04 96       	adiw	r24, 0x04	; 4
    1c52:	a1 1d       	adc	r26, r1
    1c54:	b1 1d       	adc	r27, r1
    1c56:	80 93 64 05 	sts	0x0564, r24	; 0x800564 <_ZL11GlobalCount>
    1c5a:	90 93 65 05 	sts	0x0565, r25	; 0x800565 <_ZL11GlobalCount+0x1>
    1c5e:	a0 93 66 05 	sts	0x0566, r26	; 0x800566 <_ZL11GlobalCount+0x2>
    1c62:	b0 93 67 05 	sts	0x0567, r27	; 0x800567 <_ZL11GlobalCount+0x3>
    1c66:	10 92 68 05 	sts	0x0568, r1	; 0x800568 <_ZL5count>
    1c6a:	10 92 69 05 	sts	0x0569, r1	; 0x800569 <_ZL5count+0x1>
    1c6e:	10 92 6a 05 	sts	0x056A, r1	; 0x80056a <_ZL5count+0x2>
    1c72:	10 92 6b 05 	sts	0x056B, r1	; 0x80056b <_ZL5count+0x3>
    1c76:	16 ba       	out	0x16, r1	; 22
    1c78:	bf 91       	pop	r27
    1c7a:	af 91       	pop	r26
    1c7c:	9f 91       	pop	r25
    1c7e:	8f 91       	pop	r24
    1c80:	7f 91       	pop	r23
    1c82:	6f 91       	pop	r22
    1c84:	5f 91       	pop	r21
    1c86:	4f 91       	pop	r20
    1c88:	0f 90       	pop	r0
    1c8a:	0f be       	out	0x3f, r0	; 63
    1c8c:	0f 90       	pop	r0
    1c8e:	1f 90       	pop	r1
    1c90:	18 95       	reti

00001c92 <_ZN12SimpleTimer16millisEv>:
    1c92:	60 91 64 05 	lds	r22, 0x0564	; 0x800564 <_ZL11GlobalCount>
    1c96:	70 91 65 05 	lds	r23, 0x0565	; 0x800565 <_ZL11GlobalCount+0x1>
    1c9a:	80 91 66 05 	lds	r24, 0x0566	; 0x800566 <_ZL11GlobalCount+0x2>
    1c9e:	90 91 67 05 	lds	r25, 0x0567	; 0x800567 <_ZL11GlobalCount+0x3>
    1ca2:	08 95       	ret

00001ca4 <_ZN12SimpleTimer15startEv>:
    1ca4:	ef e6       	ldi	r30, 0x6F	; 111
    1ca6:	f0 e0       	ldi	r31, 0x00	; 0
    1ca8:	80 81       	ld	r24, Z
    1caa:	81 60       	ori	r24, 0x01	; 1
    1cac:	80 83       	st	Z, r24
    1cae:	e1 e8       	ldi	r30, 0x81	; 129
    1cb0:	f0 e0       	ldi	r31, 0x00	; 0
    1cb2:	80 81       	ld	r24, Z
    1cb4:	81 60       	ori	r24, 0x01	; 1
    1cb6:	80 83       	st	Z, r24
    1cb8:	08 95       	ret

00001cba <_ZN12SimpleTimer1C1Ev>:
    1cba:	f4 cf       	rjmp	.-24     	; 0x1ca4 <_ZN12SimpleTimer15startEv>
    1cbc:	08 95       	ret

00001cbe <_ZN12SimpleTimer112set_durationEm>:
    1cbe:	a0 e8       	ldi	r26, 0x80	; 128
    1cc0:	be e3       	ldi	r27, 0x3E	; 62
    1cc2:	9a 01       	movw	r18, r20
    1cc4:	ab 01       	movw	r20, r22
    1cc6:	f7 d3       	rcall	.+2030   	; 0x24b6 <__muluhisi3>
    1cc8:	2f ef       	ldi	r18, 0xFF	; 255
    1cca:	3f ef       	ldi	r19, 0xFF	; 255
    1ccc:	40 e0       	ldi	r20, 0x00	; 0
    1cce:	50 e0       	ldi	r21, 0x00	; 0
    1cd0:	96 d3       	rcall	.+1836   	; 0x23fe <__udivmodsi4>
    1cd2:	20 93 60 05 	sts	0x0560, r18	; 0x800560 <_ZL9max_count>
    1cd6:	30 93 61 05 	sts	0x0561, r19	; 0x800561 <_ZL9max_count+0x1>
    1cda:	40 93 62 05 	sts	0x0562, r20	; 0x800562 <_ZL9max_count+0x2>
    1cde:	50 93 63 05 	sts	0x0563, r21	; 0x800563 <_ZL9max_count+0x3>
    1ce2:	08 95       	ret

00001ce4 <_Z21timer0_setClockSource12CLOCK_SOURCE>:
    1ce4:	e8 2f       	mov	r30, r24
    1ce6:	80 93 6c 05 	sts	0x056C, r24	; 0x80056c <_ZL2cs>
    1cea:	85 b5       	in	r24, 0x25	; 37
    1cec:	88 7f       	andi	r24, 0xF8	; 248
    1cee:	85 bd       	out	0x25, r24	; 37
    1cf0:	8e 2f       	mov	r24, r30
    1cf2:	90 e0       	ldi	r25, 0x00	; 0
    1cf4:	88 30       	cpi	r24, 0x08	; 8
    1cf6:	91 05       	cpc	r25, r1
    1cf8:	10 f5       	brcc	.+68     	; 0x1d3e <_Z21timer0_setClockSource12CLOCK_SOURCE+0x5a>
    1cfa:	fc 01       	movw	r30, r24
    1cfc:	ed 55       	subi	r30, 0x5D	; 93
    1cfe:	ff 4f       	sbci	r31, 0xFF	; 255
    1d00:	bc c3       	rjmp	.+1912   	; 0x247a <__tablejump2__>
    1d02:	85 b5       	in	r24, 0x25	; 37
    1d04:	85 bd       	out	0x25, r24	; 37
    1d06:	08 95       	ret
    1d08:	85 b5       	in	r24, 0x25	; 37
    1d0a:	81 60       	ori	r24, 0x01	; 1
    1d0c:	85 bd       	out	0x25, r24	; 37
    1d0e:	08 95       	ret
    1d10:	85 b5       	in	r24, 0x25	; 37
    1d12:	82 60       	ori	r24, 0x02	; 2
    1d14:	85 bd       	out	0x25, r24	; 37
    1d16:	08 95       	ret
    1d18:	85 b5       	in	r24, 0x25	; 37
    1d1a:	83 60       	ori	r24, 0x03	; 3
    1d1c:	85 bd       	out	0x25, r24	; 37
    1d1e:	08 95       	ret
    1d20:	85 b5       	in	r24, 0x25	; 37
    1d22:	84 60       	ori	r24, 0x04	; 4
    1d24:	85 bd       	out	0x25, r24	; 37
    1d26:	08 95       	ret
    1d28:	85 b5       	in	r24, 0x25	; 37
    1d2a:	85 60       	ori	r24, 0x05	; 5
    1d2c:	85 bd       	out	0x25, r24	; 37
    1d2e:	08 95       	ret
    1d30:	85 b5       	in	r24, 0x25	; 37
    1d32:	86 60       	ori	r24, 0x06	; 6
    1d34:	85 bd       	out	0x25, r24	; 37
    1d36:	08 95       	ret
    1d38:	85 b5       	in	r24, 0x25	; 37
    1d3a:	87 60       	ori	r24, 0x07	; 7
    1d3c:	85 bd       	out	0x25, r24	; 37
    1d3e:	08 95       	ret

00001d40 <_Z36timer0_disableTimerOverflowInterruptv>:
    1d40:	ee e6       	ldi	r30, 0x6E	; 110
    1d42:	f0 e0       	ldi	r31, 0x00	; 0
    1d44:	80 81       	ld	r24, Z
    1d46:	8e 7f       	andi	r24, 0xFE	; 254
    1d48:	80 83       	st	Z, r24
    1d4a:	08 95       	ret

00001d4c <__vector_25>:
    1d4c:	1f 92       	push	r1
    1d4e:	0f 92       	push	r0
    1d50:	0f b6       	in	r0, 0x3f	; 63
    1d52:	0f 92       	push	r0
    1d54:	11 24       	eor	r1, r1
    1d56:	0b b6       	in	r0, 0x3b	; 59
    1d58:	0f 92       	push	r0
    1d5a:	2f 93       	push	r18
    1d5c:	8f 93       	push	r24
    1d5e:	9f 93       	push	r25
    1d60:	ef 93       	push	r30
    1d62:	ff 93       	push	r31
    1d64:	80 91 c0 00 	lds	r24, 0x00C0	; 0x8000c0 <__TEXT_REGION_LENGTH__+0x7e00c0>
    1d68:	20 91 c6 00 	lds	r18, 0x00C6	; 0x8000c6 <__TEXT_REGION_LENGTH__+0x7e00c6>
    1d6c:	8c 71       	andi	r24, 0x1C	; 28
    1d6e:	e0 91 6f 05 	lds	r30, 0x056F	; 0x80056f <_ZL12receive_head>
    1d72:	ef 5f       	subi	r30, 0xFF	; 255
    1d74:	ef 71       	andi	r30, 0x1F	; 31
    1d76:	90 91 6e 05 	lds	r25, 0x056E	; 0x80056e <_ZL12receive_tail>
    1d7a:	e9 17       	cp	r30, r25
    1d7c:	39 f0       	breq	.+14     	; 0x1d8c <__vector_25+0x40>
    1d7e:	e0 93 6f 05 	sts	0x056F, r30	; 0x80056f <_ZL12receive_head>
    1d82:	f0 e0       	ldi	r31, 0x00	; 0
    1d84:	e0 59       	subi	r30, 0x90	; 144
    1d86:	fa 4f       	sbci	r31, 0xFA	; 250
    1d88:	20 83       	st	Z, r18
    1d8a:	01 c0       	rjmp	.+2      	; 0x1d8e <__vector_25+0x42>
    1d8c:	82 e0       	ldi	r24, 0x02	; 2
    1d8e:	90 91 6d 05 	lds	r25, 0x056D	; 0x80056d <_ZL18last_receive_error>
    1d92:	89 2b       	or	r24, r25
    1d94:	80 93 6d 05 	sts	0x056D, r24	; 0x80056d <_ZL18last_receive_error>
    1d98:	ff 91       	pop	r31
    1d9a:	ef 91       	pop	r30
    1d9c:	9f 91       	pop	r25
    1d9e:	8f 91       	pop	r24
    1da0:	2f 91       	pop	r18
    1da2:	0f 90       	pop	r0
    1da4:	0b be       	out	0x3b, r0	; 59
    1da6:	0f 90       	pop	r0
    1da8:	0f be       	out	0x3f, r0	; 63
    1daa:	0f 90       	pop	r0
    1dac:	1f 90       	pop	r1
    1dae:	18 95       	reti

00001db0 <__vector_26>:
    1db0:	1f 92       	push	r1
    1db2:	0f 92       	push	r0
    1db4:	0f b6       	in	r0, 0x3f	; 63
    1db6:	0f 92       	push	r0
    1db8:	11 24       	eor	r1, r1
    1dba:	0b b6       	in	r0, 0x3b	; 59
    1dbc:	0f 92       	push	r0
    1dbe:	8f 93       	push	r24
    1dc0:	9f 93       	push	r25
    1dc2:	ef 93       	push	r30
    1dc4:	ff 93       	push	r31
    1dc6:	90 91 91 05 	lds	r25, 0x0591	; 0x800591 <_ZL13transmit_head>
    1dca:	80 91 90 05 	lds	r24, 0x0590	; 0x800590 <_ZL13transmit_tail>
    1dce:	98 17       	cp	r25, r24
    1dd0:	69 f0       	breq	.+26     	; 0x1dec <__vector_26+0x3c>
    1dd2:	e0 91 90 05 	lds	r30, 0x0590	; 0x800590 <_ZL13transmit_tail>
    1dd6:	ef 5f       	subi	r30, 0xFF	; 255
    1dd8:	ef 71       	andi	r30, 0x1F	; 31
    1dda:	e0 93 90 05 	sts	0x0590, r30	; 0x800590 <_ZL13transmit_tail>
    1dde:	f0 e0       	ldi	r31, 0x00	; 0
    1de0:	ee 56       	subi	r30, 0x6E	; 110
    1de2:	fa 4f       	sbci	r31, 0xFA	; 250
    1de4:	80 81       	ld	r24, Z
    1de6:	80 93 c6 00 	sts	0x00C6, r24	; 0x8000c6 <__TEXT_REGION_LENGTH__+0x7e00c6>
    1dea:	05 c0       	rjmp	.+10     	; 0x1df6 <__vector_26+0x46>
    1dec:	e1 ec       	ldi	r30, 0xC1	; 193
    1dee:	f0 e0       	ldi	r31, 0x00	; 0
    1df0:	80 81       	ld	r24, Z
    1df2:	8f 7d       	andi	r24, 0xDF	; 223
    1df4:	80 83       	st	Z, r24
    1df6:	ff 91       	pop	r31
    1df8:	ef 91       	pop	r30
    1dfa:	9f 91       	pop	r25
    1dfc:	8f 91       	pop	r24
    1dfe:	0f 90       	pop	r0
    1e00:	0b be       	out	0x3b, r0	; 59
    1e02:	0f 90       	pop	r0
    1e04:	0f be       	out	0x3f, r0	; 63
    1e06:	0f 90       	pop	r0
    1e08:	1f 90       	pop	r1
    1e0a:	18 95       	reti

00001e0c <__vector_36>:
    1e0c:	1f 92       	push	r1
    1e0e:	0f 92       	push	r0
    1e10:	0f b6       	in	r0, 0x3f	; 63
    1e12:	0f 92       	push	r0
    1e14:	11 24       	eor	r1, r1
    1e16:	0b b6       	in	r0, 0x3b	; 59
    1e18:	0f 92       	push	r0
    1e1a:	2f 93       	push	r18
    1e1c:	8f 93       	push	r24
    1e1e:	9f 93       	push	r25
    1e20:	ef 93       	push	r30
    1e22:	ff 93       	push	r31
    1e24:	80 91 c8 00 	lds	r24, 0x00C8	; 0x8000c8 <__TEXT_REGION_LENGTH__+0x7e00c8>
    1e28:	20 91 ce 00 	lds	r18, 0x00CE	; 0x8000ce <__TEXT_REGION_LENGTH__+0x7e00ce>
    1e2c:	8c 71       	andi	r24, 0x1C	; 28
    1e2e:	e0 91 b4 05 	lds	r30, 0x05B4	; 0x8005b4 <_ZL12receive_head>
    1e32:	ef 5f       	subi	r30, 0xFF	; 255
    1e34:	90 91 b3 05 	lds	r25, 0x05B3	; 0x8005b3 <_ZL12receive_tail>
    1e38:	e9 17       	cp	r30, r25
    1e3a:	39 f0       	breq	.+14     	; 0x1e4a <__vector_36+0x3e>
    1e3c:	e0 93 b4 05 	sts	0x05B4, r30	; 0x8005b4 <_ZL12receive_head>
    1e40:	f0 e0       	ldi	r31, 0x00	; 0
    1e42:	eb 54       	subi	r30, 0x4B	; 75
    1e44:	fa 4f       	sbci	r31, 0xFA	; 250
    1e46:	20 83       	st	Z, r18
    1e48:	01 c0       	rjmp	.+2      	; 0x1e4c <__vector_36+0x40>
    1e4a:	82 e0       	ldi	r24, 0x02	; 2
    1e4c:	90 91 b2 05 	lds	r25, 0x05B2	; 0x8005b2 <_ZL18last_receive_error>
    1e50:	89 2b       	or	r24, r25
    1e52:	80 93 b2 05 	sts	0x05B2, r24	; 0x8005b2 <_ZL18last_receive_error>
    1e56:	ff 91       	pop	r31
    1e58:	ef 91       	pop	r30
    1e5a:	9f 91       	pop	r25
    1e5c:	8f 91       	pop	r24
    1e5e:	2f 91       	pop	r18
    1e60:	0f 90       	pop	r0
    1e62:	0b be       	out	0x3b, r0	; 59
    1e64:	0f 90       	pop	r0
    1e66:	0f be       	out	0x3f, r0	; 63
    1e68:	0f 90       	pop	r0
    1e6a:	1f 90       	pop	r1
    1e6c:	18 95       	reti

00001e6e <__vector_37>:
    1e6e:	1f 92       	push	r1
    1e70:	0f 92       	push	r0
    1e72:	0f b6       	in	r0, 0x3f	; 63
    1e74:	0f 92       	push	r0
    1e76:	11 24       	eor	r1, r1
    1e78:	0b b6       	in	r0, 0x3b	; 59
    1e7a:	0f 92       	push	r0
    1e7c:	8f 93       	push	r24
    1e7e:	9f 93       	push	r25
    1e80:	ef 93       	push	r30
    1e82:	ff 93       	push	r31
    1e84:	90 91 b6 06 	lds	r25, 0x06B6	; 0x8006b6 <_ZL13transmit_head>
    1e88:	80 91 b5 06 	lds	r24, 0x06B5	; 0x8006b5 <_ZL13transmit_tail>
    1e8c:	98 17       	cp	r25, r24
    1e8e:	61 f0       	breq	.+24     	; 0x1ea8 <__vector_37+0x3a>
    1e90:	e0 91 b5 06 	lds	r30, 0x06B5	; 0x8006b5 <_ZL13transmit_tail>
    1e94:	ef 5f       	subi	r30, 0xFF	; 255
    1e96:	e0 93 b5 06 	sts	0x06B5, r30	; 0x8006b5 <_ZL13transmit_tail>
    1e9a:	f0 e0       	ldi	r31, 0x00	; 0
    1e9c:	e9 54       	subi	r30, 0x49	; 73
    1e9e:	f9 4f       	sbci	r31, 0xF9	; 249
    1ea0:	80 81       	ld	r24, Z
    1ea2:	80 93 ce 00 	sts	0x00CE, r24	; 0x8000ce <__TEXT_REGION_LENGTH__+0x7e00ce>
    1ea6:	05 c0       	rjmp	.+10     	; 0x1eb2 <__vector_37+0x44>
    1ea8:	e9 ec       	ldi	r30, 0xC9	; 201
    1eaa:	f0 e0       	ldi	r31, 0x00	; 0
    1eac:	80 81       	ld	r24, Z
    1eae:	8f 7d       	andi	r24, 0xDF	; 223
    1eb0:	80 83       	st	Z, r24
    1eb2:	ff 91       	pop	r31
    1eb4:	ef 91       	pop	r30
    1eb6:	9f 91       	pop	r25
    1eb8:	8f 91       	pop	r24
    1eba:	0f 90       	pop	r0
    1ebc:	0b be       	out	0x3b, r0	; 59
    1ebe:	0f 90       	pop	r0
    1ec0:	0f be       	out	0x3f, r0	; 63
    1ec2:	0f 90       	pop	r0
    1ec4:	1f 90       	pop	r1
    1ec6:	18 95       	reti

00001ec8 <_Z16uart1_initializej>:
    1ec8:	10 92 b6 06 	sts	0x06B6, r1	; 0x8006b6 <_ZL13transmit_head>
    1ecc:	10 92 b5 06 	sts	0x06B5, r1	; 0x8006b5 <_ZL13transmit_tail>
    1ed0:	10 92 b4 05 	sts	0x05B4, r1	; 0x8005b4 <_ZL12receive_head>
    1ed4:	10 92 b3 05 	sts	0x05B3, r1	; 0x8005b3 <_ZL12receive_tail>
    1ed8:	90 78       	andi	r25, 0x80	; 128
    1eda:	90 93 cd 00 	sts	0x00CD, r25	; 0x8000cd <__TEXT_REGION_LENGTH__+0x7e00cd>
    1ede:	80 93 cc 00 	sts	0x00CC, r24	; 0x8000cc <__TEXT_REGION_LENGTH__+0x7e00cc>
    1ee2:	88 e9       	ldi	r24, 0x98	; 152
    1ee4:	80 93 c9 00 	sts	0x00C9, r24	; 0x8000c9 <__TEXT_REGION_LENGTH__+0x7e00c9>
    1ee8:	86 e0       	ldi	r24, 0x06	; 6
    1eea:	80 93 ca 00 	sts	0x00CA, r24	; 0x8000ca <__TEXT_REGION_LENGTH__+0x7e00ca>
    1eee:	08 95       	ret

00001ef0 <_Z15uart1_read_bytev>:
    1ef0:	90 91 b4 05 	lds	r25, 0x05B4	; 0x8005b4 <_ZL12receive_head>
    1ef4:	80 91 b3 05 	lds	r24, 0x05B3	; 0x8005b3 <_ZL12receive_tail>
    1ef8:	98 17       	cp	r25, r24
    1efa:	a1 f0       	breq	.+40     	; 0x1f24 <_Z15uart1_read_bytev+0x34>
    1efc:	80 91 b3 05 	lds	r24, 0x05B3	; 0x8005b3 <_ZL12receive_tail>
    1f00:	8f 5f       	subi	r24, 0xFF	; 255
    1f02:	e8 2f       	mov	r30, r24
    1f04:	f0 e0       	ldi	r31, 0x00	; 0
    1f06:	eb 54       	subi	r30, 0x4B	; 75
    1f08:	fa 4f       	sbci	r31, 0xFA	; 250
    1f0a:	20 81       	ld	r18, Z
    1f0c:	80 93 b3 05 	sts	0x05B3, r24	; 0x8005b3 <_ZL12receive_tail>
    1f10:	80 91 b2 05 	lds	r24, 0x05B2	; 0x8005b2 <_ZL18last_receive_error>
    1f14:	10 92 b2 05 	sts	0x05B2, r1	; 0x8005b2 <_ZL18last_receive_error>
    1f18:	90 e0       	ldi	r25, 0x00	; 0
    1f1a:	98 2f       	mov	r25, r24
    1f1c:	88 27       	eor	r24, r24
    1f1e:	82 0f       	add	r24, r18
    1f20:	91 1d       	adc	r25, r1
    1f22:	08 95       	ret
    1f24:	80 e0       	ldi	r24, 0x00	; 0
    1f26:	91 e0       	ldi	r25, 0x01	; 1
    1f28:	08 95       	ret

00001f2a <_Z15uart1_send_byteh>:
    1f2a:	20 91 b6 06 	lds	r18, 0x06B6	; 0x8006b6 <_ZL13transmit_head>
    1f2e:	2f 5f       	subi	r18, 0xFF	; 255
    1f30:	90 91 b5 06 	lds	r25, 0x06B5	; 0x8006b5 <_ZL13transmit_tail>
    1f34:	29 17       	cp	r18, r25
    1f36:	e1 f3       	breq	.-8      	; 0x1f30 <_Z15uart1_send_byteh+0x6>
    1f38:	e2 2f       	mov	r30, r18
    1f3a:	f0 e0       	ldi	r31, 0x00	; 0
    1f3c:	e9 54       	subi	r30, 0x49	; 73
    1f3e:	f9 4f       	sbci	r31, 0xF9	; 249
    1f40:	80 83       	st	Z, r24
    1f42:	20 93 b6 06 	sts	0x06B6, r18	; 0x8006b6 <_ZL13transmit_head>
    1f46:	e9 ec       	ldi	r30, 0xC9	; 201
    1f48:	f0 e0       	ldi	r31, 0x00	; 0
    1f4a:	80 81       	ld	r24, Z
    1f4c:	80 62       	ori	r24, 0x20	; 32
    1f4e:	80 83       	st	Z, r24
    1f50:	08 95       	ret

00001f52 <__vector_51>:
static volatile uint8_t last_receive_error;

/*------------------------ Interrupt Service Routines ------------------------*/

ISR (UART2_RECEIVE_INTERRUPT)
{
    1f52:	1f 92       	push	r1
    1f54:	0f 92       	push	r0
    1f56:	0f b6       	in	r0, 0x3f	; 63
    1f58:	0f 92       	push	r0
    1f5a:	11 24       	eor	r1, r1
    1f5c:	0b b6       	in	r0, 0x3b	; 59
    1f5e:	0f 92       	push	r0
    1f60:	2f 93       	push	r18
    1f62:	8f 93       	push	r24
    1f64:	9f 93       	push	r25
    1f66:	ef 93       	push	r30
    1f68:	ff 93       	push	r31
	uint8_t new_head, data, status, error;
	status = UART2_STATUS;
    1f6a:	80 91 d0 00 	lds	r24, 0x00D0	; 0x8000d0 <__TEXT_REGION_LENGTH__+0x7e00d0>
	data = UART2_DATA;
    1f6e:	20 91 d6 00 	lds	r18, 0x00D6	; 0x8000d6 <__TEXT_REGION_LENGTH__+0x7e00d6>

	// detect frame error, data overrun, or parity error
	error = status & ((1 << FE2) | (1 << DOR2)| (1 << UPE2));
    1f72:	8c 71       	andi	r24, 0x1C	; 28

	new_head = (receive_head + 1) & UART2_BUFFER_MASK;
    1f74:	e0 91 b9 07 	lds	r30, 0x07B9	; 0x8007b9 <_ZL12receive_head>
    1f78:	ef 5f       	subi	r30, 0xFF	; 255
    1f7a:	ef 71       	andi	r30, 0x1F	; 31
	if (new_head == receive_tail)
    1f7c:	90 91 b8 07 	lds	r25, 0x07B8	; 0x8007b8 <_ZL12receive_tail>
    1f80:	e9 17       	cp	r30, r25
    1f82:	39 f0       	breq	.+14     	; 0x1f92 <__vector_51+0x40>
		error = UART2_BUFFER_OVERFLOW >> 8;
	else
	{
		receive_head = new_head;
    1f84:	e0 93 b9 07 	sts	0x07B9, r30	; 0x8007b9 <_ZL12receive_head>
		receive_buffer[new_head] = data;
    1f88:	f0 e0       	ldi	r31, 0x00	; 0
    1f8a:	e6 54       	subi	r30, 0x46	; 70
    1f8c:	f8 4f       	sbci	r31, 0xF8	; 248
    1f8e:	20 83       	st	Z, r18
    1f90:	01 c0       	rjmp	.+2      	; 0x1f94 <__vector_51+0x42>
	// detect frame error, data overrun, or parity error
	error = status & ((1 << FE2) | (1 << DOR2)| (1 << UPE2));

	new_head = (receive_head + 1) & UART2_BUFFER_MASK;
	if (new_head == receive_tail)
		error = UART2_BUFFER_OVERFLOW >> 8;
    1f92:	82 e0       	ldi	r24, 0x02	; 2
	else
	{
		receive_head = new_head;
		receive_buffer[new_head] = data;
	}
	last_receive_error |= error;
    1f94:	90 91 b7 07 	lds	r25, 0x07B7	; 0x8007b7 <_ZL18last_receive_error>
    1f98:	89 2b       	or	r24, r25
    1f9a:	80 93 b7 07 	sts	0x07B7, r24	; 0x8007b7 <_ZL18last_receive_error>
}
    1f9e:	ff 91       	pop	r31
    1fa0:	ef 91       	pop	r30
    1fa2:	9f 91       	pop	r25
    1fa4:	8f 91       	pop	r24
    1fa6:	2f 91       	pop	r18
    1fa8:	0f 90       	pop	r0
    1faa:	0b be       	out	0x3b, r0	; 59
    1fac:	0f 90       	pop	r0
    1fae:	0f be       	out	0x3f, r0	; 63
    1fb0:	0f 90       	pop	r0
    1fb2:	1f 90       	pop	r1
    1fb4:	18 95       	reti

00001fb6 <__vector_52>:

ISR (UART2_TRANSMIT_INTERRUPT)
{
    1fb6:	1f 92       	push	r1
    1fb8:	0f 92       	push	r0
    1fba:	0f b6       	in	r0, 0x3f	; 63
    1fbc:	0f 92       	push	r0
    1fbe:	11 24       	eor	r1, r1
    1fc0:	0b b6       	in	r0, 0x3b	; 59
    1fc2:	0f 92       	push	r0
    1fc4:	8f 93       	push	r24
    1fc6:	9f 93       	push	r25
    1fc8:	ef 93       	push	r30
    1fca:	ff 93       	push	r31
	uint8_t new_tail;
	if (transmit_head != transmit_tail)
    1fcc:	90 91 db 07 	lds	r25, 0x07DB	; 0x8007db <_ZL13transmit_head>
    1fd0:	80 91 da 07 	lds	r24, 0x07DA	; 0x8007da <_ZL13transmit_tail>
    1fd4:	98 17       	cp	r25, r24
    1fd6:	69 f0       	breq	.+26     	; 0x1ff2 <__vector_52+0x3c>
	{
		new_tail = (transmit_tail + 1) & UART2_BUFFER_MASK;
    1fd8:	e0 91 da 07 	lds	r30, 0x07DA	; 0x8007da <_ZL13transmit_tail>
    1fdc:	ef 5f       	subi	r30, 0xFF	; 255
    1fde:	ef 71       	andi	r30, 0x1F	; 31
		transmit_tail = new_tail;
    1fe0:	e0 93 da 07 	sts	0x07DA, r30	; 0x8007da <_ZL13transmit_tail>
		UART2_DATA = transmit_buffer[new_tail]; // transmit
    1fe4:	f0 e0       	ldi	r31, 0x00	; 0
    1fe6:	e4 52       	subi	r30, 0x24	; 36
    1fe8:	f8 4f       	sbci	r31, 0xF8	; 248
    1fea:	80 81       	ld	r24, Z
    1fec:	80 93 d6 00 	sts	0x00D6, r24	; 0x8000d6 <__TEXT_REGION_LENGTH__+0x7e00d6>
    1ff0:	05 c0       	rjmp	.+10     	; 0x1ffc <__vector_52+0x46>
	}
	else
		UART2_CONTROL_B &= ~(1 << UDRIE2); // buffer empty so end transmission
    1ff2:	e1 ed       	ldi	r30, 0xD1	; 209
    1ff4:	f0 e0       	ldi	r31, 0x00	; 0
    1ff6:	80 81       	ld	r24, Z
    1ff8:	8f 7d       	andi	r24, 0xDF	; 223
    1ffa:	80 83       	st	Z, r24
}
    1ffc:	ff 91       	pop	r31
    1ffe:	ef 91       	pop	r30
    2000:	9f 91       	pop	r25
    2002:	8f 91       	pop	r24
    2004:	0f 90       	pop	r0
    2006:	0b be       	out	0x3b, r0	; 59
    2008:	0f 90       	pop	r0
    200a:	0f be       	out	0x3f, r0	; 63
    200c:	0f 90       	pop	r0
    200e:	1f 90       	pop	r1
    2010:	18 95       	reti

00002012 <__vector_54>:
    2012:	1f 92       	push	r1
    2014:	0f 92       	push	r0
    2016:	0f b6       	in	r0, 0x3f	; 63
    2018:	0f 92       	push	r0
    201a:	11 24       	eor	r1, r1
    201c:	0b b6       	in	r0, 0x3b	; 59
    201e:	0f 92       	push	r0
    2020:	2f 93       	push	r18
    2022:	8f 93       	push	r24
    2024:	9f 93       	push	r25
    2026:	ef 93       	push	r30
    2028:	ff 93       	push	r31
    202a:	80 91 30 01 	lds	r24, 0x0130	; 0x800130 <__DATA_REGION_ORIGIN__+0x30>
    202e:	20 91 36 01 	lds	r18, 0x0136	; 0x800136 <__DATA_REGION_ORIGIN__+0x36>
    2032:	8c 71       	andi	r24, 0x1C	; 28
    2034:	e0 91 fe 07 	lds	r30, 0x07FE	; 0x8007fe <_ZL12receive_head>
    2038:	ef 5f       	subi	r30, 0xFF	; 255
    203a:	ef 71       	andi	r30, 0x1F	; 31
    203c:	90 91 fd 07 	lds	r25, 0x07FD	; 0x8007fd <_ZL12receive_tail>
    2040:	e9 17       	cp	r30, r25
    2042:	39 f0       	breq	.+14     	; 0x2052 <__vector_54+0x40>
    2044:	e0 93 fe 07 	sts	0x07FE, r30	; 0x8007fe <_ZL12receive_head>
    2048:	f0 e0       	ldi	r31, 0x00	; 0
    204a:	e1 50       	subi	r30, 0x01	; 1
    204c:	f8 4f       	sbci	r31, 0xF8	; 248
    204e:	20 83       	st	Z, r18
    2050:	01 c0       	rjmp	.+2      	; 0x2054 <__vector_54+0x42>
    2052:	82 e0       	ldi	r24, 0x02	; 2
    2054:	90 91 fc 07 	lds	r25, 0x07FC	; 0x8007fc <_ZL18last_receive_error>
    2058:	89 2b       	or	r24, r25
    205a:	80 93 fc 07 	sts	0x07FC, r24	; 0x8007fc <_ZL18last_receive_error>
    205e:	ff 91       	pop	r31
    2060:	ef 91       	pop	r30
    2062:	9f 91       	pop	r25
    2064:	8f 91       	pop	r24
    2066:	2f 91       	pop	r18
    2068:	0f 90       	pop	r0
    206a:	0b be       	out	0x3b, r0	; 59
    206c:	0f 90       	pop	r0
    206e:	0f be       	out	0x3f, r0	; 63
    2070:	0f 90       	pop	r0
    2072:	1f 90       	pop	r1
    2074:	18 95       	reti

00002076 <__vector_55>:
    2076:	1f 92       	push	r1
    2078:	0f 92       	push	r0
    207a:	0f b6       	in	r0, 0x3f	; 63
    207c:	0f 92       	push	r0
    207e:	11 24       	eor	r1, r1
    2080:	0b b6       	in	r0, 0x3b	; 59
    2082:	0f 92       	push	r0
    2084:	8f 93       	push	r24
    2086:	9f 93       	push	r25
    2088:	ef 93       	push	r30
    208a:	ff 93       	push	r31
    208c:	90 91 20 08 	lds	r25, 0x0820	; 0x800820 <_ZL13transmit_head>
    2090:	80 91 1f 08 	lds	r24, 0x081F	; 0x80081f <_ZL13transmit_tail>
    2094:	98 17       	cp	r25, r24
    2096:	69 f0       	breq	.+26     	; 0x20b2 <__vector_55+0x3c>
    2098:	e0 91 1f 08 	lds	r30, 0x081F	; 0x80081f <_ZL13transmit_tail>
    209c:	ef 5f       	subi	r30, 0xFF	; 255
    209e:	ef 71       	andi	r30, 0x1F	; 31
    20a0:	e0 93 1f 08 	sts	0x081F, r30	; 0x80081f <_ZL13transmit_tail>
    20a4:	f0 e0       	ldi	r31, 0x00	; 0
    20a6:	ef 5d       	subi	r30, 0xDF	; 223
    20a8:	f7 4f       	sbci	r31, 0xF7	; 247
    20aa:	80 81       	ld	r24, Z
    20ac:	80 93 36 01 	sts	0x0136, r24	; 0x800136 <__DATA_REGION_ORIGIN__+0x36>
    20b0:	05 c0       	rjmp	.+10     	; 0x20bc <__vector_55+0x46>
    20b2:	e1 e3       	ldi	r30, 0x31	; 49
    20b4:	f1 e0       	ldi	r31, 0x01	; 1
    20b6:	80 81       	ld	r24, Z
    20b8:	8f 7d       	andi	r24, 0xDF	; 223
    20ba:	80 83       	st	Z, r24
    20bc:	ff 91       	pop	r31
    20be:	ef 91       	pop	r30
    20c0:	9f 91       	pop	r25
    20c2:	8f 91       	pop	r24
    20c4:	0f 90       	pop	r0
    20c6:	0b be       	out	0x3b, r0	; 59
    20c8:	0f 90       	pop	r0
    20ca:	0f be       	out	0x3f, r0	; 63
    20cc:	0f 90       	pop	r0
    20ce:	1f 90       	pop	r1
    20d0:	18 95       	reti

000020d2 <__subsf3>:
    20d2:	50 58       	subi	r21, 0x80	; 128

000020d4 <__addsf3>:
    20d4:	bb 27       	eor	r27, r27
    20d6:	aa 27       	eor	r26, r26
    20d8:	0e d0       	rcall	.+28     	; 0x20f6 <__addsf3x>
    20da:	e5 c0       	rjmp	.+458    	; 0x22a6 <__fp_round>
    20dc:	d6 d0       	rcall	.+428    	; 0x228a <__fp_pscA>
    20de:	30 f0       	brcs	.+12     	; 0x20ec <__addsf3+0x18>
    20e0:	db d0       	rcall	.+438    	; 0x2298 <__fp_pscB>
    20e2:	20 f0       	brcs	.+8      	; 0x20ec <__addsf3+0x18>
    20e4:	31 f4       	brne	.+12     	; 0x20f2 <__addsf3+0x1e>
    20e6:	9f 3f       	cpi	r25, 0xFF	; 255
    20e8:	11 f4       	brne	.+4      	; 0x20ee <__addsf3+0x1a>
    20ea:	1e f4       	brtc	.+6      	; 0x20f2 <__addsf3+0x1e>
    20ec:	cb c0       	rjmp	.+406    	; 0x2284 <__fp_nan>
    20ee:	0e f4       	brtc	.+2      	; 0x20f2 <__addsf3+0x1e>
    20f0:	e0 95       	com	r30
    20f2:	e7 fb       	bst	r30, 7
    20f4:	c1 c0       	rjmp	.+386    	; 0x2278 <__fp_inf>

000020f6 <__addsf3x>:
    20f6:	e9 2f       	mov	r30, r25
    20f8:	e7 d0       	rcall	.+462    	; 0x22c8 <__fp_split3>
    20fa:	80 f3       	brcs	.-32     	; 0x20dc <__addsf3+0x8>
    20fc:	ba 17       	cp	r27, r26
    20fe:	62 07       	cpc	r22, r18
    2100:	73 07       	cpc	r23, r19
    2102:	84 07       	cpc	r24, r20
    2104:	95 07       	cpc	r25, r21
    2106:	18 f0       	brcs	.+6      	; 0x210e <__addsf3x+0x18>
    2108:	71 f4       	brne	.+28     	; 0x2126 <__addsf3x+0x30>
    210a:	9e f5       	brtc	.+102    	; 0x2172 <__addsf3x+0x7c>
    210c:	ff c0       	rjmp	.+510    	; 0x230c <__fp_zero>
    210e:	0e f4       	brtc	.+2      	; 0x2112 <__addsf3x+0x1c>
    2110:	e0 95       	com	r30
    2112:	0b 2e       	mov	r0, r27
    2114:	ba 2f       	mov	r27, r26
    2116:	a0 2d       	mov	r26, r0
    2118:	0b 01       	movw	r0, r22
    211a:	b9 01       	movw	r22, r18
    211c:	90 01       	movw	r18, r0
    211e:	0c 01       	movw	r0, r24
    2120:	ca 01       	movw	r24, r20
    2122:	a0 01       	movw	r20, r0
    2124:	11 24       	eor	r1, r1
    2126:	ff 27       	eor	r31, r31
    2128:	59 1b       	sub	r21, r25
    212a:	99 f0       	breq	.+38     	; 0x2152 <__addsf3x+0x5c>
    212c:	59 3f       	cpi	r21, 0xF9	; 249
    212e:	50 f4       	brcc	.+20     	; 0x2144 <__addsf3x+0x4e>
    2130:	50 3e       	cpi	r21, 0xE0	; 224
    2132:	68 f1       	brcs	.+90     	; 0x218e <__addsf3x+0x98>
    2134:	1a 16       	cp	r1, r26
    2136:	f0 40       	sbci	r31, 0x00	; 0
    2138:	a2 2f       	mov	r26, r18
    213a:	23 2f       	mov	r18, r19
    213c:	34 2f       	mov	r19, r20
    213e:	44 27       	eor	r20, r20
    2140:	58 5f       	subi	r21, 0xF8	; 248
    2142:	f3 cf       	rjmp	.-26     	; 0x212a <__addsf3x+0x34>
    2144:	46 95       	lsr	r20
    2146:	37 95       	ror	r19
    2148:	27 95       	ror	r18
    214a:	a7 95       	ror	r26
    214c:	f0 40       	sbci	r31, 0x00	; 0
    214e:	53 95       	inc	r21
    2150:	c9 f7       	brne	.-14     	; 0x2144 <__addsf3x+0x4e>
    2152:	7e f4       	brtc	.+30     	; 0x2172 <__addsf3x+0x7c>
    2154:	1f 16       	cp	r1, r31
    2156:	ba 0b       	sbc	r27, r26
    2158:	62 0b       	sbc	r22, r18
    215a:	73 0b       	sbc	r23, r19
    215c:	84 0b       	sbc	r24, r20
    215e:	ba f0       	brmi	.+46     	; 0x218e <__addsf3x+0x98>
    2160:	91 50       	subi	r25, 0x01	; 1
    2162:	a1 f0       	breq	.+40     	; 0x218c <__addsf3x+0x96>
    2164:	ff 0f       	add	r31, r31
    2166:	bb 1f       	adc	r27, r27
    2168:	66 1f       	adc	r22, r22
    216a:	77 1f       	adc	r23, r23
    216c:	88 1f       	adc	r24, r24
    216e:	c2 f7       	brpl	.-16     	; 0x2160 <__addsf3x+0x6a>
    2170:	0e c0       	rjmp	.+28     	; 0x218e <__addsf3x+0x98>
    2172:	ba 0f       	add	r27, r26
    2174:	62 1f       	adc	r22, r18
    2176:	73 1f       	adc	r23, r19
    2178:	84 1f       	adc	r24, r20
    217a:	48 f4       	brcc	.+18     	; 0x218e <__addsf3x+0x98>
    217c:	87 95       	ror	r24
    217e:	77 95       	ror	r23
    2180:	67 95       	ror	r22
    2182:	b7 95       	ror	r27
    2184:	f7 95       	ror	r31
    2186:	9e 3f       	cpi	r25, 0xFE	; 254
    2188:	08 f0       	brcs	.+2      	; 0x218c <__addsf3x+0x96>
    218a:	b3 cf       	rjmp	.-154    	; 0x20f2 <__addsf3+0x1e>
    218c:	93 95       	inc	r25
    218e:	88 0f       	add	r24, r24
    2190:	08 f0       	brcs	.+2      	; 0x2194 <__addsf3x+0x9e>
    2192:	99 27       	eor	r25, r25
    2194:	ee 0f       	add	r30, r30
    2196:	97 95       	ror	r25
    2198:	87 95       	ror	r24
    219a:	08 95       	ret

0000219c <__fixsfsi>:
    219c:	04 d0       	rcall	.+8      	; 0x21a6 <__fixunssfsi>
    219e:	68 94       	set
    21a0:	b1 11       	cpse	r27, r1
    21a2:	b5 c0       	rjmp	.+362    	; 0x230e <__fp_szero>
    21a4:	08 95       	ret

000021a6 <__fixunssfsi>:
    21a6:	98 d0       	rcall	.+304    	; 0x22d8 <__fp_splitA>
    21a8:	88 f0       	brcs	.+34     	; 0x21cc <__fixunssfsi+0x26>
    21aa:	9f 57       	subi	r25, 0x7F	; 127
    21ac:	90 f0       	brcs	.+36     	; 0x21d2 <__fixunssfsi+0x2c>
    21ae:	b9 2f       	mov	r27, r25
    21b0:	99 27       	eor	r25, r25
    21b2:	b7 51       	subi	r27, 0x17	; 23
    21b4:	a0 f0       	brcs	.+40     	; 0x21de <__fixunssfsi+0x38>
    21b6:	d1 f0       	breq	.+52     	; 0x21ec <__fixunssfsi+0x46>
    21b8:	66 0f       	add	r22, r22
    21ba:	77 1f       	adc	r23, r23
    21bc:	88 1f       	adc	r24, r24
    21be:	99 1f       	adc	r25, r25
    21c0:	1a f0       	brmi	.+6      	; 0x21c8 <__fixunssfsi+0x22>
    21c2:	ba 95       	dec	r27
    21c4:	c9 f7       	brne	.-14     	; 0x21b8 <__fixunssfsi+0x12>
    21c6:	12 c0       	rjmp	.+36     	; 0x21ec <__fixunssfsi+0x46>
    21c8:	b1 30       	cpi	r27, 0x01	; 1
    21ca:	81 f0       	breq	.+32     	; 0x21ec <__fixunssfsi+0x46>
    21cc:	9f d0       	rcall	.+318    	; 0x230c <__fp_zero>
    21ce:	b1 e0       	ldi	r27, 0x01	; 1
    21d0:	08 95       	ret
    21d2:	9c c0       	rjmp	.+312    	; 0x230c <__fp_zero>
    21d4:	67 2f       	mov	r22, r23
    21d6:	78 2f       	mov	r23, r24
    21d8:	88 27       	eor	r24, r24
    21da:	b8 5f       	subi	r27, 0xF8	; 248
    21dc:	39 f0       	breq	.+14     	; 0x21ec <__fixunssfsi+0x46>
    21de:	b9 3f       	cpi	r27, 0xF9	; 249
    21e0:	cc f3       	brlt	.-14     	; 0x21d4 <__fixunssfsi+0x2e>
    21e2:	86 95       	lsr	r24
    21e4:	77 95       	ror	r23
    21e6:	67 95       	ror	r22
    21e8:	b3 95       	inc	r27
    21ea:	d9 f7       	brne	.-10     	; 0x21e2 <__fixunssfsi+0x3c>
    21ec:	3e f4       	brtc	.+14     	; 0x21fc <__fixunssfsi+0x56>
    21ee:	90 95       	com	r25
    21f0:	80 95       	com	r24
    21f2:	70 95       	com	r23
    21f4:	61 95       	neg	r22
    21f6:	7f 4f       	sbci	r23, 0xFF	; 255
    21f8:	8f 4f       	sbci	r24, 0xFF	; 255
    21fa:	9f 4f       	sbci	r25, 0xFF	; 255
    21fc:	08 95       	ret

000021fe <__floatunsisf>:
    21fe:	e8 94       	clt
    2200:	09 c0       	rjmp	.+18     	; 0x2214 <__floatsisf+0x12>

00002202 <__floatsisf>:
    2202:	97 fb       	bst	r25, 7
    2204:	3e f4       	brtc	.+14     	; 0x2214 <__floatsisf+0x12>
    2206:	90 95       	com	r25
    2208:	80 95       	com	r24
    220a:	70 95       	com	r23
    220c:	61 95       	neg	r22
    220e:	7f 4f       	sbci	r23, 0xFF	; 255
    2210:	8f 4f       	sbci	r24, 0xFF	; 255
    2212:	9f 4f       	sbci	r25, 0xFF	; 255
    2214:	99 23       	and	r25, r25
    2216:	a9 f0       	breq	.+42     	; 0x2242 <__floatsisf+0x40>
    2218:	f9 2f       	mov	r31, r25
    221a:	96 e9       	ldi	r25, 0x96	; 150
    221c:	bb 27       	eor	r27, r27
    221e:	93 95       	inc	r25
    2220:	f6 95       	lsr	r31
    2222:	87 95       	ror	r24
    2224:	77 95       	ror	r23
    2226:	67 95       	ror	r22
    2228:	b7 95       	ror	r27
    222a:	f1 11       	cpse	r31, r1
    222c:	f8 cf       	rjmp	.-16     	; 0x221e <__floatsisf+0x1c>
    222e:	fa f4       	brpl	.+62     	; 0x226e <__floatsisf+0x6c>
    2230:	bb 0f       	add	r27, r27
    2232:	11 f4       	brne	.+4      	; 0x2238 <__floatsisf+0x36>
    2234:	60 ff       	sbrs	r22, 0
    2236:	1b c0       	rjmp	.+54     	; 0x226e <__floatsisf+0x6c>
    2238:	6f 5f       	subi	r22, 0xFF	; 255
    223a:	7f 4f       	sbci	r23, 0xFF	; 255
    223c:	8f 4f       	sbci	r24, 0xFF	; 255
    223e:	9f 4f       	sbci	r25, 0xFF	; 255
    2240:	16 c0       	rjmp	.+44     	; 0x226e <__floatsisf+0x6c>
    2242:	88 23       	and	r24, r24
    2244:	11 f0       	breq	.+4      	; 0x224a <__floatsisf+0x48>
    2246:	96 e9       	ldi	r25, 0x96	; 150
    2248:	11 c0       	rjmp	.+34     	; 0x226c <__floatsisf+0x6a>
    224a:	77 23       	and	r23, r23
    224c:	21 f0       	breq	.+8      	; 0x2256 <__floatsisf+0x54>
    224e:	9e e8       	ldi	r25, 0x8E	; 142
    2250:	87 2f       	mov	r24, r23
    2252:	76 2f       	mov	r23, r22
    2254:	05 c0       	rjmp	.+10     	; 0x2260 <__floatsisf+0x5e>
    2256:	66 23       	and	r22, r22
    2258:	71 f0       	breq	.+28     	; 0x2276 <__floatsisf+0x74>
    225a:	96 e8       	ldi	r25, 0x86	; 134
    225c:	86 2f       	mov	r24, r22
    225e:	70 e0       	ldi	r23, 0x00	; 0
    2260:	60 e0       	ldi	r22, 0x00	; 0
    2262:	2a f0       	brmi	.+10     	; 0x226e <__floatsisf+0x6c>
    2264:	9a 95       	dec	r25
    2266:	66 0f       	add	r22, r22
    2268:	77 1f       	adc	r23, r23
    226a:	88 1f       	adc	r24, r24
    226c:	da f7       	brpl	.-10     	; 0x2264 <__floatsisf+0x62>
    226e:	88 0f       	add	r24, r24
    2270:	96 95       	lsr	r25
    2272:	87 95       	ror	r24
    2274:	97 f9       	bld	r25, 7
    2276:	08 95       	ret

00002278 <__fp_inf>:
    2278:	97 f9       	bld	r25, 7
    227a:	9f 67       	ori	r25, 0x7F	; 127
    227c:	80 e8       	ldi	r24, 0x80	; 128
    227e:	70 e0       	ldi	r23, 0x00	; 0
    2280:	60 e0       	ldi	r22, 0x00	; 0
    2282:	08 95       	ret

00002284 <__fp_nan>:
    2284:	9f ef       	ldi	r25, 0xFF	; 255
    2286:	80 ec       	ldi	r24, 0xC0	; 192
    2288:	08 95       	ret

0000228a <__fp_pscA>:
    228a:	00 24       	eor	r0, r0
    228c:	0a 94       	dec	r0
    228e:	16 16       	cp	r1, r22
    2290:	17 06       	cpc	r1, r23
    2292:	18 06       	cpc	r1, r24
    2294:	09 06       	cpc	r0, r25
    2296:	08 95       	ret

00002298 <__fp_pscB>:
    2298:	00 24       	eor	r0, r0
    229a:	0a 94       	dec	r0
    229c:	12 16       	cp	r1, r18
    229e:	13 06       	cpc	r1, r19
    22a0:	14 06       	cpc	r1, r20
    22a2:	05 06       	cpc	r0, r21
    22a4:	08 95       	ret

000022a6 <__fp_round>:
    22a6:	09 2e       	mov	r0, r25
    22a8:	03 94       	inc	r0
    22aa:	00 0c       	add	r0, r0
    22ac:	11 f4       	brne	.+4      	; 0x22b2 <__fp_round+0xc>
    22ae:	88 23       	and	r24, r24
    22b0:	52 f0       	brmi	.+20     	; 0x22c6 <__fp_round+0x20>
    22b2:	bb 0f       	add	r27, r27
    22b4:	40 f4       	brcc	.+16     	; 0x22c6 <__fp_round+0x20>
    22b6:	bf 2b       	or	r27, r31
    22b8:	11 f4       	brne	.+4      	; 0x22be <__fp_round+0x18>
    22ba:	60 ff       	sbrs	r22, 0
    22bc:	04 c0       	rjmp	.+8      	; 0x22c6 <__fp_round+0x20>
    22be:	6f 5f       	subi	r22, 0xFF	; 255
    22c0:	7f 4f       	sbci	r23, 0xFF	; 255
    22c2:	8f 4f       	sbci	r24, 0xFF	; 255
    22c4:	9f 4f       	sbci	r25, 0xFF	; 255
    22c6:	08 95       	ret

000022c8 <__fp_split3>:
    22c8:	57 fd       	sbrc	r21, 7
    22ca:	90 58       	subi	r25, 0x80	; 128
    22cc:	44 0f       	add	r20, r20
    22ce:	55 1f       	adc	r21, r21
    22d0:	59 f0       	breq	.+22     	; 0x22e8 <__fp_splitA+0x10>
    22d2:	5f 3f       	cpi	r21, 0xFF	; 255
    22d4:	71 f0       	breq	.+28     	; 0x22f2 <__fp_splitA+0x1a>
    22d6:	47 95       	ror	r20

000022d8 <__fp_splitA>:
    22d8:	88 0f       	add	r24, r24
    22da:	97 fb       	bst	r25, 7
    22dc:	99 1f       	adc	r25, r25
    22de:	61 f0       	breq	.+24     	; 0x22f8 <__fp_splitA+0x20>
    22e0:	9f 3f       	cpi	r25, 0xFF	; 255
    22e2:	79 f0       	breq	.+30     	; 0x2302 <__fp_splitA+0x2a>
    22e4:	87 95       	ror	r24
    22e6:	08 95       	ret
    22e8:	12 16       	cp	r1, r18
    22ea:	13 06       	cpc	r1, r19
    22ec:	14 06       	cpc	r1, r20
    22ee:	55 1f       	adc	r21, r21
    22f0:	f2 cf       	rjmp	.-28     	; 0x22d6 <__fp_split3+0xe>
    22f2:	46 95       	lsr	r20
    22f4:	f1 df       	rcall	.-30     	; 0x22d8 <__fp_splitA>
    22f6:	08 c0       	rjmp	.+16     	; 0x2308 <__fp_splitA+0x30>
    22f8:	16 16       	cp	r1, r22
    22fa:	17 06       	cpc	r1, r23
    22fc:	18 06       	cpc	r1, r24
    22fe:	99 1f       	adc	r25, r25
    2300:	f1 cf       	rjmp	.-30     	; 0x22e4 <__fp_splitA+0xc>
    2302:	86 95       	lsr	r24
    2304:	71 05       	cpc	r23, r1
    2306:	61 05       	cpc	r22, r1
    2308:	08 94       	sec
    230a:	08 95       	ret

0000230c <__fp_zero>:
    230c:	e8 94       	clt

0000230e <__fp_szero>:
    230e:	bb 27       	eor	r27, r27
    2310:	66 27       	eor	r22, r22
    2312:	77 27       	eor	r23, r23
    2314:	cb 01       	movw	r24, r22
    2316:	97 f9       	bld	r25, 7
    2318:	08 95       	ret

0000231a <__mulsf3>:
    231a:	0b d0       	rcall	.+22     	; 0x2332 <__mulsf3x>
    231c:	c4 cf       	rjmp	.-120    	; 0x22a6 <__fp_round>
    231e:	b5 df       	rcall	.-150    	; 0x228a <__fp_pscA>
    2320:	28 f0       	brcs	.+10     	; 0x232c <__mulsf3+0x12>
    2322:	ba df       	rcall	.-140    	; 0x2298 <__fp_pscB>
    2324:	18 f0       	brcs	.+6      	; 0x232c <__mulsf3+0x12>
    2326:	95 23       	and	r25, r21
    2328:	09 f0       	breq	.+2      	; 0x232c <__mulsf3+0x12>
    232a:	a6 cf       	rjmp	.-180    	; 0x2278 <__fp_inf>
    232c:	ab cf       	rjmp	.-170    	; 0x2284 <__fp_nan>
    232e:	11 24       	eor	r1, r1
    2330:	ee cf       	rjmp	.-36     	; 0x230e <__fp_szero>

00002332 <__mulsf3x>:
    2332:	ca df       	rcall	.-108    	; 0x22c8 <__fp_split3>
    2334:	a0 f3       	brcs	.-24     	; 0x231e <__mulsf3+0x4>

00002336 <__mulsf3_pse>:
    2336:	95 9f       	mul	r25, r21
    2338:	d1 f3       	breq	.-12     	; 0x232e <__mulsf3+0x14>
    233a:	95 0f       	add	r25, r21
    233c:	50 e0       	ldi	r21, 0x00	; 0
    233e:	55 1f       	adc	r21, r21
    2340:	62 9f       	mul	r22, r18
    2342:	f0 01       	movw	r30, r0
    2344:	72 9f       	mul	r23, r18
    2346:	bb 27       	eor	r27, r27
    2348:	f0 0d       	add	r31, r0
    234a:	b1 1d       	adc	r27, r1
    234c:	63 9f       	mul	r22, r19
    234e:	aa 27       	eor	r26, r26
    2350:	f0 0d       	add	r31, r0
    2352:	b1 1d       	adc	r27, r1
    2354:	aa 1f       	adc	r26, r26
    2356:	64 9f       	mul	r22, r20
    2358:	66 27       	eor	r22, r22
    235a:	b0 0d       	add	r27, r0
    235c:	a1 1d       	adc	r26, r1
    235e:	66 1f       	adc	r22, r22
    2360:	82 9f       	mul	r24, r18
    2362:	22 27       	eor	r18, r18
    2364:	b0 0d       	add	r27, r0
    2366:	a1 1d       	adc	r26, r1
    2368:	62 1f       	adc	r22, r18
    236a:	73 9f       	mul	r23, r19
    236c:	b0 0d       	add	r27, r0
    236e:	a1 1d       	adc	r26, r1
    2370:	62 1f       	adc	r22, r18
    2372:	83 9f       	mul	r24, r19
    2374:	a0 0d       	add	r26, r0
    2376:	61 1d       	adc	r22, r1
    2378:	22 1f       	adc	r18, r18
    237a:	74 9f       	mul	r23, r20
    237c:	33 27       	eor	r19, r19
    237e:	a0 0d       	add	r26, r0
    2380:	61 1d       	adc	r22, r1
    2382:	23 1f       	adc	r18, r19
    2384:	84 9f       	mul	r24, r20
    2386:	60 0d       	add	r22, r0
    2388:	21 1d       	adc	r18, r1
    238a:	82 2f       	mov	r24, r18
    238c:	76 2f       	mov	r23, r22
    238e:	6a 2f       	mov	r22, r26
    2390:	11 24       	eor	r1, r1
    2392:	9f 57       	subi	r25, 0x7F	; 127
    2394:	50 40       	sbci	r21, 0x00	; 0
    2396:	8a f0       	brmi	.+34     	; 0x23ba <__mulsf3_pse+0x84>
    2398:	e1 f0       	breq	.+56     	; 0x23d2 <__mulsf3_pse+0x9c>
    239a:	88 23       	and	r24, r24
    239c:	4a f0       	brmi	.+18     	; 0x23b0 <__mulsf3_pse+0x7a>
    239e:	ee 0f       	add	r30, r30
    23a0:	ff 1f       	adc	r31, r31
    23a2:	bb 1f       	adc	r27, r27
    23a4:	66 1f       	adc	r22, r22
    23a6:	77 1f       	adc	r23, r23
    23a8:	88 1f       	adc	r24, r24
    23aa:	91 50       	subi	r25, 0x01	; 1
    23ac:	50 40       	sbci	r21, 0x00	; 0
    23ae:	a9 f7       	brne	.-22     	; 0x239a <__mulsf3_pse+0x64>
    23b0:	9e 3f       	cpi	r25, 0xFE	; 254
    23b2:	51 05       	cpc	r21, r1
    23b4:	70 f0       	brcs	.+28     	; 0x23d2 <__mulsf3_pse+0x9c>
    23b6:	60 cf       	rjmp	.-320    	; 0x2278 <__fp_inf>
    23b8:	aa cf       	rjmp	.-172    	; 0x230e <__fp_szero>
    23ba:	5f 3f       	cpi	r21, 0xFF	; 255
    23bc:	ec f3       	brlt	.-6      	; 0x23b8 <__mulsf3_pse+0x82>
    23be:	98 3e       	cpi	r25, 0xE8	; 232
    23c0:	dc f3       	brlt	.-10     	; 0x23b8 <__mulsf3_pse+0x82>
    23c2:	86 95       	lsr	r24
    23c4:	77 95       	ror	r23
    23c6:	67 95       	ror	r22
    23c8:	b7 95       	ror	r27
    23ca:	f7 95       	ror	r31
    23cc:	e7 95       	ror	r30
    23ce:	9f 5f       	subi	r25, 0xFF	; 255
    23d0:	c1 f7       	brne	.-16     	; 0x23c2 <__mulsf3_pse+0x8c>
    23d2:	fe 2b       	or	r31, r30
    23d4:	88 0f       	add	r24, r24
    23d6:	91 1d       	adc	r25, r1
    23d8:	96 95       	lsr	r25
    23da:	87 95       	ror	r24
    23dc:	97 f9       	bld	r25, 7
    23de:	08 95       	ret

000023e0 <__mulsi3>:
    23e0:	db 01       	movw	r26, r22
    23e2:	8f 93       	push	r24
    23e4:	9f 93       	push	r25
    23e6:	67 d0       	rcall	.+206    	; 0x24b6 <__muluhisi3>
    23e8:	bf 91       	pop	r27
    23ea:	af 91       	pop	r26
    23ec:	a2 9f       	mul	r26, r18
    23ee:	80 0d       	add	r24, r0
    23f0:	91 1d       	adc	r25, r1
    23f2:	a3 9f       	mul	r26, r19
    23f4:	90 0d       	add	r25, r0
    23f6:	b2 9f       	mul	r27, r18
    23f8:	90 0d       	add	r25, r0
    23fa:	11 24       	eor	r1, r1
    23fc:	08 95       	ret

000023fe <__udivmodsi4>:
    23fe:	a1 e2       	ldi	r26, 0x21	; 33
    2400:	1a 2e       	mov	r1, r26
    2402:	aa 1b       	sub	r26, r26
    2404:	bb 1b       	sub	r27, r27
    2406:	fd 01       	movw	r30, r26
    2408:	0d c0       	rjmp	.+26     	; 0x2424 <__udivmodsi4_ep>

0000240a <__udivmodsi4_loop>:
    240a:	aa 1f       	adc	r26, r26
    240c:	bb 1f       	adc	r27, r27
    240e:	ee 1f       	adc	r30, r30
    2410:	ff 1f       	adc	r31, r31
    2412:	a2 17       	cp	r26, r18
    2414:	b3 07       	cpc	r27, r19
    2416:	e4 07       	cpc	r30, r20
    2418:	f5 07       	cpc	r31, r21
    241a:	20 f0       	brcs	.+8      	; 0x2424 <__udivmodsi4_ep>
    241c:	a2 1b       	sub	r26, r18
    241e:	b3 0b       	sbc	r27, r19
    2420:	e4 0b       	sbc	r30, r20
    2422:	f5 0b       	sbc	r31, r21

00002424 <__udivmodsi4_ep>:
    2424:	66 1f       	adc	r22, r22
    2426:	77 1f       	adc	r23, r23
    2428:	88 1f       	adc	r24, r24
    242a:	99 1f       	adc	r25, r25
    242c:	1a 94       	dec	r1
    242e:	69 f7       	brne	.-38     	; 0x240a <__udivmodsi4_loop>
    2430:	60 95       	com	r22
    2432:	70 95       	com	r23
    2434:	80 95       	com	r24
    2436:	90 95       	com	r25
    2438:	9b 01       	movw	r18, r22
    243a:	ac 01       	movw	r20, r24
    243c:	bd 01       	movw	r22, r26
    243e:	cf 01       	movw	r24, r30
    2440:	08 95       	ret

00002442 <__divmodsi4>:
    2442:	05 2e       	mov	r0, r21
    2444:	97 fb       	bst	r25, 7
    2446:	16 f4       	brtc	.+4      	; 0x244c <__divmodsi4+0xa>
    2448:	00 94       	com	r0
    244a:	0f d0       	rcall	.+30     	; 0x246a <__negsi2>
    244c:	57 fd       	sbrc	r21, 7
    244e:	05 d0       	rcall	.+10     	; 0x245a <__divmodsi4_neg2>
    2450:	d6 df       	rcall	.-84     	; 0x23fe <__udivmodsi4>
    2452:	07 fc       	sbrc	r0, 7
    2454:	02 d0       	rcall	.+4      	; 0x245a <__divmodsi4_neg2>
    2456:	46 f4       	brtc	.+16     	; 0x2468 <__divmodsi4_exit>
    2458:	08 c0       	rjmp	.+16     	; 0x246a <__negsi2>

0000245a <__divmodsi4_neg2>:
    245a:	50 95       	com	r21
    245c:	40 95       	com	r20
    245e:	30 95       	com	r19
    2460:	21 95       	neg	r18
    2462:	3f 4f       	sbci	r19, 0xFF	; 255
    2464:	4f 4f       	sbci	r20, 0xFF	; 255
    2466:	5f 4f       	sbci	r21, 0xFF	; 255

00002468 <__divmodsi4_exit>:
    2468:	08 95       	ret

0000246a <__negsi2>:
    246a:	90 95       	com	r25
    246c:	80 95       	com	r24
    246e:	70 95       	com	r23
    2470:	61 95       	neg	r22
    2472:	7f 4f       	sbci	r23, 0xFF	; 255
    2474:	8f 4f       	sbci	r24, 0xFF	; 255
    2476:	9f 4f       	sbci	r25, 0xFF	; 255
    2478:	08 95       	ret

0000247a <__tablejump2__>:
    247a:	ee 0f       	add	r30, r30
    247c:	ff 1f       	adc	r31, r31
    247e:	00 24       	eor	r0, r0
    2480:	00 1c       	adc	r0, r0
    2482:	0b be       	out	0x3b, r0	; 59
    2484:	07 90       	elpm	r0, Z+
    2486:	f6 91       	elpm	r31, Z
    2488:	e0 2d       	mov	r30, r0
    248a:	09 94       	ijmp

0000248c <__umulhisi3>:
    248c:	a2 9f       	mul	r26, r18
    248e:	b0 01       	movw	r22, r0
    2490:	b3 9f       	mul	r27, r19
    2492:	c0 01       	movw	r24, r0
    2494:	a3 9f       	mul	r26, r19
    2496:	70 0d       	add	r23, r0
    2498:	81 1d       	adc	r24, r1
    249a:	11 24       	eor	r1, r1
    249c:	91 1d       	adc	r25, r1
    249e:	b2 9f       	mul	r27, r18
    24a0:	70 0d       	add	r23, r0
    24a2:	81 1d       	adc	r24, r1
    24a4:	11 24       	eor	r1, r1
    24a6:	91 1d       	adc	r25, r1
    24a8:	08 95       	ret

000024aa <__usmulhisi3>:
    24aa:	f0 df       	rcall	.-32     	; 0x248c <__umulhisi3>

000024ac <__usmulhisi3_tail>:
    24ac:	b7 ff       	sbrs	r27, 7
    24ae:	08 95       	ret
    24b0:	82 1b       	sub	r24, r18
    24b2:	93 0b       	sbc	r25, r19
    24b4:	08 95       	ret

000024b6 <__muluhisi3>:
    24b6:	ea df       	rcall	.-44     	; 0x248c <__umulhisi3>
    24b8:	a5 9f       	mul	r26, r21
    24ba:	90 0d       	add	r25, r0
    24bc:	b4 9f       	mul	r27, r20
    24be:	90 0d       	add	r25, r0
    24c0:	a4 9f       	mul	r26, r20
    24c2:	80 0d       	add	r24, r0
    24c4:	91 1d       	adc	r25, r1
    24c6:	11 24       	eor	r1, r1
    24c8:	08 95       	ret

000024ca <_exit>:
    24ca:	f8 94       	cli

000024cc <__stop_program>:
    24cc:	ff cf       	rjmp	.-2      	; 0x24cc <__stop_program>
